 CuteCar

 Timestamp is 44e717d2 (Sat Aug 19 21:53:22 2006)

 Preferred load address is 00400000

 Start         Length     Name                   Class
 0001:00000000 00044ec2H .text                   CODE
 0001:00044ed0 00001672H .text$x                 CODE
 0001:00046550 00000241H .text$yc                CODE
 0001:000467a0 0000005fH .text$yd                CODE
 0002:00000000 000004bcH .idata$5                DATA
 0002:000004c0 0000c198H .rdata                  DATA
 0002:0000c658 0000006dH .rdata$debug            DATA
 0002:0000c6c8 00000244H .rdata$r                DATA
 0002:0000c910 000001d4H .rdata$sxdata           DATA
 0002:0000cae4 00000004H .rtc$IAA                DATA
 0002:0000cae8 00000004H .rtc$IZZ                DATA
 0002:0000caec 00000004H .rtc$TAA                DATA
 0002:0000caf0 00000004H .rtc$TZZ                DATA
 0002:0000caf4 00001b84H .xdata$x                DATA
 0002:0000e678 000000b4H .idata$2                DATA
 0002:0000e72c 00000014H .idata$3                DATA
 0002:0000e740 000004bcH .idata$4                DATA
 0002:0000ebfc 0000335aH .idata$6                DATA
 0002:00011f56 00000000H .edata                  DATA
 0003:00000000 00000004H .CRT$XCA                DATA
 0003:00000004 00000004H .CRT$XCAA               DATA
 0003:00000008 00000024H .CRT$XCU                DATA
 0003:0000002c 00000004H .CRT$XCZ                DATA
 0003:00000030 00000004H .CRT$XIA                DATA
 0003:00000034 00000010H .CRT$XIC                DATA
 0003:00000044 00000004H .CRT$XIY                DATA
 0003:00000048 00000004H .CRT$XIZ                DATA
 0003:0000004c 00000004H .CRT$XPA                DATA
 0003:00000050 00000004H .CRT$XPX                DATA
 0003:00000054 00000004H .CRT$XPZ                DATA
 0003:00000058 00000004H .CRT$XTA                DATA
 0003:0000005c 00000004H .CRT$XTB                DATA
 0003:00000060 00000004H .CRT$XTZ                DATA
 0003:00000070 00001420H .data                   DATA
 0003:000014a0 00001bc8H .bss                    DATA

  Address         Publics by Value              Rva+Base     Lib:Object

 0000:00000000       __except_list              00000000     <absolute>
 0000:00000075       ___safe_se_handler_count   00000075     <absolute>
 0001:00000000       ??0AudioClass@@QAE@PAUHWND__@@_N@Z 00401000 f   AudioClass.obj
 0001:00000050       ??1AudioClass@@QAE@XZ      00401050 f   AudioClass.obj
 0001:000000d0       ?Initialize@AudioClass@@QAEJXZ 004010d0 f   AudioClass.obj
 0001:00000130       ?InitializeMgr@AudioClass@@AAEJXZ 00401130 f   AudioClass.obj
 0001:000001b0       ?SetPrimaryBufferFormat@AudioClass@@AAEJKKK@Z 004011b0 f   AudioClass.obj
 0001:000002d0       ?Get3DListenerInterface@AudioClass@@AAEJXZ 004012d0 f   AudioClass.obj
 0001:00000370       ?SetListenerParameters@AudioClass@@QAEXMM@Z 00401370 f   AudioClass.obj
 0001:00000410       ?SetListenerPosition@AudioClass@@QAEXU_D3DVECTOR@@@Z 00401410 f   AudioClass.obj
 0001:00000490       ?SetListenerPosition@AudioClass@@QAEXMMM@Z 00401490 f   AudioClass.obj
 0001:000004e0       ?SetListenerVelocity@AudioClass@@QAEXU_D3DVECTOR@@@Z 004014e0 f   AudioClass.obj
 0001:00000560       ?SetListenerVelocity@AudioClass@@QAEXMMM@Z 00401560 f   AudioClass.obj
 0001:000005b0       ?SetListenerOrientFront@AudioClass@@QAEXU_D3DVECTOR@@@Z 004015b0 f   AudioClass.obj
 0001:00000630       ?SetListenerOrientFront@AudioClass@@QAEXMMM@Z 00401630 f   AudioClass.obj
 0001:00000680       ?SetListenerOrientTop@AudioClass@@QAEXU_D3DVECTOR@@@Z 00401680 f   AudioClass.obj
 0001:00000700       ?SetListenerOrientTop@AudioClass@@QAEXMMM@Z 00401700 f   AudioClass.obj
 0001:00000750       ??0SoundClass@@QAE@PAVAudioClass@@@Z 00401750 f   AudioClass.obj
 0001:000007c0       ??0SoundClass@@QAE@PAVAudioClass@@PAD@Z 004017c0 f   AudioClass.obj
 0001:00000840       ??1SoundClass@@UAE@XZ      00401840 f   AudioClass.obj
 0001:000008f0       ?CreateBuffer@SoundClass@@QAEJPAD@Z 004018f0 f   AudioClass.obj
 0001:00001030       ?CreateBuffer@SoundClass@@QAEJPAEKPAUtWAVEFORMATEX@@@Z 00402030 f   AudioClass.obj
 0001:000013a0       ?Get3DBufferInterface@SoundClass@@IAEJXZ 004023a0 f   AudioClass.obj
 0001:00001450       ?FillBufferWithSound@SoundClass@@IAEJ_N@Z 00402450 f   AudioClass.obj
 0001:00001620       ?RestoreBuffer@SoundClass@@IAEJPA_N@Z 00402620 f   AudioClass.obj
 0001:000016c0       ?Play@SoundClass@@QAEJKJJJ@Z 004026c0 f   AudioClass.obj
 0001:00001710       ?Stop@SoundClass@@QAEJXZ   00402710 f   AudioClass.obj
 0001:00001750       ?Reset@SoundClass@@QAEJXZ  00402750 f   AudioClass.obj
 0001:00001790       ?IsSoundPlaying@SoundClass@@QAE_NXZ 00402790 f   AudioClass.obj
 0001:000017e0       ?SetMinDistance@SoundClass@@QAEXM@Z 004027e0 f   AudioClass.obj
 0001:00001850       ?SetMaxDistance@SoundClass@@QAEXM@Z 00402850 f   AudioClass.obj
 0001:000018c0       ?SetPosition@SoundClass@@QAEXU_D3DVECTOR@@@Z 004028c0 f   AudioClass.obj
 0001:00001940       ?SetPosition@SoundClass@@QAEXMMM@Z 00402940 f   AudioClass.obj
 0001:000019a0       ?SetVelocity@SoundClass@@QAEXU_D3DVECTOR@@@Z 004029a0 f   AudioClass.obj
 0001:00001a20       ?SetVelocity@SoundClass@@QAEXMMM@Z 00402a20 f   AudioClass.obj
 0001:00001a80       ?SetConeOrientation@SoundClass@@QAEXU_D3DVECTOR@@@Z 00402a80 f   AudioClass.obj
 0001:00001b00       ?SetConeOrientation@SoundClass@@QAEXMMM@Z 00402b00 f   AudioClass.obj
 0001:00001b60       ?SetInsideConeAngle@SoundClass@@QAEXK@Z 00402b60 f   AudioClass.obj
 0001:00001bd0       ?SetOutsideConeAngle@SoundClass@@QAEXK@Z 00402bd0 f   AudioClass.obj
 0001:00001c40       ?SetConeOutsideVolume@SoundClass@@QAEXJ@Z 00402c40 f   AudioClass.obj
 0001:00001cb0       ??0WaveClass@@QAE@XZ       00402cb0 f   AudioClass.obj
 0001:00001d00       ??1WaveClass@@QAE@XZ       00402d00 f   AudioClass.obj
 0001:00001d50       ?Open@WaveClass@@QAEJPADPAUtWAVEFORMATEX@@K@Z 00402d50 f   AudioClass.obj
 0001:00001fd0       ?OpenFromMemory@WaveClass@@QAEJPAEKPAUtWAVEFORMATEX@@K@Z 00402fd0 f   AudioClass.obj
 0001:00002030       ?ReadMMIO@WaveClass@@IAEJXZ 00403030 f   AudioClass.obj
 0001:00002250       ?GetSize@WaveClass@@QAEKXZ 00403250 f   AudioClass.obj
 0001:00002270       ?ResetFile@WaveClass@@QAEJXZ 00403270 f   AudioClass.obj
 0001:00002370       ?Read@WaveClass@@QAEJPAEKPAK@Z 00403370 f   AudioClass.obj
 0001:00002540       ?Close@WaveClass@@QAEJXZ   00403540 f   AudioClass.obj
 0001:00002710       ?WriteMMIO@WaveClass@@IAEJPAUtWAVEFORMATEX@@@Z 00403710 f   AudioClass.obj
 0001:00002890       ?Write@WaveClass@@QAEJIPAEPAI@Z 00403890 f   AudioClass.obj
 0001:00002980       ??_GSoundClass@@UAEPAXI@Z  00403980 f i AudioClass.obj
 0001:00002980       ??_ESoundClass@@UAEPAXI@Z  00403980 f i AudioClass.obj
 0001:000029b0       ??_GWaveClass@@QAEPAXI@Z   004039b0 f i AudioClass.obj
 0001:000029e0       ?Is3D@AudioClass@@QAE_NXZ  004039e0 f i AudioClass.obj
 0001:00002a00       ?GetDirectSound@AudioClass@@QAEPAUIDirectSound8@@XZ 00403a00 f i AudioClass.obj
 0001:00002a20       ?GetFormat@WaveClass@@QAEPAUtWAVEFORMATEX@@XZ 00403a20 f i AudioClass.obj
 0001:00002a30       ??_H@YGXPAXIHP6EPAX0@Z@Z   00403a30 f i CuteCar.obj
 0001:00002a60       ??2@YAPAXI@Z               00403a60 f i CuteCar.obj
 0001:00002aa0       ??3@YAXPAX@Z               00403aa0 f i CuteCar.obj
 0001:00002ac0       ?convertOgreButtonToCegui@@YA?AW4MouseButton@CEGUI@@H@Z 00403ac0 f   CuteCar.obj
 0001:00002b90       _WinMain@16                00403b90 f   CuteCar.obj
 0001:00002c50       ??_EAllVehicleInfoOgre@@QAEPAXI@Z 00403c50 f i CuteCar.obj
 0001:00002cc0       ??_V@YAXPAX@Z              00403cc0 f i CuteCar.obj
 0001:00002ce0       ??1AllVehicleInfoOgre@@QAE@XZ 00403ce0 f i CuteCar.obj
 0001:00002d00       ?go@ExampleApplication@@UAEXXZ 00403d00 f i CuteCar.obj
 0001:00002d40       ??0CuteCarApplication@@QAE@XZ 00403d40 f i CuteCar.obj
 0001:00002d60       ??0ExampleApplication@@QAE@XZ 00403d60 f i CuteCar.obj
 0001:00002d90       ?setup@ExampleApplication@@MAE_NXZ 00403d90 f i CuteCar.obj
 0001:00002f50       ?configure@ExampleApplication@@MAE_NXZ 00403f50 f i CuteCar.obj
 0001:00002fd0       ?chooseSceneManager@ExampleApplication@@MAEXXZ 00403fd0 f i CuteCar.obj
 0001:00003040       ?createCamera@ExampleApplication@@MAEXXZ 00404040 f i CuteCar.obj
 0001:00003110       ?createFrameListener@ExampleApplication@@MAEXXZ 00404110 f i CuteCar.obj
 0001:000031c0       ??0ExampleFrameListener@@QAE@PAVRenderWindow@Ogre@@PAVCamera@2@_N2@Z 004041c0 f i CuteCar.obj
 0001:00003490       ??0Radian@Ogre@@QAE@M@Z    00404490 f i CuteCar.obj
 0001:000034b0       ??0Degree@Ogre@@QAE@M@Z    004044b0 f i CuteCar.obj
 0001:000034d0       ??4Degree@Ogre@@QAEABV01@ABM@Z 004044d0 f i CuteCar.obj
 0001:000034f0       ?processUnbufferedKeyInput@ExampleFrameListener@@UAE_NABUFrameEvent@Ogre@@@Z 004044f0 f i CuteCar.obj
 0001:00003e60       ??GDegree@Ogre@@QAE?AV01@XZ 00404e60 f i CuteCar.obj
 0001:00003e90       ??0Radian@Ogre@@QAE@ABVDegree@1@@Z 00404e90 f i CuteCar.obj
 0001:00003eb0       ?valueRadians@Degree@Ogre@@QBEMXZ 00404eb0 f i CuteCar.obj
 0001:00003ed0       ?showDebugOverlay@ExampleFrameListener@@QAEX_N@Z 00404ed0 f i CuteCar.obj
 0001:00003f10       ?frameStarted@ExampleFrameListener@@UAE_NABUFrameEvent@Ogre@@@Z 00404f10 f i CuteCar.obj
 0001:000040c0       ??4Radian@Ogre@@QAEABV01@ABM@Z 004050c0 f i CuteCar.obj
 0001:000040e0       ??4Degree@Ogre@@QAEABV01@ABV01@@Z 004050e0 f i CuteCar.obj
 0001:00004100       ??DDegree@Ogre@@QBE?AV01@M@Z 00405100 f i CuteCar.obj
 0001:00004130       ?processUnbufferedMouseInput@ExampleFrameListener@@QAE_NABUFrameEvent@Ogre@@@Z 00405130 f i CuteCar.obj
 0001:00004230       ??4Radian@Ogre@@QAEABV01@ABVDegree@1@@Z 00405230 f i CuteCar.obj
 0001:00004250       ?moveCamera@ExampleFrameListener@@QAEXXZ 00405250 f i CuteCar.obj
 0001:000042a0       ?frameEnded@ExampleFrameListener@@UAE_NABUFrameEvent@Ogre@@@Z 004052a0 f i CuteCar.obj
 0001:000042c0       ?updateStats@ExampleFrameListener@@IAEXXZ 004052c0 f i CuteCar.obj
 0001:00004ba0       ?switchMouseMode@ExampleFrameListener@@QAEXXZ 00405ba0 f i CuteCar.obj
 0001:00004be0       ?switchKeyMode@ExampleFrameListener@@QAEXXZ 00405be0 f i CuteCar.obj
 0001:00004c20       ?keyClicked@ExampleFrameListener@@UAEXPAVKeyEvent@Ogre@@@Z 00405c20 f i CuteCar.obj
 0001:00004c70       ?keyPressed@ExampleFrameListener@@UAEXPAVKeyEvent@Ogre@@@Z 00405c70 f i CuteCar.obj
 0001:00004c80       ?keyReleased@ExampleFrameListener@@UAEXPAVKeyEvent@Ogre@@@Z 00405c80 f i CuteCar.obj
 0001:00004c90       ??_EExampleFrameListener@@UAEPAXI@Z 00405c90 f i CuteCar.obj
 0001:00004c90       ??_GExampleFrameListener@@UAEPAXI@Z 00405c90 f i CuteCar.obj
 0001:00004cc0       ??1ExampleFrameListener@@UAE@XZ 00405cc0 f i CuteCar.obj
 0001:00004d90       ??_EEventProcessor@Ogre@@UAEPAXI@Z 00405d90 f i CuteCar.obj
 0001:00004d90       ??_GEventProcessor@Ogre@@UAEPAXI@Z 00405d90 f i CuteCar.obj
 0001:00004dc0       ?destroyScene@ExampleApplication@@MAEXXZ 00405dc0 f i CuteCar.obj
 0001:00004dd0       ?createViewports@ExampleApplication@@MAEXXZ 00405dd0 f i CuteCar.obj
 0001:00004e70       ?setupResources@ExampleApplication@@MAEXXZ 00405e70 f i CuteCar.obj
 0001:00005080       ?createResourceListener@ExampleApplication@@MAEXXZ 00406080 f i CuteCar.obj
 0001:00005090       ?loadResources@ExampleApplication@@MAEXXZ 00406090 f i CuteCar.obj
 0001:000050b0       ??_GExampleApplication@@UAEPAXI@Z 004060b0 f i CuteCar.obj
 0001:000050b0       ??_EExampleApplication@@UAEPAXI@Z 004060b0 f i CuteCar.obj
 0001:000050e0       ??1ExampleApplication@@UAE@XZ 004060e0 f i CuteCar.obj
 0001:00005170       ??_GRoot@Ogre@@QAEPAXI@Z   00406170 f i CuteCar.obj
 0001:000051a0       ??1CuteCarApplication@@UAE@XZ 004061a0 f i CuteCar.obj
 0001:000051c0       ?chooseSceneManager@CuteCarApplication@@UAEXXZ 004061c0 f i CuteCar.obj
 0001:000051f0       ?createCamera@CuteCarApplication@@UAEXXZ 004061f0 f i CuteCar.obj
 0001:00005300       ?createScene@CuteCarApplication@@UAEXXZ 00406300 f i CuteCar.obj
 0001:00005310       ?createFrameListener@CuteCarApplication@@UAEXXZ 00406310 f i CuteCar.obj
 0001:000053c0       ??0CuteCarFrameListener@@QAE@PAVRenderWindow@Ogre@@PAVCamera@2@PAVSceneManager@2@@Z 004063c0 f i CuteCar.obj
 0001:00006540       ??0VehicleInfo@@QAE@XZ     00407540 f i CuteCar.obj
 0001:000065c0       ?getNxScene@NxTerrain@@QAEPAVNxScene@@XZ 004075c0 f i CuteCar.obj
 0001:000065e0       ?initTerrainItem@NxTerrain@@QAEXPAVNxScene@@@Z 004075e0 f i CuteCar.obj
 0001:00006600       ?addScratchLine@NxTerrain@@QAEXXZ 00407600 f i CuteCar.obj
 0001:00006610       ?SetDefer@AudioClass@@QAEX_N@Z 00407610 f i CuteCar.obj
 0001:00006630       ?SetLoop@SoundClass@@QAEX_N@Z 00407630 f i CuteCar.obj
 0001:00006650       ?GetBuffer@SoundClass@@QAEPAUIDirectSoundBuffer@@XZ 00407650 f i CuteCar.obj
 0001:00006670       ?toNx@NxOgreConvertor@@SA?AVNxVec3@@ABVVector3@Ogre@@@Z 00407670 f i CuteCar.obj
 0001:000066a0       ??0NxVec3@@QAE@MMM@Z       004076a0 f i CuteCar.obj
 0001:000066d0       ?loadMain@CuteCarFrameListener@@QAEXXZ 004076d0 f i CuteCar.obj
 0001:000067f0       ?closesheet@CuteCarFrameListener@@QAEXXZ 004077f0 f i CuteCar.obj
 0001:00006960       ?setupEventHandlers@CuteCarFrameListener@@QAEXXZ 00407960 f i CuteCar.obj
 0001:00006d60       ?ModeSpeed@CuteCarFrameListener@@QAE_NABVEventArgs@CEGUI@@@Z 00407d60 f i CuteCar.obj
 0001:00006db0       ?playscheme@CuteCarFrameListener@@QAEXXZ 00407db0 f i CuteCar.obj
 0001:000078e0       ?ModeDeath@CuteCarFrameListener@@QAE_NABVEventArgs@CEGUI@@@Z 004088e0 f i CuteCar.obj
 0001:00007930       ?handleHelp@CuteCarFrameListener@@QAE_NABVEventArgs@CEGUI@@@Z 00408930 f i CuteCar.obj
 0001:00007a50       ?handlePlace@CuteCarFrameListener@@QAE_NABVEventArgs@CEGUI@@@Z 00408a50 f i CuteCar.obj
 0001:00008260       ?i2TimeString@CuteCarFrameListener@@QAE?AV?$basic_string@DU?$char_traits@D@std@@V?$allocator@D@2@@std@@H@Z 00409260 f i CuteCar.obj
 0001:00008330       ?handleQuit@CuteCarFrameListener@@QAE_NABVEventArgs@CEGUI@@@Z 00409330 f i CuteCar.obj
 0001:00008350       ?setTime@CuteCarFrameListener@@QAEXH@Z 00409350 f i CuteCar.obj
 0001:00008470       ?setSpeed@CuteCarFrameListener@@QAEXH@Z 00409470 f i CuteCar.obj
 0001:00008510       ?frameStarted@CuteCarFrameListener@@UAE_NABUFrameEvent@Ogre@@@Z 00409510 f i CuteCar.obj
 0001:00009b60       ?rand@NxMath@@SAHHH@Z      0040ab60 f i CuteCar.obj
 0001:00009b80       ?getItemId@NxTerrainItem@@QAEHXZ 0040ab80 f i CuteCar.obj
 0001:00009ba0       ?getNumUser@NxTerrain@@QAEHXZ 0040aba0 f i CuteCar.obj
 0001:00009bc0       ?getNumUser@NxAllVehicle@@QAEHXZ 0040abc0 f i CuteCar.obj
 0001:00009be0       ?createTerrainItem@NxTerrain@@QAEPAVNxTerrainItem@@W4ItemType@@ABVNxVec3@@M@Z 0040abe0 f i CuteCar.obj
 0001:00009c10       ?getItemPicked@NxTerrain@@QAEPAV?$NxArray@PAVItemPicked@@VNxAllocatorDefault@@@@XZ 0040ac10 f i CuteCar.obj
 0001:00009c30       ??_U@YAPAXI@Z              0040ac30 f i CuteCar.obj
 0001:00009c70       ?toOgre@NxOgreConvertor@@SA?AUAllVehicleInfoOgre@@ABUAllVehicleInfoNx@@@Z 0040ac70 f i CuteCar.obj
 0001:00009da0       ?toOgre@NxOgreConvertor@@SA?AVVector3@Ogre@@ABVNxVec3@@@Z 0040ada0 f i CuteCar.obj
 0001:00009dd0       ?toOgre@NxOgreConvertor@@SA?AVQuaternion@Ogre@@ABVNxQuat@@@Z 0040add0 f i CuteCar.obj
 0001:00009e00       ??0AllVehicleInfoOgre@@QAE@XZ 0040ae00 f i CuteCar.obj
 0001:00009e60       ??0AllVehicleInfoOgre@@QAE@ABU0@@Z 0040ae60 f i CuteCar.obj
 0001:00009f00       ?GameOver@CuteCarFrameListener@@QAEXXZ 0040af00 f i CuteCar.obj
 0001:0000a120       ?writeGrade@CuteCarFrameListener@@QAEXXZ 0040b120 f i CuteCar.obj
 0001:0000a8b0       ?setupGameOverEvent@CuteCarFrameListener@@QAEXXZ 0040b8b0 f i CuteCar.obj
 0001:0000aae0       ?handleReturn@CuteCarFrameListener@@QAE_NABVEventArgs@CEGUI@@@Z 0040bae0 f i CuteCar.obj
 0001:0000ab00       ?getStr@CuteCarFrameListener@@QAEPADXZ 0040bb00 f i CuteCar.obj
 0001:0000ab50       ?mouseMoved@CuteCarFrameListener@@UAEXPAVMouseEvent@Ogre@@@Z 0040bb50 f i CuteCar.obj
 0001:0000abd0       ?mouseDragged@CuteCarFrameListener@@UAEXPAVMouseEvent@Ogre@@@Z 0040bbd0 f i CuteCar.obj
 0001:0000abf0       ?mousePressed@CuteCarFrameListener@@UAEXPAVMouseEvent@Ogre@@@Z 0040bbf0 f i CuteCar.obj
 0001:0000ac30       ?mouseReleased@CuteCarFrameListener@@UAEXPAVMouseEvent@Ogre@@@Z 0040bc30 f i CuteCar.obj
 0001:0000ac70       ?mouseClicked@CuteCarFrameListener@@UAEXPAVMouseEvent@Ogre@@@Z 0040bc70 f i CuteCar.obj
 0001:0000ac80       ?mouseEntered@CuteCarFrameListener@@UAEXPAVMouseEvent@Ogre@@@Z 0040bc80 f i CuteCar.obj
 0001:0000ac90       ?mouseExited@CuteCarFrameListener@@UAEXPAVMouseEvent@Ogre@@@Z 0040bc90 f i CuteCar.obj
 0001:0000aca0       ?keyClicked@CuteCarFrameListener@@UAEXPAVKeyEvent@Ogre@@@Z 0040bca0 f i CuteCar.obj
 0001:0000acb0       ?keyPressed@CuteCarFrameListener@@UAEXPAVKeyEvent@Ogre@@@Z 0040bcb0 f i CuteCar.obj
 0001:0000b010       ?checkESC@CuteCarFrameListener@@QAEXXZ 0040c010 f i CuteCar.obj
 0001:0000b050       ?setupCheckHandler@CuteCarFrameListener@@QAEXXZ 0040c050 f i CuteCar.obj
 0001:0000b1e0       ?handleChecked@CuteCarFrameListener@@QAE_NABVEventArgs@CEGUI@@@Z 0040c1e0 f i CuteCar.obj
 0001:0000b210       ?handleResume@CuteCarFrameListener@@QAE_NABVEventArgs@CEGUI@@@Z 0040c210 f i CuteCar.obj
 0001:0000b250       ?keyReleased@CuteCarFrameListener@@UAEXPAVKeyEvent@Ogre@@@Z 0040c250 f i CuteCar.obj
 0001:0000b3d0       ??_GCuteCarFrameListener@@UAEPAXI@Z 0040c3d0 f i CuteCar.obj
 0001:0000b3d0       ??_ECuteCarFrameListener@@UAEPAXI@Z 0040c3d0 f i CuteCar.obj
 0001:0000b400       ??1CuteCarFrameListener@@UAE@XZ 0040c400 f i CuteCar.obj
 0001:0000b5f0       ?releasePhysics@NxTerrain@@QAEXXZ 0040c5f0 f i CuteCar.obj
 0001:0000b610       ??_GOgreCEGUIRenderer@CEGUI@@UAEPAXI@Z 0040c610 f i CuteCar.obj
 0001:0000b610       ??_EOgreCEGUIRenderer@CEGUI@@UAEPAXI@Z 0040c610 f i CuteCar.obj
 0001:0000b640       ??_GSystem@CEGUI@@UAEPAXI@Z 0040c640 f i CuteCar.obj
 0001:0000b640       ??_ESystem@CEGUI@@UAEPAXI@Z 0040c640 f i CuteCar.obj
 0001:0000b670       ??4AllVehicleInfoOgre@@QAEAAU0@ABU0@@Z 0040c670 f i CuteCar.obj
 0001:0000b710       ??_GCuteCarApplication@@UAEPAXI@Z 0040c710 f i CuteCar.obj
 0001:0000b710       ??_ECuteCarApplication@@UAEPAXI@Z 0040c710 f i CuteCar.obj
 0001:0000b740       ??0?$basic_string@DU?$char_traits@D@std@@V?$allocator@D@2@@std@@QAE@XZ 0040c740 f i CuteCar.obj
 0001:0000b770       ??0?$basic_string@DU?$char_traits@D@std@@V?$allocator@D@2@@std@@QAE@ABV01@@Z 0040c770 f i CuteCar.obj
 0001:0000b7c0       ??0?$basic_string@DU?$char_traits@D@std@@V?$allocator@D@2@@std@@QAE@PBD@Z 0040c7c0 f i CuteCar.obj
 0001:0000b800       ??1?$basic_string@DU?$char_traits@D@std@@V?$allocator@D@2@@std@@QAE@XZ 0040c800 f i CuteCar.obj
 0001:0000b820       ??4?$basic_string@DU?$char_traits@D@std@@V?$allocator@D@2@@std@@QAEAAV01@ABV01@@Z 0040c820 f i CuteCar.obj
 0001:0000b840       ??4?$basic_string@DU?$char_traits@D@std@@V?$allocator@D@2@@std@@QAEAAV01@PBD@Z 0040c840 f i CuteCar.obj
 0001:0000b860       ?c_str@?$basic_string@DU?$char_traits@D@std@@V?$allocator@D@2@@std@@QBEPBDXZ 0040c860 f i CuteCar.obj
 0001:0000b880       ?size@?$NxArray@PAVNxVehicle@@VNxAllocatorDefault@@@@QBEIXZ 0040c880 f i CuteCar.obj
 0001:0000b8a0       ?size@?$NxArray@PAVItemPicked@@VNxAllocatorDefault@@@@QBEIXZ 0040c8a0 f i CuteCar.obj
 0001:0000b8c0       ?clear@?$NxArray@PAVItemPicked@@VNxAllocatorDefault@@@@QAEXXZ 0040c8c0 f i CuteCar.obj
 0001:0000b8f0       ??A?$NxArray@PAVItemPicked@@VNxAllocatorDefault@@@@QAEAAPAVItemPicked@@I@Z 0040c8f0 f i CuteCar.obj
 0001:0000b910       ?begin@?$vector@W4ItemType@@V?$allocator@W4ItemType@@@std@@@std@@QAE?AViterator@12@XZ 0040c910 f i CuteCar.obj
 0001:0000b930       ?end@?$vector@W4ItemType@@V?$allocator@W4ItemType@@@std@@@std@@QAE?AViterator@12@XZ 0040c930 f i CuteCar.obj
 0001:0000b950       ?size@?$vector@W4ItemType@@V?$allocator@W4ItemType@@@std@@@std@@QBEIXZ 0040c950 f i CuteCar.obj
 0001:0000b990       ??A?$vector@W4ItemType@@V?$allocator@W4ItemType@@@std@@@std@@QAEAAW4ItemType@@I@Z 0040c990 f i CuteCar.obj
 0001:0000b9d0       ?erase@?$vector@W4ItemType@@V?$allocator@W4ItemType@@@std@@@std@@QAE?AViterator@12@V312@@Z 0040c9d0 f i CuteCar.obj
 0001:0000ba30       ??1?$RefPtr@VConnectionInterface@Event@CEGUI@@@CEGUI@@QAE@XZ 0040ca30 f i CuteCar.obj
 0001:0000ba60       ?hasMoreElements@?$MapIterator@V?$map@V?$basic_string@DU?$char_traits@D@std@@V?$allocator@D@2@@std@@PAV?$multimap@V?$basic_string@DU?$char_traits@D@std@@V?$allocator@D@2@@std@@V12@U?$less@V?$basic_string@DU?$char_traits@D@std@@V?$allocator@D@2@@std@@@2@V?$allocator@U?$pair@$$CBV?$basic_string@DU?$char_traits@D@std@@V?$allocator@D@2@@std@@V12@@std@@@2@@2@U?$less@V?$basic_string@DU?$char_traits@D@std@@V?$allocator@D@2@@std@@@2@V?$allocator@U?$pair@$$CBV?$basic_string@DU?$char_traits@D@std@@V?$allocator@D@2@@std@@PAV?$multimap@V?$basic_string@DU?$char_traits@D@std@@V?$allocator@D@2@@std@@V12@U?$less@V?$basic_string@DU?$char_traits@D@std@@V?$allocator@D@2@@std@@@2@V?$allocator@U?$pair@$$CBV?$basic_string@DU?$char_traits@D@std@@V?$allocator@D@2@@std@@V12@@std@@@2@@2@@std@@@2@@std@@@Ogre@@QBE_NXZ 0040ca60 f i CuteCar.obj
 0001:0000ba80       ?getNext@?$MapIterator@V?$map@V?$basic_string@DU?$char_traits@D@std@@V?$allocator@D@2@@std@@PAV?$multimap@V?$basic_string@DU?$char_traits@D@std@@V?$allocator@D@2@@std@@V12@U?$less@V?$basic_string@DU?$char_traits@D@std@@V?$allocator@D@2@@std@@@2@V?$allocator@U?$pair@$$CBV?$basic_string@DU?$char_traits@D@std@@V?$allocator@D@2@@std@@V12@@std@@@2@@2@U?$less@V?$basic_string@DU?$char_traits@D@std@@V?$allocator@D@2@@std@@@2@V?$allocator@U?$pair@$$CBV?$basic_string@DU?$char_traits@D@std@@V?$allocator@D@2@@std@@PAV?$multimap@V?$basic_string@DU?$char_traits@D@std@@V?$allocator@D@2@@std@@V12@U?$less@V?$basic_string@DU?$char_traits@D@std@@V?$allocator@D@2@@std@@@2@V?$allocator@U?$pair@$$CBV?$basic_string@DU?$char_traits@D@std@@V?$allocator@D@2@@std@@V12@@std@@@2@@2@@std@@@2@@std@@@Ogre@@QAEPAV?$multimap@V?$basic_string@DU?$char_traits@D@std@@V?$allocator@D@2@@std@@V12@U?$less@V?$basic_string@DU?$char_traits@D@std@@V?$allocator@D@2@@std@@@2@V?$allocator@U?$pair@$$CBV?$basic_string@DU?$char_traits@D@std@@V?$allocator@D@2@@std@@V12@@std@@@2@@std@@XZ 0040ca80 f i CuteCar.obj
 0001:0000bab0       ?peekNextKey@?$MapIterator@V?$map@V?$basic_string@DU?$char_traits@D@std@@V?$allocator@D@2@@std@@PAV?$multimap@V?$basic_string@DU?$char_traits@D@std@@V?$allocator@D@2@@std@@V12@U?$less@V?$basic_string@DU?$char_traits@D@std@@V?$allocator@D@2@@std@@@2@V?$allocator@U?$pair@$$CBV?$basic_string@DU?$char_traits@D@std@@V?$allocator@D@2@@std@@V12@@std@@@2@@2@U?$less@V?$basic_string@DU?$char_traits@D@std@@V?$allocator@D@2@@std@@@2@V?$allocator@U?$pair@$$CBV?$basic_string@DU?$char_traits@D@std@@V?$allocator@D@2@@std@@PAV?$multimap@V?$basic_string@DU?$char_traits@D@std@@V?$allocator@D@2@@std@@V12@U?$less@V?$basic_string@DU?$char_traits@D@std@@V?$allocator@D@2@@std@@@2@V?$allocator@U?$pair@$$CBV?$basic_string@DU?$char_traits@D@std@@V?$allocator@D@2@@std@@V12@@std@@@2@@2@@std@@@2@@std@@@Ogre@@QAE?AV?$basic_string@DU?$char_traits@D@std@@V?$allocator@D@2@@std@@XZ 0040cab0 f i CuteCar.obj
 0001:0000baf0       ?begin@?$_Tree@V?$_Tmap_traits@V?$basic_string@DU?$char_traits@D@std@@V?$allocator@D@2@@std@@V12@U?$less@V?$basic_string@DU?$char_traits@D@std@@V?$allocator@D@2@@std@@@2@V?$allocator@U?$pair@$$CBV?$basic_string@DU?$char_traits@D@std@@V?$allocator@D@2@@std@@V12@@std@@@2@$00@std@@@std@@QAE?AViterator@12@XZ 0040caf0 f i CuteCar.obj
 0001:0000bb20       ?end@?$_Tree@V?$_Tmap_traits@V?$basic_string@DU?$char_traits@D@std@@V?$allocator@D@2@@std@@V12@U?$less@V?$basic_string@DU?$char_traits@D@std@@V?$allocator@D@2@@std@@@2@V?$allocator@U?$pair@$$CBV?$basic_string@DU?$char_traits@D@std@@V?$allocator@D@2@@std@@V12@@std@@@2@$00@std@@@std@@QAE?AViterator@12@XZ 0040cb20 f i CuteCar.obj
 0001:0000bb40       ??0iterator@?$_Tree@V?$_Tmap_traits@V?$basic_string@DU?$char_traits@D@std@@V?$allocator@D@2@@std@@V12@U?$less@V?$basic_string@DU?$char_traits@D@std@@V?$allocator@D@2@@std@@@2@V?$allocator@U?$pair@$$CBV?$basic_string@DU?$char_traits@D@std@@V?$allocator@D@2@@std@@V12@@std@@@2@$00@std@@@std@@QAE@XZ 0040cb40 f i CuteCar.obj
 0001:0000bb60       ??Citerator@?$_Tree@V?$_Tmap_traits@V?$basic_string@DU?$char_traits@D@std@@V?$allocator@D@2@@std@@V12@U?$less@V?$basic_string@DU?$char_traits@D@std@@V?$allocator@D@2@@std@@@2@V?$allocator@U?$pair@$$CBV?$basic_string@DU?$char_traits@D@std@@V?$allocator@D@2@@std@@V12@@std@@@2@$00@std@@@std@@QBEPAU?$pair@$$CBV?$basic_string@DU?$char_traits@D@std@@V?$allocator@D@2@@std@@V12@@2@XZ 0040cb60 f i CuteCar.obj
 0001:0000bb80       ??Eiterator@?$_Tree@V?$_Tmap_traits@V?$basic_string@DU?$char_traits@D@std@@V?$allocator@D@2@@std@@V12@U?$less@V?$basic_string@DU?$char_traits@D@std@@V?$allocator@D@2@@std@@@2@V?$allocator@U?$pair@$$CBV?$basic_string@DU?$char_traits@D@std@@V?$allocator@D@2@@std@@V12@@std@@@2@$00@std@@@std@@QAEAAV012@XZ 0040cb80 f i CuteCar.obj
 0001:0000bba0       ??9const_iterator@?$_Tree@V?$_Tmap_traits@V?$basic_string@DU?$char_traits@D@std@@V?$allocator@D@2@@std@@V12@U?$less@V?$basic_string@DU?$char_traits@D@std@@V?$allocator@D@2@@std@@@2@V?$allocator@U?$pair@$$CBV?$basic_string@DU?$char_traits@D@std@@V?$allocator@D@2@@std@@V12@@std@@@2@$00@std@@@std@@QBE_NABV012@@Z 0040cba0 f i CuteCar.obj
 0001:0000bbd0       ??Eiterator@?$vector@W4ItemType@@V?$allocator@W4ItemType@@@std@@@std@@QAE?AV012@H@Z 0040cbd0 f i CuteCar.obj
 0001:0000bc00       ??9const_iterator@?$vector@W4ItemType@@V?$allocator@W4ItemType@@@std@@@std@@QBE_NABV012@@Z 0040cc00 f i CuteCar.obj
 0001:0000bc30       ?assign@?$basic_string@DU?$char_traits@D@std@@V?$allocator@D@2@@std@@QAEAAV12@ABV12@@Z 0040cc30 f i CuteCar.obj
 0001:0000bc60       ?assign@?$basic_string@DU?$char_traits@D@std@@V?$allocator@D@2@@std@@QAEAAV12@ABV12@II@Z 0040cc60 f i CuteCar.obj
 0001:0000bd20       ?copy@?$char_traits@D@std@@SAPADPADPBDI@Z 0040cd20 f i CuteCar.obj
 0001:0000bd50       ?size@?$basic_string@DU?$char_traits@D@std@@V?$allocator@D@2@@std@@QBEIXZ 0040cd50 f i CuteCar.obj
 0001:0000bd70       ?assign@?$basic_string@DU?$char_traits@D@std@@V?$allocator@D@2@@std@@QAEAAV12@PBD@Z 0040cd70 f i CuteCar.obj
 0001:0000bda0       ?length@?$char_traits@D@std@@SAIPBD@Z 0040cda0 f i CuteCar.obj
 0001:0000bde0       ?_Tidy@?$basic_string@DU?$char_traits@D@std@@V?$allocator@D@2@@std@@IAEX_NI@Z 0040cde0 f i CuteCar.obj
 0001:0000be60       ?_Myptr@?$basic_string@DU?$char_traits@D@std@@V?$allocator@D@2@@std@@QBEPBDXZ 0040ce60 f i CuteCar.obj
 0001:0000be90       ??0?$_String_val@DV?$allocator@D@std@@@std@@IAE@V?$allocator@D@1@@Z 0040ce90 f i CuteCar.obj
 0001:0000beb0       ??0?$allocator@D@std@@QAE@XZ 0040ceb0 f i CuteCar.obj
 0001:0000bec0       ??0?$allocator@D@std@@QAE@ABV01@@Z 0040cec0 f i CuteCar.obj
 0001:0000bed0       ?deallocate@?$allocator@D@std@@QAEXPADI@Z 0040ced0 f i CuteCar.obj
 0001:0000bef0       ?begin@?$NxArray@PAVItemPicked@@VNxAllocatorDefault@@@@QAEPAPAVItemPicked@@XZ 0040cef0 f i CuteCar.obj
 0001:0000bf00       ?end@?$NxArray@PAVItemPicked@@VNxAllocatorDefault@@@@QAEPAPAVItemPicked@@XZ 0040cf00 f i CuteCar.obj
 0001:0000bf20       ?destroy@?$NxArray@PAVItemPicked@@VNxAllocatorDefault@@@@AAEXPAPAVItemPicked@@0@Z 0040cf20 f i CuteCar.obj
 0001:0000bf50       ?_Destroy@?$vector@W4ItemType@@V?$allocator@W4ItemType@@@std@@@std@@IAEXPAW4ItemType@@0@Z 0040cf50 f i CuteCar.obj
 0001:0000bf80       ??Citerator@?$_Tree@V?$_Tmap_traits@V?$basic_string@DU?$char_traits@D@std@@V?$allocator@D@2@@std@@PAV?$multimap@V?$basic_string@DU?$char_traits@D@std@@V?$allocator@D@2@@std@@V12@U?$less@V?$basic_string@DU?$char_traits@D@std@@V?$allocator@D@2@@std@@@2@V?$allocator@U?$pair@$$CBV?$basic_string@DU?$char_traits@D@std@@V?$allocator@D@2@@std@@V12@@std@@@2@@2@U?$less@V?$basic_string@DU?$char_traits@D@std@@V?$allocator@D@2@@std@@@2@V?$allocator@U?$pair@$$CBV?$basic_string@DU?$char_traits@D@std@@V?$allocator@D@2@@std@@PAV?$multimap@V?$basic_string@DU?$char_traits@D@std@@V?$allocator@D@2@@std@@V12@U?$less@V?$basic_string@DU?$char_traits@D@std@@V?$allocator@D@2@@std@@@2@V?$allocator@U?$pair@$$CBV?$basic_string@DU?$char_traits@D@std@@V?$allocator@D@2@@std@@V12@@std@@@2@@2@@std@@@2@$0A@@std@@@std@@QBEPAU?$pair@$$CBV?$basic_string@DU?$char_traits@D@std@@V?$allocator@D@2@@std@@PAV?$multimap@V?$basic_string@DU?$char_traits@D@std@@V?$allocator@D@2@@std@@V12@U?$less@V?$basic_string@DU?$char_traits@D@std@@V?$allocator@D@2@@std@@@2@V?$allocator@U?$pair@$$CBV?$basic_string@DU?$char_traits@D@std@@V?$allocator@D@2@@std@@V12@@std@@@2@@2@@2@XZ 0040cf80 f i CuteCar.obj
 0001:0000bfa0       ??Eiterator@?$_Tree@V?$_Tmap_traits@V?$basic_string@DU?$char_traits@D@std@@V?$allocator@D@2@@std@@PAV?$multimap@V?$basic_string@DU?$char_traits@D@std@@V?$allocator@D@2@@std@@V12@U?$less@V?$basic_string@DU?$char_traits@D@std@@V?$allocator@D@2@@std@@@2@V?$allocator@U?$pair@$$CBV?$basic_string@DU?$char_traits@D@std@@V?$allocator@D@2@@std@@V12@@std@@@2@@2@U?$less@V?$basic_string@DU?$char_traits@D@std@@V?$allocator@D@2@@std@@@2@V?$allocator@U?$pair@$$CBV?$basic_string@DU?$char_traits@D@std@@V?$allocator@D@2@@std@@PAV?$multimap@V?$basic_string@DU?$char_traits@D@std@@V?$allocator@D@2@@std@@V12@U?$less@V?$basic_string@DU?$char_traits@D@std@@V?$allocator@D@2@@std@@@2@V?$allocator@U?$pair@$$CBV?$basic_string@DU?$char_traits@D@std@@V?$allocator@D@2@@std@@V12@@std@@@2@@2@@std@@@2@$0A@@std@@@std@@QAE?AV012@H@Z 0040cfa0 f i CuteCar.obj
 0001:0000bfd0       ??9const_iterator@?$_Tree@V?$_Tmap_traits@V?$basic_string@DU?$char_traits@D@std@@V?$allocator@D@2@@std@@PAV?$multimap@V?$basic_string@DU?$char_traits@D@std@@V?$allocator@D@2@@std@@V12@U?$less@V?$basic_string@DU?$char_traits@D@std@@V?$allocator@D@2@@std@@@2@V?$allocator@U?$pair@$$CBV?$basic_string@DU?$char_traits@D@std@@V?$allocator@D@2@@std@@V12@@std@@@2@@2@U?$less@V?$basic_string@DU?$char_traits@D@std@@V?$allocator@D@2@@std@@@2@V?$allocator@U?$pair@$$CBV?$basic_string@DU?$char_traits@D@std@@V?$allocator@D@2@@std@@PAV?$multimap@V?$basic_string@DU?$char_traits@D@std@@V?$allocator@D@2@@std@@V12@U?$less@V?$basic_string@DU?$char_traits@D@std@@V?$allocator@D@2@@std@@@2@V?$allocator@U?$pair@$$CBV?$basic_string@DU?$char_traits@D@std@@V?$allocator@D@2@@std@@V12@@std@@@2@@2@@std@@@2@$0A@@std@@@std@@QBE_NABV012@@Z 0040cfd0 f i CuteCar.obj
 0001:0000c000       ?_Lmost@?$_Tree@V?$_Tmap_traits@V?$basic_string@DU?$char_traits@D@std@@V?$allocator@D@2@@std@@V12@U?$less@V?$basic_string@DU?$char_traits@D@std@@V?$allocator@D@2@@std@@@2@V?$allocator@U?$pair@$$CBV?$basic_string@DU?$char_traits@D@std@@V?$allocator@D@2@@std@@V12@@std@@@2@$00@std@@@std@@IAEAAPAU_Node@?$_Tree_nod@V?$_Tmap_traits@V?$basic_string@DU?$char_traits@D@std@@V?$allocator@D@2@@std@@V12@U?$less@V?$basic_string@DU?$char_traits@D@std@@V?$allocator@D@2@@std@@@2@V?$allocator@U?$pair@$$CBV?$basic_string@DU?$char_traits@D@std@@V?$allocator@D@2@@std@@V12@@std@@@2@$00@std@@@2@XZ 0040d000 f i CuteCar.obj
 0001:0000c020       ??0iterator@?$_Tree@V?$_Tmap_traits@V?$basic_string@DU?$char_traits@D@std@@V?$allocator@D@2@@std@@V12@U?$less@V?$basic_string@DU?$char_traits@D@std@@V?$allocator@D@2@@std@@@2@V?$allocator@U?$pair@$$CBV?$basic_string@DU?$char_traits@D@std@@V?$allocator@D@2@@std@@V12@@std@@@2@$00@std@@@std@@QAE@PAU_Node@?$_Tree_nod@V?$_Tmap_traits@V?$basic_string@DU?$char_traits@D@std@@V?$allocator@D@2@@std@@V12@U?$less@V?$basic_string@DU?$char_traits@D@std@@V?$allocator@D@2@@std@@@2@V?$allocator@U?$pair@$$CBV?$basic_string@DU?$char_traits@D@std@@V?$allocator@D@2@@std@@V12@@std@@@2@$00@std@@@2@@Z 0040d020 f i CuteCar.obj
 0001:0000c040       ??Diterator@?$_Tree@V?$_Tmap_traits@V?$basic_string@DU?$char_traits@D@std@@V?$allocator@D@2@@std@@V12@U?$less@V?$basic_string@DU?$char_traits@D@std@@V?$allocator@D@2@@std@@@2@V?$allocator@U?$pair@$$CBV?$basic_string@DU?$char_traits@D@std@@V?$allocator@D@2@@std@@V12@@std@@@2@$00@std@@@std@@QBEAAU?$pair@$$CBV?$basic_string@DU?$char_traits@D@std@@V?$allocator@D@2@@std@@V12@@2@XZ 0040d040 f i CuteCar.obj
 0001:0000c060       ??0const_iterator@?$_Tree@V?$_Tmap_traits@V?$basic_string@DU?$char_traits@D@std@@V?$allocator@D@2@@std@@V12@U?$less@V?$basic_string@DU?$char_traits@D@std@@V?$allocator@D@2@@std@@@2@V?$allocator@U?$pair@$$CBV?$basic_string@DU?$char_traits@D@std@@V?$allocator@D@2@@std@@V12@@std@@@2@$00@std@@@std@@QAE@XZ 0040d060 f i CuteCar.obj
 0001:0000c080       ??Econst_iterator@?$_Tree@V?$_Tmap_traits@V?$basic_string@DU?$char_traits@D@std@@V?$allocator@D@2@@std@@V12@U?$less@V?$basic_string@DU?$char_traits@D@std@@V?$allocator@D@2@@std@@@2@V?$allocator@U?$pair@$$CBV?$basic_string@DU?$char_traits@D@std@@V?$allocator@D@2@@std@@V12@@std@@@2@$00@std@@@std@@QAEAAV012@XZ 0040d080 f i CuteCar.obj
 0001:0000c0a0       ??8const_iterator@?$_Tree@V?$_Tmap_traits@V?$basic_string@DU?$char_traits@D@std@@V?$allocator@D@2@@std@@V12@U?$less@V?$basic_string@DU?$char_traits@D@std@@V?$allocator@D@2@@std@@@2@V?$allocator@U?$pair@$$CBV?$basic_string@DU?$char_traits@D@std@@V?$allocator@D@2@@std@@V12@@std@@@2@$00@std@@@std@@QBE_NABV012@@Z 0040d0a0 f i CuteCar.obj
 0001:0000c0c0       ??0iterator@?$vector@W4ItemType@@V?$allocator@W4ItemType@@@std@@@std@@QAE@PAW4ItemType@@@Z 0040d0c0 f i CuteCar.obj
 0001:0000c0e0       ??Diterator@?$vector@W4ItemType@@V?$allocator@W4ItemType@@@std@@@std@@QBEAAW4ItemType@@XZ 0040d0e0 f i CuteCar.obj
 0001:0000c100       ??Eiterator@?$vector@W4ItemType@@V?$allocator@W4ItemType@@@std@@@std@@QAEAAV012@XZ 0040d100 f i CuteCar.obj
 0001:0000c120       ??Hiterator@?$vector@W4ItemType@@V?$allocator@W4ItemType@@@std@@@std@@QBE?AV012@H@Z 0040d120 f i CuteCar.obj
 0001:0000c150       ??8const_iterator@?$vector@W4ItemType@@V?$allocator@W4ItemType@@@std@@@std@@QBE_NABV012@@Z 0040d150 f i CuteCar.obj
 0001:0000c170       ?assign@?$basic_string@DU?$char_traits@D@std@@V?$allocator@D@2@@std@@QAEAAV12@PBDI@Z 0040d170 f i CuteCar.obj
 0001:0000c1f0       ?erase@?$basic_string@DU?$char_traits@D@std@@V?$allocator@D@2@@std@@QAEAAV12@II@Z 0040d1f0 f i CuteCar.obj
 0001:0000c280       ?move@?$char_traits@D@std@@SAPADPADPBDI@Z 0040d280 f i CuteCar.obj
 0001:0000c2a0       ?_Eos@?$basic_string@DU?$char_traits@D@std@@V?$allocator@D@2@@std@@IAEXI@Z 0040d2a0 f i CuteCar.obj
 0001:0000c2e0       ?assign@?$char_traits@D@std@@SAXAADABD@Z 0040d2e0 f i CuteCar.obj
 0001:0000c2f0       ?_Grow@?$basic_string@DU?$char_traits@D@std@@V?$allocator@D@2@@std@@IAE_NI_N@Z 0040d2f0 f i CuteCar.obj
 0001:0000c390       ?_Myptr@?$basic_string@DU?$char_traits@D@std@@V?$allocator@D@2@@std@@QAEPADXZ 0040d390 f i CuteCar.obj
 0001:0000c3c0       ??Diterator@?$_Tree@V?$_Tmap_traits@V?$basic_string@DU?$char_traits@D@std@@V?$allocator@D@2@@std@@PAV?$multimap@V?$basic_string@DU?$char_traits@D@std@@V?$allocator@D@2@@std@@V12@U?$less@V?$basic_string@DU?$char_traits@D@std@@V?$allocator@D@2@@std@@@2@V?$allocator@U?$pair@$$CBV?$basic_string@DU?$char_traits@D@std@@V?$allocator@D@2@@std@@V12@@std@@@2@@2@U?$less@V?$basic_string@DU?$char_traits@D@std@@V?$allocator@D@2@@std@@@2@V?$allocator@U?$pair@$$CBV?$basic_string@DU?$char_traits@D@std@@V?$allocator@D@2@@std@@PAV?$multimap@V?$basic_string@DU?$char_traits@D@std@@V?$allocator@D@2@@std@@V12@U?$less@V?$basic_string@DU?$char_traits@D@std@@V?$allocator@D@2@@std@@@2@V?$allocator@U?$pair@$$CBV?$basic_string@DU?$char_traits@D@std@@V?$allocator@D@2@@std@@V12@@std@@@2@@2@@std@@@2@$0A@@std@@@std@@QBEAAU?$pair@$$CBV?$basic_string@DU?$char_traits@D@std@@V?$allocator@D@2@@std@@PAV?$multimap@V?$basic_string@DU?$char_traits@D@std@@V?$allocator@D@2@@std@@V12@U?$less@V?$basic_string@DU?$char_traits@D@std@@V?$allocator@D@2@@std@@@2@V?$allocator@U?$pair@$$CBV?$basic_string@DU?$char_traits@D@std@@V?$allocator@D@2@@std@@V12@@std@@@2@@2@@2@XZ 0040d3c0 f i CuteCar.obj
 0001:0000c3e0       ??Eiterator@?$_Tree@V?$_Tmap_traits@V?$basic_string@DU?$char_traits@D@std@@V?$allocator@D@2@@std@@PAV?$multimap@V?$basic_string@DU?$char_traits@D@std@@V?$allocator@D@2@@std@@V12@U?$less@V?$basic_string@DU?$char_traits@D@std@@V?$allocator@D@2@@std@@@2@V?$allocator@U?$pair@$$CBV?$basic_string@DU?$char_traits@D@std@@V?$allocator@D@2@@std@@V12@@std@@@2@@2@U?$less@V?$basic_string@DU?$char_traits@D@std@@V?$allocator@D@2@@std@@@2@V?$allocator@U?$pair@$$CBV?$basic_string@DU?$char_traits@D@std@@V?$allocator@D@2@@std@@PAV?$multimap@V?$basic_string@DU?$char_traits@D@std@@V?$allocator@D@2@@std@@V12@U?$less@V?$basic_string@DU?$char_traits@D@std@@V?$allocator@D@2@@std@@@2@V?$allocator@U?$pair@$$CBV?$basic_string@DU?$char_traits@D@std@@V?$allocator@D@2@@std@@V12@@std@@@2@@2@@std@@@2@$0A@@std@@@std@@QAEAAV012@XZ 0040d3e0 f i CuteCar.obj
 0001:0000c400       ??8const_iterator@?$_Tree@V?$_Tmap_traits@V?$basic_string@DU?$char_traits@D@std@@V?$allocator@D@2@@std@@PAV?$multimap@V?$basic_string@DU?$char_traits@D@std@@V?$allocator@D@2@@std@@V12@U?$less@V?$basic_string@DU?$char_traits@D@std@@V?$allocator@D@2@@std@@@2@V?$allocator@U?$pair@$$CBV?$basic_string@DU?$char_traits@D@std@@V?$allocator@D@2@@std@@V12@@std@@@2@@2@U?$less@V?$basic_string@DU?$char_traits@D@std@@V?$allocator@D@2@@std@@@2@V?$allocator@U?$pair@$$CBV?$basic_string@DU?$char_traits@D@std@@V?$allocator@D@2@@std@@PAV?$multimap@V?$basic_string@DU?$char_traits@D@std@@V?$allocator@D@2@@std@@V12@U?$less@V?$basic_string@DU?$char_traits@D@std@@V?$allocator@D@2@@std@@@2@V?$allocator@U?$pair@$$CBV?$basic_string@DU?$char_traits@D@std@@V?$allocator@D@2@@std@@V12@@std@@@2@@2@@std@@@2@$0A@@std@@@std@@QBE_NABV012@@Z 0040d400 f i CuteCar.obj
 0001:0000c420       ?_Left@?$_Tree@V?$_Tmap_traits@V?$basic_string@DU?$char_traits@D@std@@V?$allocator@D@2@@std@@V12@U?$less@V?$basic_string@DU?$char_traits@D@std@@V?$allocator@D@2@@std@@@2@V?$allocator@U?$pair@$$CBV?$basic_string@DU?$char_traits@D@std@@V?$allocator@D@2@@std@@V12@@std@@@2@$00@std@@@std@@KAAAPAU_Node@?$_Tree_nod@V?$_Tmap_traits@V?$basic_string@DU?$char_traits@D@std@@V?$allocator@D@2@@std@@V12@U?$less@V?$basic_string@DU?$char_traits@D@std@@V?$allocator@D@2@@std@@@2@V?$allocator@U?$pair@$$CBV?$basic_string@DU?$char_traits@D@std@@V?$allocator@D@2@@std@@V12@@std@@@2@$00@std@@@2@PAU342@@Z 0040d420 f i CuteCar.obj
 0001:0000c430       ??0const_iterator@?$_Tree@V?$_Tmap_traits@V?$basic_string@DU?$char_traits@D@std@@V?$allocator@D@2@@std@@V12@U?$less@V?$basic_string@DU?$char_traits@D@std@@V?$allocator@D@2@@std@@@2@V?$allocator@U?$pair@$$CBV?$basic_string@DU?$char_traits@D@std@@V?$allocator@D@2@@std@@V12@@std@@@2@$00@std@@@std@@QAE@PAU_Node@?$_Tree_nod@V?$_Tmap_traits@V?$basic_string@DU?$char_traits@D@std@@V?$allocator@D@2@@std@@V12@U?$less@V?$basic_string@DU?$char_traits@D@std@@V?$allocator@D@2@@std@@@2@V?$allocator@U?$pair@$$CBV?$basic_string@DU?$char_traits@D@std@@V?$allocator@D@2@@std@@V12@@std@@@2@$00@std@@@2@@Z 0040d430 f i CuteCar.obj
 0001:0000c450       ??Dconst_iterator@?$_Tree@V?$_Tmap_traits@V?$basic_string@DU?$char_traits@D@std@@V?$allocator@D@2@@std@@V12@U?$less@V?$basic_string@DU?$char_traits@D@std@@V?$allocator@D@2@@std@@@2@V?$allocator@U?$pair@$$CBV?$basic_string@DU?$char_traits@D@std@@V?$allocator@D@2@@std@@V12@@std@@@2@$00@std@@@std@@QBEABU?$pair@$$CBV?$basic_string@DU?$char_traits@D@std@@V?$allocator@D@2@@std@@V12@@2@XZ 0040d450 f i CuteCar.obj
 0001:0000c470       ?_Inc@const_iterator@?$_Tree@V?$_Tmap_traits@V?$basic_string@DU?$char_traits@D@std@@V?$allocator@D@2@@std@@V12@U?$less@V?$basic_string@DU?$char_traits@D@std@@V?$allocator@D@2@@std@@@2@V?$allocator@U?$pair@$$CBV?$basic_string@DU?$char_traits@D@std@@V?$allocator@D@2@@std@@V12@@std@@@2@$00@std@@@std@@QAEXXZ 0040d470 f i CuteCar.obj
 0001:0000c530       ??Yiterator@?$vector@W4ItemType@@V?$allocator@W4ItemType@@@std@@@std@@QAEAAV012@H@Z 0040d530 f i CuteCar.obj
 0001:0000c550       ??0const_iterator@?$vector@W4ItemType@@V?$allocator@W4ItemType@@@std@@@std@@QAE@PAW4ItemType@@@Z 0040d550 f i CuteCar.obj
 0001:0000c570       ??Dconst_iterator@?$vector@W4ItemType@@V?$allocator@W4ItemType@@@std@@@std@@QBEABW4ItemType@@XZ 0040d570 f i CuteCar.obj
 0001:0000c580       ?max_size@?$basic_string@DU?$char_traits@D@std@@V?$allocator@D@2@@std@@QBEIXZ 0040d580 f i CuteCar.obj
 0001:0000c5c0       ?_Copy@?$basic_string@DU?$char_traits@D@std@@V?$allocator@D@2@@std@@IAEXII@Z 0040d5c0 f i CuteCar.obj
 0001:0000c720       ?allocate@?$allocator@D@std@@QAEPADI@Z 0040d720 f i CuteCar.obj
 0001:0000c740       ?_Inside@?$basic_string@DU?$char_traits@D@std@@V?$allocator@D@2@@std@@IAE_NPBD@Z 0040d740 f i CuteCar.obj
 0001:0000c780       ??Dconst_iterator@?$_Tree@V?$_Tmap_traits@V?$basic_string@DU?$char_traits@D@std@@V?$allocator@D@2@@std@@PAV?$multimap@V?$basic_string@DU?$char_traits@D@std@@V?$allocator@D@2@@std@@V12@U?$less@V?$basic_string@DU?$char_traits@D@std@@V?$allocator@D@2@@std@@@2@V?$allocator@U?$pair@$$CBV?$basic_string@DU?$char_traits@D@std@@V?$allocator@D@2@@std@@V12@@std@@@2@@2@U?$less@V?$basic_string@DU?$char_traits@D@std@@V?$allocator@D@2@@std@@@2@V?$allocator@U?$pair@$$CBV?$basic_string@DU?$char_traits@D@std@@V?$allocator@D@2@@std@@PAV?$multimap@V?$basic_string@DU?$char_traits@D@std@@V?$allocator@D@2@@std@@V12@U?$less@V?$basic_string@DU?$char_traits@D@std@@V?$allocator@D@2@@std@@@2@V?$allocator@U?$pair@$$CBV?$basic_string@DU?$char_traits@D@std@@V?$allocator@D@2@@std@@V12@@std@@@2@@2@@std@@@2@$0A@@std@@@std@@QBEABU?$pair@$$CBV?$basic_string@DU?$char_traits@D@std@@V?$allocator@D@2@@std@@PAV?$multimap@V?$basic_string@DU?$char_traits@D@std@@V?$allocator@D@2@@std@@V12@U?$less@V?$basic_string@DU?$char_traits@D@std@@V?$allocator@D@2@@std@@@2@V?$allocator@U?$pair@$$CBV?$basic_string@DU?$char_traits@D@std@@V?$allocator@D@2@@std@@V12@@std@@@2@@2@@2@XZ 0040d780 f i CuteCar.obj
 0001:0000c7a0       ??Econst_iterator@?$_Tree@V?$_Tmap_traits@V?$basic_string@DU?$char_traits@D@std@@V?$allocator@D@2@@std@@PAV?$multimap@V?$basic_string@DU?$char_traits@D@std@@V?$allocator@D@2@@std@@V12@U?$less@V?$basic_string@DU?$char_traits@D@std@@V?$allocator@D@2@@std@@@2@V?$allocator@U?$pair@$$CBV?$basic_string@DU?$char_traits@D@std@@V?$allocator@D@2@@std@@V12@@std@@@2@@2@U?$less@V?$basic_string@DU?$char_traits@D@std@@V?$allocator@D@2@@std@@@2@V?$allocator@U?$pair@$$CBV?$basic_string@DU?$char_traits@D@std@@V?$allocator@D@2@@std@@PAV?$multimap@V?$basic_string@DU?$char_traits@D@std@@V?$allocator@D@2@@std@@V12@U?$less@V?$basic_string@DU?$char_traits@D@std@@V?$allocator@D@2@@std@@@2@V?$allocator@U?$pair@$$CBV?$basic_string@DU?$char_traits@D@std@@V?$allocator@D@2@@std@@V12@@std@@@2@@2@@std@@@2@$0A@@std@@@std@@QAEAAV012@XZ 0040d7a0 f i CuteCar.obj
 0001:0000c7c0       ?_Isnil@?$_Tree@V?$_Tmap_traits@V?$basic_string@DU?$char_traits@D@std@@V?$allocator@D@2@@std@@V12@U?$less@V?$basic_string@DU?$char_traits@D@std@@V?$allocator@D@2@@std@@@2@V?$allocator@U?$pair@$$CBV?$basic_string@DU?$char_traits@D@std@@V?$allocator@D@2@@std@@V12@@std@@@2@$00@std@@@std@@KAAADPAU_Node@?$_Tree_nod@V?$_Tmap_traits@V?$basic_string@DU?$char_traits@D@std@@V?$allocator@D@2@@std@@V12@U?$less@V?$basic_string@DU?$char_traits@D@std@@V?$allocator@D@2@@std@@@2@V?$allocator@U?$pair@$$CBV?$basic_string@DU?$char_traits@D@std@@V?$allocator@D@2@@std@@V12@@std@@@2@$00@std@@@2@@Z 0040d7c0 f i CuteCar.obj
 0001:0000c7d0       ?_Parent@?$_Tree@V?$_Tmap_traits@V?$basic_string@DU?$char_traits@D@std@@V?$allocator@D@2@@std@@V12@U?$less@V?$basic_string@DU?$char_traits@D@std@@V?$allocator@D@2@@std@@@2@V?$allocator@U?$pair@$$CBV?$basic_string@DU?$char_traits@D@std@@V?$allocator@D@2@@std@@V12@@std@@@2@$00@std@@@std@@KAAAPAU_Node@?$_Tree_nod@V?$_Tmap_traits@V?$basic_string@DU?$char_traits@D@std@@V?$allocator@D@2@@std@@V12@U?$less@V?$basic_string@DU?$char_traits@D@std@@V?$allocator@D@2@@std@@@2@V?$allocator@U?$pair@$$CBV?$basic_string@DU?$char_traits@D@std@@V?$allocator@D@2@@std@@V12@@std@@@2@$00@std@@@2@PAU342@@Z 0040d7d0 f i CuteCar.obj
 0001:0000c7e0       ?_Right@?$_Tree@V?$_Tmap_traits@V?$basic_string@DU?$char_traits@D@std@@V?$allocator@D@2@@std@@V12@U?$less@V?$basic_string@DU?$char_traits@D@std@@V?$allocator@D@2@@std@@@2@V?$allocator@U?$pair@$$CBV?$basic_string@DU?$char_traits@D@std@@V?$allocator@D@2@@std@@V12@@std@@@2@$00@std@@@std@@KAAAPAU_Node@?$_Tree_nod@V?$_Tmap_traits@V?$basic_string@DU?$char_traits@D@std@@V?$allocator@D@2@@std@@V12@U?$less@V?$basic_string@DU?$char_traits@D@std@@V?$allocator@D@2@@std@@@2@V?$allocator@U?$pair@$$CBV?$basic_string@DU?$char_traits@D@std@@V?$allocator@D@2@@std@@V12@@std@@@2@$00@std@@@2@PAU342@@Z 0040d7e0 f i CuteCar.obj
 0001:0000c7f0       ?_Myval@?$_Tree@V?$_Tmap_traits@V?$basic_string@DU?$char_traits@D@std@@V?$allocator@D@2@@std@@V12@U?$less@V?$basic_string@DU?$char_traits@D@std@@V?$allocator@D@2@@std@@@2@V?$allocator@U?$pair@$$CBV?$basic_string@DU?$char_traits@D@std@@V?$allocator@D@2@@std@@V12@@std@@@2@$00@std@@@std@@KAAAU?$pair@$$CBV?$basic_string@DU?$char_traits@D@std@@V?$allocator@D@2@@std@@V12@@2@PAU_Node@?$_Tree_nod@V?$_Tmap_traits@V?$basic_string@DU?$char_traits@D@std@@V?$allocator@D@2@@std@@V12@U?$less@V?$basic_string@DU?$char_traits@D@std@@V?$allocator@D@2@@std@@@2@V?$allocator@U?$pair@$$CBV?$basic_string@DU?$char_traits@D@std@@V?$allocator@D@2@@std@@V12@@std@@@2@$00@std@@@2@@Z 0040d7f0 f i CuteCar.obj
 0001:0000c800       ?_Min@?$_Tree@V?$_Tmap_traits@V?$basic_string@DU?$char_traits@D@std@@V?$allocator@D@2@@std@@V12@U?$less@V?$basic_string@DU?$char_traits@D@std@@V?$allocator@D@2@@std@@@2@V?$allocator@U?$pair@$$CBV?$basic_string@DU?$char_traits@D@std@@V?$allocator@D@2@@std@@V12@@std@@@2@$00@std@@@std@@KAPAU_Node@?$_Tree_nod@V?$_Tmap_traits@V?$basic_string@DU?$char_traits@D@std@@V?$allocator@D@2@@std@@V12@U?$less@V?$basic_string@DU?$char_traits@D@std@@V?$allocator@D@2@@std@@@2@V?$allocator@U?$pair@$$CBV?$basic_string@DU?$char_traits@D@std@@V?$allocator@D@2@@std@@V12@@std@@@2@$00@std@@@2@PAU342@@Z 0040d800 f i CuteCar.obj
 0001:0000c840       ?max_size@?$allocator@D@std@@QBEIXZ 0040d840 f i CuteCar.obj
 0001:0000c870       ?_Myval@?$_Tree@V?$_Tmap_traits@V?$basic_string@DU?$char_traits@D@std@@V?$allocator@D@2@@std@@PAV?$multimap@V?$basic_string@DU?$char_traits@D@std@@V?$allocator@D@2@@std@@V12@U?$less@V?$basic_string@DU?$char_traits@D@std@@V?$allocator@D@2@@std@@@2@V?$allocator@U?$pair@$$CBV?$basic_string@DU?$char_traits@D@std@@V?$allocator@D@2@@std@@V12@@std@@@2@@2@U?$less@V?$basic_string@DU?$char_traits@D@std@@V?$allocator@D@2@@std@@@2@V?$allocator@U?$pair@$$CBV?$basic_string@DU?$char_traits@D@std@@V?$allocator@D@2@@std@@PAV?$multimap@V?$basic_string@DU?$char_traits@D@std@@V?$allocator@D@2@@std@@V12@U?$less@V?$basic_string@DU?$char_traits@D@std@@V?$allocator@D@2@@std@@@2@V?$allocator@U?$pair@$$CBV?$basic_string@DU?$char_traits@D@std@@V?$allocator@D@2@@std@@V12@@std@@@2@@2@@std@@@2@$0A@@std@@@std@@KAAAU?$pair@$$CBV?$basic_string@DU?$char_traits@D@std@@V?$allocator@D@2@@std@@PAV?$multimap@V?$basic_string@DU?$char_traits@D@std@@V?$allocator@D@2@@std@@V12@U?$less@V?$basic_string@DU?$char_traits@D@std@@V?$allocator@D@2@@std@@@2@V?$allocator@U?$pair@$$CBV?$basic_string@DU?$char_traits@D@std@@V?$allocator@D@2@@std@@V12@@std@@@2@@2@@2@PAU_Node@?$_Tree_nod@V?$_Tmap_traits@V?$basic_string@DU?$char_traits@D@std@@V?$allocator@D@2@@std@@PAV?$multimap@V?$basic_string@DU?$char_traits@D@std@@V?$allocator@D@2@@std@@V12@U?$less@V?$basic_string@DU?$char_traits@D@std@@V?$allocator@D@2@@std@@@2@V?$allocator@U?$pair@$$CBV?$basic_string@DU?$char_traits@D@std@@V?$allocator@D@2@@std@@V12@@std@@@2@@2@U?$less@V?$basic_string@DU?$char_traits@D@std@@V?$allocator@D@2@@std@@@2@V?$allocator@U?$pair@$$CBV?$basic_string@DU?$char_traits@D@std@@V?$allocator@D@2@@std@@PAV?$multimap@V?$basic_string@DU?$char_traits@D@std@@V?$allocator@D@2@@std@@V12@U?$less@V?$basic_string@DU?$char_traits@D@std@@V?$allocator@D@2@@std@@@2@V?$allocator@U?$pair@$$CBV?$basic_string@DU?$char_traits@D@std@@V?$allocator@D@2@@std@@V12@@std@@@2@@2@@std@@@2@$0A@@std@@@2@@Z 0040d870 f i CuteCar.obj
 0001:0000c880       ?_Inc@const_iterator@?$_Tree@V?$_Tmap_traits@V?$basic_string@DU?$char_traits@D@std@@V?$allocator@D@2@@std@@PAV?$multimap@V?$basic_string@DU?$char_traits@D@std@@V?$allocator@D@2@@std@@V12@U?$less@V?$basic_string@DU?$char_traits@D@std@@V?$allocator@D@2@@std@@@2@V?$allocator@U?$pair@$$CBV?$basic_string@DU?$char_traits@D@std@@V?$allocator@D@2@@std@@V12@@std@@@2@@2@U?$less@V?$basic_string@DU?$char_traits@D@std@@V?$allocator@D@2@@std@@@2@V?$allocator@U?$pair@$$CBV?$basic_string@DU?$char_traits@D@std@@V?$allocator@D@2@@std@@PAV?$multimap@V?$basic_string@DU?$char_traits@D@std@@V?$allocator@D@2@@std@@V12@U?$less@V?$basic_string@DU?$char_traits@D@std@@V?$allocator@D@2@@std@@@2@V?$allocator@U?$pair@$$CBV?$basic_string@DU?$char_traits@D@std@@V?$allocator@D@2@@std@@V12@@std@@@2@@2@@std@@@2@$0A@@std@@@std@@QAEXXZ 0040d880 f i CuteCar.obj
 0001:0000c940       ?_Isnil@?$_Tree@V?$_Tmap_traits@V?$basic_string@DU?$char_traits@D@std@@V?$allocator@D@2@@std@@PAV?$multimap@V?$basic_string@DU?$char_traits@D@std@@V?$allocator@D@2@@std@@V12@U?$less@V?$basic_string@DU?$char_traits@D@std@@V?$allocator@D@2@@std@@@2@V?$allocator@U?$pair@$$CBV?$basic_string@DU?$char_traits@D@std@@V?$allocator@D@2@@std@@V12@@std@@@2@@2@U?$less@V?$basic_string@DU?$char_traits@D@std@@V?$allocator@D@2@@std@@@2@V?$allocator@U?$pair@$$CBV?$basic_string@DU?$char_traits@D@std@@V?$allocator@D@2@@std@@PAV?$multimap@V?$basic_string@DU?$char_traits@D@std@@V?$allocator@D@2@@std@@V12@U?$less@V?$basic_string@DU?$char_traits@D@std@@V?$allocator@D@2@@std@@@2@V?$allocator@U?$pair@$$CBV?$basic_string@DU?$char_traits@D@std@@V?$allocator@D@2@@std@@V12@@std@@@2@@2@@std@@@2@$0A@@std@@@std@@KAAADPAU_Node@?$_Tree_nod@V?$_Tmap_traits@V?$basic_string@DU?$char_traits@D@std@@V?$allocator@D@2@@std@@PAV?$multimap@V?$basic_string@DU?$char_traits@D@std@@V?$allocator@D@2@@std@@V12@U?$less@V?$basic_string@DU?$char_traits@D@std@@V?$allocator@D@2@@std@@@2@V?$allocator@U?$pair@$$CBV?$basic_string@DU?$char_traits@D@std@@V?$allocator@D@2@@std@@V12@@std@@@2@@2@U?$less@V?$basic_string@DU?$char_traits@D@std@@V?$allocator@D@2@@std@@@2@V?$allocator@U?$pair@$$CBV?$basic_string@DU?$char_traits@D@std@@V?$allocator@D@2@@std@@PAV?$multimap@V?$basic_string@DU?$char_traits@D@std@@V?$allocator@D@2@@std@@V12@U?$less@V?$basic_string@DU?$char_traits@D@std@@V?$allocator@D@2@@std@@@2@V?$allocator@U?$pair@$$CBV?$basic_string@DU?$char_traits@D@std@@V?$allocator@D@2@@std@@V12@@std@@@2@@2@@std@@@2@$0A@@std@@@2@@Z 0040d940 f i CuteCar.obj
 0001:0000c950       ?_Parent@?$_Tree@V?$_Tmap_traits@V?$basic_string@DU?$char_traits@D@std@@V?$allocator@D@2@@std@@PAV?$multimap@V?$basic_string@DU?$char_traits@D@std@@V?$allocator@D@2@@std@@V12@U?$less@V?$basic_string@DU?$char_traits@D@std@@V?$allocator@D@2@@std@@@2@V?$allocator@U?$pair@$$CBV?$basic_string@DU?$char_traits@D@std@@V?$allocator@D@2@@std@@V12@@std@@@2@@2@U?$less@V?$basic_string@DU?$char_traits@D@std@@V?$allocator@D@2@@std@@@2@V?$allocator@U?$pair@$$CBV?$basic_string@DU?$char_traits@D@std@@V?$allocator@D@2@@std@@PAV?$multimap@V?$basic_string@DU?$char_traits@D@std@@V?$allocator@D@2@@std@@V12@U?$less@V?$basic_string@DU?$char_traits@D@std@@V?$allocator@D@2@@std@@@2@V?$allocator@U?$pair@$$CBV?$basic_string@DU?$char_traits@D@std@@V?$allocator@D@2@@std@@V12@@std@@@2@@2@@std@@@2@$0A@@std@@@std@@KAAAPAU_Node@?$_Tree_nod@V?$_Tmap_traits@V?$basic_string@DU?$char_traits@D@std@@V?$allocator@D@2@@std@@PAV?$multimap@V?$basic_string@DU?$char_traits@D@std@@V?$allocator@D@2@@std@@V12@U?$less@V?$basic_string@DU?$char_traits@D@std@@V?$allocator@D@2@@std@@@2@V?$allocator@U?$pair@$$CBV?$basic_string@DU?$char_traits@D@std@@V?$allocator@D@2@@std@@V12@@std@@@2@@2@U?$less@V?$basic_string@DU?$char_traits@D@std@@V?$allocator@D@2@@std@@@2@V?$allocator@U?$pair@$$CBV?$basic_string@DU?$char_traits@D@std@@V?$allocator@D@2@@std@@PAV?$multimap@V?$basic_string@DU?$char_traits@D@std@@V?$allocator@D@2@@std@@V12@U?$less@V?$basic_string@DU?$char_traits@D@std@@V?$allocator@D@2@@std@@@2@V?$allocator@U?$pair@$$CBV?$basic_string@DU?$char_traits@D@std@@V?$allocator@D@2@@std@@V12@@std@@@2@@2@@std@@@2@$0A@@std@@@2@PAU342@@Z 0040d950 f i CuteCar.obj
 0001:0000c960       ?_Right@?$_Tree@V?$_Tmap_traits@V?$basic_string@DU?$char_traits@D@std@@V?$allocator@D@2@@std@@PAV?$multimap@V?$basic_string@DU?$char_traits@D@std@@V?$allocator@D@2@@std@@V12@U?$less@V?$basic_string@DU?$char_traits@D@std@@V?$allocator@D@2@@std@@@2@V?$allocator@U?$pair@$$CBV?$basic_string@DU?$char_traits@D@std@@V?$allocator@D@2@@std@@V12@@std@@@2@@2@U?$less@V?$basic_string@DU?$char_traits@D@std@@V?$allocator@D@2@@std@@@2@V?$allocator@U?$pair@$$CBV?$basic_string@DU?$char_traits@D@std@@V?$allocator@D@2@@std@@PAV?$multimap@V?$basic_string@DU?$char_traits@D@std@@V?$allocator@D@2@@std@@V12@U?$less@V?$basic_string@DU?$char_traits@D@std@@V?$allocator@D@2@@std@@@2@V?$allocator@U?$pair@$$CBV?$basic_string@DU?$char_traits@D@std@@V?$allocator@D@2@@std@@V12@@std@@@2@@2@@std@@@2@$0A@@std@@@std@@KAAAPAU_Node@?$_Tree_nod@V?$_Tmap_traits@V?$basic_string@DU?$char_traits@D@std@@V?$allocator@D@2@@std@@PAV?$multimap@V?$basic_string@DU?$char_traits@D@std@@V?$allocator@D@2@@std@@V12@U?$less@V?$basic_string@DU?$char_traits@D@std@@V?$allocator@D@2@@std@@@2@V?$allocator@U?$pair@$$CBV?$basic_string@DU?$char_traits@D@std@@V?$allocator@D@2@@std@@V12@@std@@@2@@2@U?$less@V?$basic_string@DU?$char_traits@D@std@@V?$allocator@D@2@@std@@@2@V?$allocator@U?$pair@$$CBV?$basic_string@DU?$char_traits@D@std@@V?$allocator@D@2@@std@@PAV?$multimap@V?$basic_string@DU?$char_traits@D@std@@V?$allocator@D@2@@std@@V12@U?$less@V?$basic_string@DU?$char_traits@D@std@@V?$allocator@D@2@@std@@@2@V?$allocator@U?$pair@$$CBV?$basic_string@DU?$char_traits@D@std@@V?$allocator@D@2@@std@@V12@@std@@@2@@2@@std@@@2@$0A@@std@@@2@PAU342@@Z 0040d960 f i CuteCar.obj
 0001:0000c970       ?_Min@?$_Tree@V?$_Tmap_traits@V?$basic_string@DU?$char_traits@D@std@@V?$allocator@D@2@@std@@PAV?$multimap@V?$basic_string@DU?$char_traits@D@std@@V?$allocator@D@2@@std@@V12@U?$less@V?$basic_string@DU?$char_traits@D@std@@V?$allocator@D@2@@std@@@2@V?$allocator@U?$pair@$$CBV?$basic_string@DU?$char_traits@D@std@@V?$allocator@D@2@@std@@V12@@std@@@2@@2@U?$less@V?$basic_string@DU?$char_traits@D@std@@V?$allocator@D@2@@std@@@2@V?$allocator@U?$pair@$$CBV?$basic_string@DU?$char_traits@D@std@@V?$allocator@D@2@@std@@PAV?$multimap@V?$basic_string@DU?$char_traits@D@std@@V?$allocator@D@2@@std@@V12@U?$less@V?$basic_string@DU?$char_traits@D@std@@V?$allocator@D@2@@std@@@2@V?$allocator@U?$pair@$$CBV?$basic_string@DU?$char_traits@D@std@@V?$allocator@D@2@@std@@V12@@std@@@2@@2@@std@@@2@$0A@@std@@@std@@KAPAU_Node@?$_Tree_nod@V?$_Tmap_traits@V?$basic_string@DU?$char_traits@D@std@@V?$allocator@D@2@@std@@PAV?$multimap@V?$basic_string@DU?$char_traits@D@std@@V?$allocator@D@2@@std@@V12@U?$less@V?$basic_string@DU?$char_traits@D@std@@V?$allocator@D@2@@std@@@2@V?$allocator@U?$pair@$$CBV?$basic_string@DU?$char_traits@D@std@@V?$allocator@D@2@@std@@V12@@std@@@2@@2@U?$less@V?$basic_string@DU?$char_traits@D@std@@V?$allocator@D@2@@std@@@2@V?$allocator@U?$pair@$$CBV?$basic_string@DU?$char_traits@D@std@@V?$allocator@D@2@@std@@PAV?$multimap@V?$basic_string@DU?$char_traits@D@std@@V?$allocator@D@2@@std@@V12@U?$less@V?$basic_string@DU?$char_traits@D@std@@V?$allocator@D@2@@std@@@2@V?$allocator@U?$pair@$$CBV?$basic_string@DU?$char_traits@D@std@@V?$allocator@D@2@@std@@V12@@std@@@2@@2@@std@@@2@$0A@@std@@@2@PAU342@@Z 0040d970 f i CuteCar.obj
 0001:0000c9b0       ?_Left@?$_Tree@V?$_Tmap_traits@V?$basic_string@DU?$char_traits@D@std@@V?$allocator@D@2@@std@@PAV?$multimap@V?$basic_string@DU?$char_traits@D@std@@V?$allocator@D@2@@std@@V12@U?$less@V?$basic_string@DU?$char_traits@D@std@@V?$allocator@D@2@@std@@@2@V?$allocator@U?$pair@$$CBV?$basic_string@DU?$char_traits@D@std@@V?$allocator@D@2@@std@@V12@@std@@@2@@2@U?$less@V?$basic_string@DU?$char_traits@D@std@@V?$allocator@D@2@@std@@@2@V?$allocator@U?$pair@$$CBV?$basic_string@DU?$char_traits@D@std@@V?$allocator@D@2@@std@@PAV?$multimap@V?$basic_string@DU?$char_traits@D@std@@V?$allocator@D@2@@std@@V12@U?$less@V?$basic_string@DU?$char_traits@D@std@@V?$allocator@D@2@@std@@@2@V?$allocator@U?$pair@$$CBV?$basic_string@DU?$char_traits@D@std@@V?$allocator@D@2@@std@@V12@@std@@@2@@2@@std@@@2@$0A@@std@@@std@@KAAAPAU_Node@?$_Tree_nod@V?$_Tmap_traits@V?$basic_string@DU?$char_traits@D@std@@V?$allocator@D@2@@std@@PAV?$multimap@V?$basic_string@DU?$char_traits@D@std@@V?$allocator@D@2@@std@@V12@U?$less@V?$basic_string@DU?$char_traits@D@std@@V?$allocator@D@2@@std@@@2@V?$allocator@U?$pair@$$CBV?$basic_string@DU?$char_traits@D@std@@V?$allocator@D@2@@std@@V12@@std@@@2@@2@U?$less@V?$basic_string@DU?$char_traits@D@std@@V?$allocator@D@2@@std@@@2@V?$allocator@U?$pair@$$CBV?$basic_string@DU?$char_traits@D@std@@V?$allocator@D@2@@std@@PAV?$multimap@V?$basic_string@DU?$char_traits@D@std@@V?$allocator@D@2@@std@@V12@U?$less@V?$basic_string@DU?$char_traits@D@std@@V?$allocator@D@2@@std@@@2@V?$allocator@U?$pair@$$CBV?$basic_string@DU?$char_traits@D@std@@V?$allocator@D@2@@std@@V12@@std@@@2@@2@@std@@@2@$0A@@std@@@2@PAU342@@Z 0040d9b0 f i CuteCar.obj
 0001:0000c9c0       ??$?HDU?$char_traits@D@std@@V?$allocator@D@1@@std@@YA?AV?$basic_string@DU?$char_traits@D@std@@V?$allocator@D@2@@0@PBDABV10@@Z 0040d9c0 f i CuteCar.obj
 0001:0000ca40       ??Y?$basic_string@DU?$char_traits@D@std@@V?$allocator@D@2@@std@@QAEAAV01@ABV01@@Z 0040da40 f i CuteCar.obj
 0001:0000ca60       ?append@?$basic_string@DU?$char_traits@D@std@@V?$allocator@D@2@@std@@QAEAAV12@ABV12@@Z 0040da60 f i CuteCar.obj
 0001:0000ca90       ?append@?$basic_string@DU?$char_traits@D@std@@V?$allocator@D@2@@std@@QAEAAV12@ABV12@II@Z 0040da90 f i CuteCar.obj
 0001:0000cb50       ??$?HDU?$char_traits@D@std@@V?$allocator@D@1@@std@@YA?AV?$basic_string@DU?$char_traits@D@std@@V?$allocator@D@2@@0@ABV10@PBD@Z 0040db50 f i CuteCar.obj
 0001:0000cbd0       ??Y?$basic_string@DU?$char_traits@D@std@@V?$allocator@D@2@@std@@QAEAAV01@PBD@Z 0040dbd0 f i CuteCar.obj
 0001:0000cbf0       ?append@?$basic_string@DU?$char_traits@D@std@@V?$allocator@D@2@@std@@QAEAAV12@PBD@Z 0040dbf0 f i CuteCar.obj
 0001:0000cc20       ?append@?$basic_string@DU?$char_traits@D@std@@V?$allocator@D@2@@std@@QAEAAV12@PBDI@Z 0040dc20 f i CuteCar.obj
 0001:0000ccd0       ??$?HDU?$char_traits@D@std@@V?$allocator@D@1@@std@@YA?AV?$basic_string@DU?$char_traits@D@std@@V?$allocator@D@2@@0@ABV10@0@Z 0040dcd0 f i CuteCar.obj
 0001:0000cd50       ??$?0VCuteCarFrameListener@@@?$SubscriberTemplate@_NABVEventArgs@CEGUI@@@CEGUI@@QAE@P8CuteCarFrameListener@@AE_NABVEventArgs@1@@ZPAV2@@Z 0040dd50 f i CuteCar.obj
 0001:0000cdd0       ??$copy@PAW4ItemType@@PAW41@@std@@YAPAW4ItemType@@PAW41@00@Z 0040ddd0 f i CuteCar.obj
 0001:0000ce10       ??$_Allocate@D@std@@YAPADIPAD@Z 0040de10 f i CuteCar.obj
 0001:0000ce30       ??$_Destroy_range@W4ItemType@@V?$allocator@W4ItemType@@@std@@@std@@YAXPAW4ItemType@@0AAV?$allocator@W4ItemType@@@0@@Z 0040de30 f i CuteCar.obj
 0001:0000ce70       ??0?$_memberBinder@VCuteCarFrameListener@@_NABVEventArgs@CEGUI@@@CEGUI@@QAE@P8CuteCarFrameListener@@AE_NABVEventArgs@1@@ZPAV2@@Z 0040de70 f i CuteCar.obj
 0001:0000ceb0       ??R?$_memberBinder@VCuteCarFrameListener@@_NABVEventArgs@CEGUI@@@CEGUI@@UBE_NABVEventArgs@1@@Z 0040deb0 f i CuteCar.obj
 0001:0000cee0       ??_E?$_memberBinder@VCuteCarFrameListener@@_NABVEventArgs@CEGUI@@@CEGUI@@UAEPAXI@Z 0040dee0 f i CuteCar.obj
 0001:0000cee0       ??_G?$_memberBinder@VCuteCarFrameListener@@_NABVEventArgs@CEGUI@@@CEGUI@@UAEPAXI@Z 0040dee0 f i CuteCar.obj
 0001:0000cf10       ??0?$SubscriberInterface@_NABVEventArgs@CEGUI@@@CEGUI@@QAE@XZ 0040df10 f i CuteCar.obj
 0001:0000cf30       ??_G?$SubscriberInterface@_NABVEventArgs@CEGUI@@@CEGUI@@UAEPAXI@Z 0040df30 f i CuteCar.obj
 0001:0000cf30       ??_E?$SubscriberInterface@_NABVEventArgs@CEGUI@@@CEGUI@@UAEPAXI@Z 0040df30 f i CuteCar.obj
 0001:0000cf60       ??1?$SubscriberInterface@_NABVEventArgs@CEGUI@@@CEGUI@@UAE@XZ 0040df60 f i CuteCar.obj
 0001:0000cf80       ??1?$_memberBinder@VCuteCarFrameListener@@_NABVEventArgs@CEGUI@@@CEGUI@@UAE@XZ 0040df80 f i CuteCar.obj
 0001:0000cfa0       ??$_Ptr_cat@PAW4ItemType@@PAW41@@std@@YA?AU_Nonscalar_ptr_iterator_tag@0@AAPAW4ItemType@@0@Z 0040dfa0 f i CuteCar.obj
 0001:0000cfb0       ??$_Copy_opt@PAW4ItemType@@PAW41@@std@@YAPAW4ItemType@@PAW41@00U_Nonscalar_ptr_iterator_tag@0@@Z 0040dfb0 f i CuteCar.obj
 0001:0000cfe0       ??$_Destroy_range@W4ItemType@@V?$allocator@W4ItemType@@@std@@@std@@YAXPAW4ItemType@@0AAV?$allocator@W4ItemType@@@0@U_Nonscalar_ptr_iterator_tag@0@@Z 0040dfe0 f i CuteCar.obj
 0001:0000d010       ?destroy@?$allocator@W4ItemType@@@std@@QAEXPAW4ItemType@@@Z 0040e010 f i CuteCar.obj
 0001:0000d030       ??$_Destroy@W4ItemType@@@std@@YAXPAW4ItemType@@@Z 0040e030 f i CuteCar.obj
 0001:0000d040       ??_EEventProcessor@Ogre@@W3AEPAXI@Z 0040e040 f i CuteCar.obj
 0001:0000d050       ?processEvent@EventProcessor@Ogre@@WCA@AEXPAVInputEvent@2@@Z 0040e050 f i CuteCar.obj
 0001:0000d060       ??_EEventProcessor@Ogre@@WCE@AEPAXI@Z 0040e060 f i CuteCar.obj
 0001:0000d070       ?getLeft@EventProcessor@Ogre@@WCA@BEMXZ 0040e070 f i CuteCar.obj
 0001:0000d080       ?getTop@EventProcessor@Ogre@@WCA@BEMXZ 0040e080 f i CuteCar.obj
 0001:0000d090       ?getPositionTargetParent@EventProcessor@Ogre@@WCA@BEPAVPositionTarget@2@XZ 0040e090 f i CuteCar.obj
 0001:0000d0a0       ?isKeyEnabled@EventProcessor@Ogre@@WCA@BE_NXZ 0040e0a0 f i CuteCar.obj
 0001:0000d0b0       ?processEvent@EventProcessor@Ogre@@WDM@AEXPAVInputEvent@2@@Z 0040e0b0 f i CuteCar.obj
 0001:0000d0c0       ??_EEventProcessor@Ogre@@WEA@AEPAXI@Z 0040e0c0 f i CuteCar.obj
 0001:0000d0d0       ??_ECuteCarFrameListener@@W3AEPAXI@Z 0040e0d0 f i CuteCar.obj
 0001:0000d0e0       ??_ECuteCarFrameListener@@WFI@AEPAXI@Z 0040e0e0 f i CuteCar.obj
 0001:0000d0f0       ??_ECuteCarFrameListener@@WFM@AEPAXI@Z 0040e0f0 f i CuteCar.obj
 0001:0000d100       ??_EExampleFrameListener@@W3AEPAXI@Z 0040e100 f i CuteCar.obj
 0001:0000d110       ??0id@locale@std@@QAE@I@Z  0040e110 f i CuteCar.obj
 0001:0000d130       ??0NxAllVehicle@@IAE@XZ    0040e130 f   NxAllVehicle.obj
 0001:0000d1d0       ??1NxAllVehicle@@MAE@XZ    0040e1d0 f   NxAllVehicle.obj
 0001:0000d230       ?getSingleton@NxAllVehicle@@SAPAV1@XZ 0040e230 f   NxAllVehicle.obj
 0001:0000d2e0       ?addVehicle@NxAllVehicle@@QAEPAVNxVehicle@@ABVNxVec3@@VVehicleInfo@@V?$basic_string@DU?$char_traits@D@std@@V?$allocator@D@2@@std@@PAVNxScene@@PAVNxPhysicsSDK@@@Z 0040e2e0 f   NxAllVehicle.obj
 0001:0000df90       ?setCurrentUser@NxAllVehicle@@QAEHABV?$basic_string@DU?$char_traits@D@std@@V?$allocator@D@2@@std@@@Z 0040ef90 f   NxAllVehicle.obj
 0001:0000e050       ?getUserVehicle@NxAllVehicle@@QAEPAVNxVehicle@@XZ 0040f050 f   NxAllVehicle.obj
 0001:0000e080       ?setOilAmount@NxAllVehicle@@QAEXH@Z 0040f080 f   NxAllVehicle.obj
 0001:0000e0b0       ?getOilAmount@NxAllVehicle@@QAEHXZ 0040f0b0 f   NxAllVehicle.obj
 0001:0000e0e0       ?setLoopNum@NxAllVehicle@@QAEXH@Z 0040f0e0 f   NxAllVehicle.obj
 0001:0000e110       ?getLoopNum@NxAllVehicle@@QAEHXZ 0040f110 f   NxAllVehicle.obj
 0001:0000e140       ?killUserVehicle@NxAllVehicle@@QAEXXZ 0040f140 f   NxAllVehicle.obj
 0001:0000e180       ?changeUserVehicle@NxAllVehicle@@QAEPAVNxVehicle@@XZ 0040f180 f   NxAllVehicle.obj
 0001:0000e1f0       ?control@NxAllVehicle@@QAEXHH_N@Z 0040f1f0 f   NxAllVehicle.obj
 0001:0000e240       ?standUp@NxAllVehicle@@QAEXXZ 0040f240 f   NxAllVehicle.obj
 0001:0000e270       ?setToBeginning@NxAllVehicle@@QAEXABVNxVec3@@@Z 0040f270 f   NxAllVehicle.obj
 0001:0000e2b0       ?updateAllVehicle@NxAllVehicle@@QAEXM@Z 0040f2b0 f   NxAllVehicle.obj
 0001:0000e310       ?getVehicleInfo@NxAllVehicle@@QAEPAUAllVehicleInfoNx@@XZ 0040f310 f   NxAllVehicle.obj
 0001:0000e540       ?getUserVelocity@NxAllVehicle@@QAEMXZ 0040f540 f   NxAllVehicle.obj
 0001:0000e570       ?setToSlip@NxAllVehicle@@QAEXXZ 0040f570 f   NxAllVehicle.obj
 0001:0000e5a0       ?cancleSlip@NxAllVehicle@@QAEXXZ 0040f5a0 f   NxAllVehicle.obj
 0001:0000e5d0       ?setMaxVelocity@NxAllVehicle@@QAEXM@Z 0040f5d0 f   NxAllVehicle.obj
 0001:0000e600       ??_GNxAllVehicle@@MAEPAXI@Z 0040f600 f i NxAllVehicle.obj
 0001:0000e600       ??_ENxAllVehicle@@MAEPAXI@Z 0040f600 f i NxAllVehicle.obj
 0001:0000e630       ??4NxVec3@@QAEABV0@ABV0@@Z 0040f630 f i NxAllVehicle.obj
 0001:0000e670       ?set@NxVec3@@QAEXMMM@Z     0040f670 f i NxAllVehicle.obj
 0001:0000e6a0       ??0NxWheelDesc@@QAE@XZ     0040f6a0 f i NxAllVehicle.obj
 0001:0000e6c0       ??0NxVec3@@QAE@XZ          0040f6c0 f i NxAllVehicle.obj
 0001:0000e6d0       ?setToDefault@NxWheelDesc@@QAEXXZ 0040f6d0 f i NxAllVehicle.obj
 0001:0000e760       ?setToCorvette@NxVehicleMotorDesc@@QAEXXZ 0040f760 f i NxAllVehicle.obj
 0001:0000e7f0       ?insert@NxLinearInterpolationValues@@QAEXMM@Z 0040f7f0 f i NxAllVehicle.obj
 0001:0000e870       ?max@NxMath@@SAMMM@Z       0040f870 f i NxAllVehicle.obj
 0001:0000e8a0       ?min@NxMath@@SAMMM@Z       0040f8a0 f i NxAllVehicle.obj
 0001:0000e8d0       ??0NxVehicleGearDesc@@QAE@XZ 0040f8d0 f i NxAllVehicle.obj
 0001:0000e8f0       ?setToDefault@NxVehicleGearDesc@@QAEXXZ 0040f8f0 f i NxAllVehicle.obj
 0001:0000e900       ?setToCorvette@NxVehicleGearDesc@@QAEXXZ 0040f900 f i NxAllVehicle.obj
 0001:0000e960       ??0NxQuat@@QAE@XZ          0040f960 f i NxAllVehicle.obj
 0001:0000e970       ?fromAngleAxis@NxQuat@@QAEXMABVNxVec3@@@Z 0040f970 f i NxAllVehicle.obj
 0001:0000ea70       ?sqrt@NxMath@@SAMM@Z       0040fa70 f i NxAllVehicle.obj
 0001:0000ea90       _sqrtf                     0040fa90 f i NxAllVehicle.obj
 0001:0000eab0       ?degToRad@NxMath@@SAMM@Z   0040fab0 f i NxAllVehicle.obj
 0001:0000eac0       ?sin@NxMath@@SAMM@Z        0040fac0 f i NxAllVehicle.obj
 0001:0000eae0       _sinf                      0040fae0 f i NxAllVehicle.obj
 0001:0000eb00       ?cos@NxMath@@SAMM@Z        0040fb00 f i NxAllVehicle.obj
 0001:0000eb20       _cosf                      0040fb20 f i NxAllVehicle.obj
 0001:0000eb40       ??0NxVehicleDesc@@QAE@XZ   0040fb40 f i NxAllVehicle.obj
 0001:0000ebd0       ?setToDefault@NxVehicleDesc@@QAEXXZ 0040fbd0 f i NxAllVehicle.obj
 0001:0000ec30       ??0NxBoxShapeDesc@@QAE@XZ  0040fc30 f i NxAllVehicle.obj
 0001:0000eca0       ??0NxShapeDesc@@IAE@W4NxShapeType@@@Z 0040fca0 f i NxAllVehicle.obj
 0001:0000ed20       ??1NxMat34@@QAE@XZ         0040fd20 f i NxAllVehicle.obj
 0001:0000ed40       ??1NxMat33@@QAE@XZ         0040fd40 f i NxAllVehicle.obj
 0001:0000ed50       ??0NxMat34@@QAE@_N@Z       0040fd50 f i NxAllVehicle.obj
 0001:0000edc0       ?zero@NxVec3@@QAEXXZ       0040fdc0 f i NxAllVehicle.obj
 0001:0000edf0       ??0NxMat33@@QAE@XZ         0040fdf0 f i NxAllVehicle.obj
 0001:0000ee00       ?id@NxMat33@@QAEXXZ        0040fe00 f i NxAllVehicle.obj
 0001:0000ee70       ??0NxGroupsMask@@QAE@XZ    0040fe70 f i NxAllVehicle.obj
 0001:0000ee80       ??1NxGroupsMask@@QAE@XZ    0040fe80 f i NxAllVehicle.obj
 0001:0000ee90       ??_ENxShapeDesc@@UAEPAXI@Z 0040fe90 f i NxAllVehicle.obj
 0001:0000ee90       ??_GNxShapeDesc@@UAEPAXI@Z 0040fe90 f i NxAllVehicle.obj
 0001:0000eec0       ??1NxShapeDesc@@UAE@XZ     0040fec0 f i NxAllVehicle.obj
 0001:0000ef20       ?setToDefault@NxShapeDesc@@UAEXXZ 0040ff20 f i NxAllVehicle.obj
 0001:0000efc0       ?id@NxMat34@@QAEXXZ        0040ffc0 f i NxAllVehicle.obj
 0001:0000efe0       ?isValid@NxShapeDesc@@UBE_NXZ 0040ffe0 f i NxAllVehicle.obj
 0001:0000f080       ?isFinite@NxMat34@@QBE_NXZ 00410080 f i NxAllVehicle.obj
 0001:0000f0c0       ?isFinite@NxVec3@@QBE_NXZ  004100c0 f i NxAllVehicle.obj
 0001:0000f130       ?isFinite@NxMath@@SA_NM@Z  00410130 f i NxAllVehicle.obj
 0001:0000f150       ?isFinite@NxMat33@@QBE_NXZ 00410150 f i NxAllVehicle.obj
 0001:0000f250       ??_ENxBoxShapeDesc@@UAEPAXI@Z 00410250 f i NxAllVehicle.obj
 0001:0000f250       ??_GNxBoxShapeDesc@@UAEPAXI@Z 00410250 f i NxAllVehicle.obj
 0001:0000f280       ??1NxBoxShapeDesc@@UAE@XZ  00410280 f i NxAllVehicle.obj
 0001:0000f2a0       ?setToDefault@NxBoxShapeDesc@@UAEXXZ 004102a0 f i NxAllVehicle.obj
 0001:0000f2c0       ?isValid@NxBoxShapeDesc@@UBE_NXZ 004102c0 f i NxAllVehicle.obj
 0001:0000f330       ??0NxConvexMeshDesc@@QAE@XZ 00410330 f i NxAllVehicle.obj
 0001:0000f350       ?setToDefault@NxConvexMeshDesc@@QAEXXZ 00410350 f i NxAllVehicle.obj
 0001:0000f3a0       ??0NxConvexShapeDesc@@QAE@XZ 004103a0 f i NxAllVehicle.obj
 0001:0000f400       ??_GNxConvexShapeDesc@@UAEPAXI@Z 00410400 f i NxAllVehicle.obj
 0001:0000f400       ??_ENxConvexShapeDesc@@UAEPAXI@Z 00410400 f i NxAllVehicle.obj
 0001:0000f430       ??1NxConvexShapeDesc@@UAE@XZ 00410430 f i NxAllVehicle.obj
 0001:0000f450       ?setToDefault@NxConvexShapeDesc@@UAEXXZ 00410450 f i NxAllVehicle.obj
 0001:0000f480       ?isValid@NxConvexShapeDesc@@UBE_NXZ 00410480 f i NxAllVehicle.obj
 0001:0000f4a0       ?setOilAmount@NxVehicle@@QAEXH@Z 004104a0 f i NxAllVehicle.obj
 0001:0000f4c0       ?getActor@NxVehicle@@QAEPAVNxActor@@XZ 004104c0 f i NxAllVehicle.obj
 0001:0000f4e0       ??1NxVehicleDesc@@QAE@XZ   004104e0 f i NxAllVehicle.obj
 0001:0000f530       ??0NxVehicleMotorDesc@@QAE@XZ 00410530 f i NxAllVehicle.obj
 0001:0000f550       ??0NxLinearInterpolationValues@@QAE@XZ 00410550 f i NxAllVehicle.obj
 0001:0000f580       ??1NxVehicleMotorDesc@@QAE@XZ 00410580 f i NxAllVehicle.obj
 0001:0000f5a0       ??1NxLinearInterpolationValues@@QAE@XZ 004105a0 f i NxAllVehicle.obj
 0001:0000f5c0       ??1?$map@MMU?$less@M@std@@V?$allocator@U?$pair@$$CBMM@std@@@2@@std@@QAE@XZ 004105c0 f i NxAllVehicle.obj
 0001:0000f5e0       ?getOilAmount@NxVehicle@@QAEHXZ 004105e0 f i NxAllVehicle.obj
 0001:0000f600       ?setLoopNum@NxVehicle@@QAEXH@Z 00410600 f i NxAllVehicle.obj
 0001:0000f620       ?getLoopNum@NxVehicle@@QAEHXZ 00410620 f i NxAllVehicle.obj
 0001:0000f640       ??_EAllVehicleInfoNx@@QAEPAXI@Z 00410640 f i NxAllVehicle.obj
 0001:0000f6b0       ??0AllVehicleInfoNx@@QAE@XZ 004106b0 f i NxAllVehicle.obj
 0001:0000f700       ??1AllVehicleInfoNx@@QAE@XZ 00410700 f i NxAllVehicle.obj
 0001:0000f720       ??4AllVehicleInfoNx@@QAEAAU0@ABU0@@Z 00410720 f i NxAllVehicle.obj
 0001:0000f7c0       ??4NxQuat@@QAEAAV0@ABV0@@Z 004107c0 f i NxAllVehicle.obj
 0001:0000f800       ?getDriveVelocity@NxVehicle@@QAEMXZ 00410800 f i NxAllVehicle.obj
 0001:0000f840       ?setMaxVelocity@NxVehicle@@QAEXM@Z 00410840 f i NxAllVehicle.obj
 0001:0000f860       ??0?$map@MMU?$less@M@std@@V?$allocator@U?$pair@$$CBMM@std@@@2@@std@@QAE@XZ 00410860 f i NxAllVehicle.obj
 0001:0000f890       ??A?$map@MMU?$less@M@std@@V?$allocator@U?$pair@$$CBMM@std@@@2@@std@@QAEAAMABM@Z 00410890 f i NxAllVehicle.obj
 0001:0000f930       ??1?$_Tree@V?$_Tmap_traits@MMU?$less@M@std@@V?$allocator@U?$pair@$$CBMM@std@@@2@$0A@@std@@@std@@QAE@XZ 00410930 f i NxAllVehicle.obj
 0001:0000f950       ?empty@?$_Tree@V?$_Tmap_traits@MMU?$less@M@std@@V?$allocator@U?$pair@$$CBMM@std@@@2@$0A@@std@@@std@@QBE_NXZ 00410950 f i NxAllVehicle.obj
 0001:0000f970       ?size@?$_Tree@V?$_Tmap_traits@MMU?$less@M@std@@V?$allocator@U?$pair@$$CBMM@std@@@2@$0A@@std@@@std@@QBEIXZ 00410970 f i NxAllVehicle.obj
 0001:0000f990       ??8const_iterator@?$_Tree@V?$_Tmap_traits@MMU?$less@M@std@@V?$allocator@U?$pair@$$CBMM@std@@@2@$0A@@std@@@std@@QBE_NABV012@@Z 00410990 f i NxAllVehicle.obj
 0001:0000f9b0       ??0?$NxArray@PAVNxShapeDesc@@VNxAllocatorDefault@@@@QAE@XZ 004109b0 f i NxAllVehicle.obj
 0001:0000f9e0       ??1?$NxArray@PAVNxShapeDesc@@VNxAllocatorDefault@@@@QAE@XZ 004109e0 f i NxAllVehicle.obj
 0001:0000fa30       ?pushBack@?$NxArray@PAVNxShapeDesc@@VNxAllocatorDefault@@@@QAEXABQAVNxShapeDesc@@@Z 00410a30 f i NxAllVehicle.obj
 0001:0000fa80       ?size@?$NxArray@PAVNxShapeDesc@@VNxAllocatorDefault@@@@QBEIXZ 00410a80 f i NxAllVehicle.obj
 0001:0000faa0       ??0?$NxArray@PAVNxWheelDesc@@VNxAllocatorDefault@@@@QAE@XZ 00410aa0 f i NxAllVehicle.obj
 0001:0000fad0       ??1?$NxArray@PAVNxWheelDesc@@VNxAllocatorDefault@@@@QAE@XZ 00410ad0 f i NxAllVehicle.obj
 0001:0000fb20       ?pushBack@?$NxArray@PAVNxWheelDesc@@VNxAllocatorDefault@@@@QAEXABQAVNxWheelDesc@@@Z 00410b20 f i NxAllVehicle.obj
 0001:0000fb70       ?size@?$NxArray@PAVNxWheelDesc@@VNxAllocatorDefault@@@@QBEIXZ 00410b70 f i NxAllVehicle.obj
 0001:0000fb90       ?clear@?$NxArray@PAVNxWheelDesc@@VNxAllocatorDefault@@@@QAEXXZ 00410b90 f i NxAllVehicle.obj
 0001:0000fbc0       ??0?$NxArray@PAVNxVehicle@@VNxAllocatorDefault@@@@QAE@XZ 00410bc0 f i NxAllVehicle.obj
 0001:0000fbf0       ??1?$NxArray@PAVNxVehicle@@VNxAllocatorDefault@@@@QAE@XZ 00410bf0 f i NxAllVehicle.obj
 0001:0000fc40       ?pushBack@?$NxArray@PAVNxVehicle@@VNxAllocatorDefault@@@@QAEXABQAVNxVehicle@@@Z 00410c40 f i NxAllVehicle.obj
 0001:0000fc90       ?clear@?$NxArray@PAVNxVehicle@@VNxAllocatorDefault@@@@QAEXXZ 00410c90 f i NxAllVehicle.obj
 0001:0000fcc0       ??A?$NxArray@PAVNxVehicle@@VNxAllocatorDefault@@@@QAEAAPAVNxVehicle@@I@Z 00410cc0 f i NxAllVehicle.obj
 0001:0000fce0       ??0?$NxArray@HVNxAllocatorDefault@@@@QAE@XZ 00410ce0 f i NxAllVehicle.obj
 0001:0000fd10       ??1?$NxArray@HVNxAllocatorDefault@@@@QAE@XZ 00410d10 f i NxAllVehicle.obj
 0001:0000fd60       ?pushBack@?$NxArray@HVNxAllocatorDefault@@@@QAEXABH@Z 00410d60 f i NxAllVehicle.obj
 0001:0000fdb0       ?clear@?$NxArray@HVNxAllocatorDefault@@@@QAEXXZ 00410db0 f i NxAllVehicle.obj
 0001:0000fde0       ??A?$NxArray@HVNxAllocatorDefault@@@@QAEAAHI@Z 00410de0 f i NxAllVehicle.obj
 0001:0000fe00       ??0?$NxArray@VNxVec3@@VNxAllocatorDefault@@@@QAE@XZ 00410e00 f i NxAllVehicle.obj
 0001:0000fe30       ??1?$NxArray@VNxVec3@@VNxAllocatorDefault@@@@QAE@XZ 00410e30 f i NxAllVehicle.obj
 0001:0000fe80       ?size@?$NxArray@VNxVec3@@VNxAllocatorDefault@@@@QBEIXZ 00410e80 f i NxAllVehicle.obj
 0001:0000fea0       ?pushBack@?$NxArray@VNxVec3@@VNxAllocatorDefault@@@@QAEXABVNxVec3@@@Z 00410ea0 f i NxAllVehicle.obj
 0001:0000fef0       ?pushBack@?$NxArray@VNxVec3@@VNxAllocatorDefault@@@@QAEAAVNxVec3@@XZ 00410ef0 f i NxAllVehicle.obj
 0001:0000ff40       ??A?$NxArray@VNxVec3@@VNxAllocatorDefault@@@@QAEAAVNxVec3@@I@Z 00410f40 f i NxAllVehicle.obj
 0001:0000ff60       ?_Key@?$_Tree@V?$_Tmap_traits@MMU?$less@M@std@@V?$allocator@U?$pair@$$CBMM@std@@@2@$0A@@std@@@std@@KAABMPAU_Node@?$_Tree_nod@V?$_Tmap_traits@MMU?$less@M@std@@V?$allocator@U?$pair@$$CBMM@std@@@2@$0A@@std@@@2@@Z 00410f60 f i NxAllVehicle.obj
 0001:0000ff80       ??0?$_Tree@V?$_Tmap_traits@MMU?$less@M@std@@V?$allocator@U?$pair@$$CBMM@std@@@2@$0A@@std@@@std@@QAE@ABU?$less@M@1@ABV?$allocator@U?$pair@$$CBMM@std@@@1@@Z 00410f80 f i NxAllVehicle.obj
 0001:0000ffc0       ?end@?$_Tree@V?$_Tmap_traits@MMU?$less@M@std@@V?$allocator@U?$pair@$$CBMM@std@@@2@$0A@@std@@@std@@QAE?AViterator@12@XZ 00410fc0 f i NxAllVehicle.obj
 0001:0000ffe0       ?insert@?$_Tree@V?$_Tmap_traits@MMU?$less@M@std@@V?$allocator@U?$pair@$$CBMM@std@@@2@$0A@@std@@@std@@QAE?AViterator@12@V312@ABU?$pair@$$CBMM@2@@Z 00410fe0 f i NxAllVehicle.obj
 0001:000105b0       ?begin@?$_Tree@V?$_Tmap_traits@MMU?$less@M@std@@V?$allocator@U?$pair@$$CBMM@std@@@2@$0A@@std@@@std@@QAE?AViterator@12@XZ 004115b0 f i NxAllVehicle.obj
 0001:000105e0       ?lower_bound@?$_Tree@V?$_Tmap_traits@MMU?$less@M@std@@V?$allocator@U?$pair@$$CBMM@std@@@2@$0A@@std@@@std@@QAE?AViterator@12@ABM@Z 004115e0 f i NxAllVehicle.obj
 0001:00010610       ?_Lbound@?$_Tree@V?$_Tmap_traits@MMU?$less@M@std@@V?$allocator@U?$pair@$$CBMM@std@@@2@$0A@@std@@@std@@IBEPAU_Node@?$_Tree_nod@V?$_Tmap_traits@MMU?$less@M@std@@V?$allocator@U?$pair@$$CBMM@std@@@2@$0A@@std@@@2@ABM@Z 00411610 f i NxAllVehicle.obj
 0001:000106a0       ?_Lmost@?$_Tree@V?$_Tmap_traits@MMU?$less@M@std@@V?$allocator@U?$pair@$$CBMM@std@@@2@$0A@@std@@@std@@IAEAAPAU_Node@?$_Tree_nod@V?$_Tmap_traits@MMU?$less@M@std@@V?$allocator@U?$pair@$$CBMM@std@@@2@$0A@@std@@@2@XZ 004116a0 f i NxAllVehicle.obj
 0001:000106c0       ?_Rmost@?$_Tree@V?$_Tmap_traits@MMU?$less@M@std@@V?$allocator@U?$pair@$$CBMM@std@@@2@$0A@@std@@@std@@IAEAAPAU_Node@?$_Tree_nod@V?$_Tmap_traits@MMU?$less@M@std@@V?$allocator@U?$pair@$$CBMM@std@@@2@$0A@@std@@@2@XZ 004116c0 f i NxAllVehicle.obj
 0001:000106e0       ?_Tidy@?$_Tree@V?$_Tmap_traits@MMU?$less@M@std@@V?$allocator@U?$pair@$$CBMM@std@@@2@$0A@@std@@@std@@IAEXXZ 004116e0 f i NxAllVehicle.obj
 0001:00010790       ?erase@?$_Tree@V?$_Tmap_traits@MMU?$less@M@std@@V?$allocator@U?$pair@$$CBMM@std@@@2@$0A@@std@@@std@@QAE?AViterator@12@V312@0@Z 00411790 f i NxAllVehicle.obj
 0001:00010830       ?clear@?$_Tree@V?$_Tmap_traits@MMU?$less@M@std@@V?$allocator@U?$pair@$$CBMM@std@@@2@$0A@@std@@@std@@QAEXXZ 00411830 f i NxAllVehicle.obj
 0001:00010890       ??9const_iterator@?$_Tree@V?$_Tmap_traits@MMU?$less@M@std@@V?$allocator@U?$pair@$$CBMM@std@@@2@$0A@@std@@@std@@QBE_NABV012@@Z 00411890 f i NxAllVehicle.obj
 0001:000108c0       ?_Erase@?$_Tree@V?$_Tmap_traits@MMU?$less@M@std@@V?$allocator@U?$pair@$$CBMM@std@@@2@$0A@@std@@@std@@IAEXPAU_Node@?$_Tree_nod@V?$_Tmap_traits@MMU?$less@M@std@@V?$allocator@U?$pair@$$CBMM@std@@@2@$0A@@std@@@2@@Z 004118c0 f i NxAllVehicle.obj
 0001:00010940       ?_Root@?$_Tree@V?$_Tmap_traits@MMU?$less@M@std@@V?$allocator@U?$pair@$$CBMM@std@@@2@$0A@@std@@@std@@IAEAAPAU_Node@?$_Tree_nod@V?$_Tmap_traits@MMU?$less@M@std@@V?$allocator@U?$pair@$$CBMM@std@@@2@$0A@@std@@@2@XZ 00411940 f i NxAllVehicle.obj
 0001:00010960       ??0?$allocator@U?$pair@$$CBMM@std@@@std@@QAE@XZ 00411960 f i NxAllVehicle.obj
 0001:00010970       ??R?$less@M@std@@QBE_NABM0@Z 00411970 f i NxAllVehicle.obj
 0001:000109b0       ?_Mynode@const_iterator@?$_Tree@V?$_Tmap_traits@MMU?$less@M@std@@V?$allocator@U?$pair@$$CBMM@std@@@2@$0A@@std@@@std@@QBEPAU_Node@?$_Tree_nod@V?$_Tmap_traits@MMU?$less@M@std@@V?$allocator@U?$pair@$$CBMM@std@@@2@$0A@@std@@@3@XZ 004119b0 f i NxAllVehicle.obj
 0001:000109c0       ??0?$pair@$$CBMM@std@@QAE@ABM0@Z 004119c0 f i NxAllVehicle.obj
 0001:000109f0       ?reserve@?$NxArray@PAVNxShapeDesc@@VNxAllocatorDefault@@@@QAEXI@Z 004119f0 f i NxAllVehicle.obj
 0001:00010a90       ?deallocate@?$NxArray@PAVNxShapeDesc@@VNxAllocatorDefault@@@@AAEXPAPAVNxShapeDesc@@@Z 00411a90 f i NxAllVehicle.obj
 0001:00010ac0       ?free@NxAllocatorDefault@@QAEXPAX@Z 00411ac0 f i NxAllVehicle.obj
 0001:00010ae0       ?destroy@?$NxArray@PAVNxShapeDesc@@VNxAllocatorDefault@@@@AAEXPAPAVNxShapeDesc@@0@Z 00411ae0 f i NxAllVehicle.obj
 0001:00010b10       ?reserve@?$NxArray@PAVNxWheelDesc@@VNxAllocatorDefault@@@@QAEXI@Z 00411b10 f i NxAllVehicle.obj
 0001:00010bb0       ?begin@?$NxArray@PAVNxWheelDesc@@VNxAllocatorDefault@@@@QAEPAPAVNxWheelDesc@@XZ 00411bb0 f i NxAllVehicle.obj
 0001:00010bc0       ?end@?$NxArray@PAVNxWheelDesc@@VNxAllocatorDefault@@@@QAEPAPAVNxWheelDesc@@XZ 00411bc0 f i NxAllVehicle.obj
 0001:00010be0       ?deallocate@?$NxArray@PAVNxWheelDesc@@VNxAllocatorDefault@@@@AAEXPAPAVNxWheelDesc@@@Z 00411be0 f i NxAllVehicle.obj
 0001:00010c10       ?destroy@?$NxArray@PAVNxWheelDesc@@VNxAllocatorDefault@@@@AAEXPAPAVNxWheelDesc@@0@Z 00411c10 f i NxAllVehicle.obj
 0001:00010c40       ?reserve@?$NxArray@PAVNxVehicle@@VNxAllocatorDefault@@@@QAEXI@Z 00411c40 f i NxAllVehicle.obj
 0001:00010ce0       ?begin@?$NxArray@PAVNxVehicle@@VNxAllocatorDefault@@@@QAEPAPAVNxVehicle@@XZ 00411ce0 f i NxAllVehicle.obj
 0001:00010cf0       ?end@?$NxArray@PAVNxVehicle@@VNxAllocatorDefault@@@@QAEPAPAVNxVehicle@@XZ 00411cf0 f i NxAllVehicle.obj
 0001:00010d10       ?deallocate@?$NxArray@PAVNxVehicle@@VNxAllocatorDefault@@@@AAEXPAPAVNxVehicle@@@Z 00411d10 f i NxAllVehicle.obj
 0001:00010d40       ?destroy@?$NxArray@PAVNxVehicle@@VNxAllocatorDefault@@@@AAEXPAPAVNxVehicle@@0@Z 00411d40 f i NxAllVehicle.obj
 0001:00010d70       ?reserve@?$NxArray@HVNxAllocatorDefault@@@@QAEXI@Z 00411d70 f i NxAllVehicle.obj
 0001:00010e10       ?size@?$NxArray@HVNxAllocatorDefault@@@@QBEIXZ 00411e10 f i NxAllVehicle.obj
 0001:00010e30       ?begin@?$NxArray@HVNxAllocatorDefault@@@@QAEPAHXZ 00411e30 f i NxAllVehicle.obj
 0001:00010e40       ?end@?$NxArray@HVNxAllocatorDefault@@@@QAEPAHXZ 00411e40 f i NxAllVehicle.obj
 0001:00010e60       ?deallocate@?$NxArray@HVNxAllocatorDefault@@@@AAEXPAH@Z 00411e60 f i NxAllVehicle.obj
 0001:00010e90       ?destroy@?$NxArray@HVNxAllocatorDefault@@@@AAEXPAH0@Z 00411e90 f i NxAllVehicle.obj
 0001:00010ec0       ?reserve@?$NxArray@VNxVec3@@VNxAllocatorDefault@@@@QAEXI@Z 00411ec0 f i NxAllVehicle.obj
 0001:00010f60       ?deallocate@?$NxArray@VNxVec3@@VNxAllocatorDefault@@@@AAEXPAVNxVec3@@@Z 00411f60 f i NxAllVehicle.obj
 0001:00010f90       ?destroy@?$NxArray@VNxVec3@@VNxAllocatorDefault@@@@AAEXPAVNxVec3@@0@Z 00411f90 f i NxAllVehicle.obj
 0001:00010fc0       ??Diterator@?$_Tree@V?$_Tmap_traits@MMU?$less@M@std@@V?$allocator@U?$pair@$$CBMM@std@@@2@$0A@@std@@@std@@QBEAAU?$pair@$$CBMM@2@XZ 00411fc0 f i NxAllVehicle.obj
 0001:00010fe0       ??Dconst_iterator@?$_Tree@V?$_Tmap_traits@MMU?$less@M@std@@V?$allocator@U?$pair@$$CBMM@std@@@2@$0A@@std@@@std@@QBEABU?$pair@$$CBMM@2@XZ 00411fe0 f i NxAllVehicle.obj
 0001:00011000       ?_Isnil@?$_Tree@V?$_Tmap_traits@MMU?$less@M@std@@V?$allocator@U?$pair@$$CBMM@std@@@2@$0A@@std@@@std@@KAAADPAU_Node@?$_Tree_nod@V?$_Tmap_traits@MMU?$less@M@std@@V?$allocator@U?$pair@$$CBMM@std@@@2@$0A@@std@@@2@@Z 00412000 f i NxAllVehicle.obj
 0001:00011010       ?_Left@?$_Tree@V?$_Tmap_traits@MMU?$less@M@std@@V?$allocator@U?$pair@$$CBMM@std@@@2@$0A@@std@@@std@@KAAAPAU_Node@?$_Tree_nod@V?$_Tmap_traits@MMU?$less@M@std@@V?$allocator@U?$pair@$$CBMM@std@@@2@$0A@@std@@@2@PAU342@@Z 00412010 f i NxAllVehicle.obj
 0001:00011020       ?_Parent@?$_Tree@V?$_Tmap_traits@MMU?$less@M@std@@V?$allocator@U?$pair@$$CBMM@std@@@2@$0A@@std@@@std@@KAAAPAU_Node@?$_Tree_nod@V?$_Tmap_traits@MMU?$less@M@std@@V?$allocator@U?$pair@$$CBMM@std@@@2@$0A@@std@@@2@PAU342@@Z 00412020 f i NxAllVehicle.obj
 0001:00011030       ?_Right@?$_Tree@V?$_Tmap_traits@MMU?$less@M@std@@V?$allocator@U?$pair@$$CBMM@std@@@2@$0A@@std@@@std@@KAAAPAU_Node@?$_Tree_nod@V?$_Tmap_traits@MMU?$less@M@std@@V?$allocator@U?$pair@$$CBMM@std@@@2@$0A@@std@@@2@PAU342@@Z 00412030 f i NxAllVehicle.obj
 0001:00011040       ?_Myval@?$_Tree@V?$_Tmap_traits@MMU?$less@M@std@@V?$allocator@U?$pair@$$CBMM@std@@@2@$0A@@std@@@std@@KAAAU?$pair@$$CBMM@2@PAU_Node@?$_Tree_nod@V?$_Tmap_traits@MMU?$less@M@std@@V?$allocator@U?$pair@$$CBMM@std@@@2@$0A@@std@@@2@@Z 00412040 f i NxAllVehicle.obj
 0001:00011050       ?insert@?$_Tree@V?$_Tmap_traits@MMU?$less@M@std@@V?$allocator@U?$pair@$$CBMM@std@@@2@$0A@@std@@@std@@QAE?AU?$pair@Viterator@?$_Tree@V?$_Tmap_traits@MMU?$less@M@std@@V?$allocator@U?$pair@$$CBMM@std@@@2@$0A@@std@@@std@@_N@2@ABU?$pair@$$CBMM@2@@Z 00412050 f i NxAllVehicle.obj
 0001:00011200       ?erase@?$_Tree@V?$_Tmap_traits@MMU?$less@M@std@@V?$allocator@U?$pair@$$CBMM@std@@@2@$0A@@std@@@std@@QAE?AViterator@12@V312@@Z 00412200 f i NxAllVehicle.obj
 0001:000119b0       ??0out_of_range@std@@QAE@ABV?$basic_string@DU?$char_traits@D@std@@V?$allocator@D@2@@1@@Z 004129b0 f i NxAllVehicle.obj
 0001:000119e0       ??0logic_error@std@@QAE@ABV?$basic_string@DU?$char_traits@D@std@@V?$allocator@D@2@@1@@Z 004129e0 f i NxAllVehicle.obj
 0001:00011a40       ?what@logic_error@std@@UBEPBDXZ 00412a40 f i NxAllVehicle.obj
 0001:00011a60       ??_Elogic_error@std@@UAEPAXI@Z 00412a60 f i NxAllVehicle.obj
 0001:00011a60       ??_Glogic_error@std@@UAEPAXI@Z 00412a60 f i NxAllVehicle.obj
 0001:00011a90       ??1logic_error@std@@UAE@XZ 00412a90 f i NxAllVehicle.obj
 0001:00011af0       ??1out_of_range@std@@UAE@XZ 00412af0 f i NxAllVehicle.obj
 0001:00011b10       ??_Eout_of_range@std@@UAEPAXI@Z 00412b10 f i NxAllVehicle.obj
 0001:00011b10       ??_Gout_of_range@std@@UAEPAXI@Z 00412b10 f i NxAllVehicle.obj
 0001:00011b40       ??0logic_error@std@@QAE@ABV01@@Z 00412b40 f i NxAllVehicle.obj
 0001:00011bb0       ?_Init@?$_Tree@V?$_Tmap_traits@MMU?$less@M@std@@V?$allocator@U?$pair@$$CBMM@std@@@2@$0A@@std@@@std@@IAEXXZ 00412bb0 f i NxAllVehicle.obj
 0001:00011c20       ?_Insert@?$_Tree@V?$_Tmap_traits@MMU?$less@M@std@@V?$allocator@U?$pair@$$CBMM@std@@@2@$0A@@std@@@std@@IAE?AViterator@12@_NPAU_Node@?$_Tree_nod@V?$_Tmap_traits@MMU?$less@M@std@@V?$allocator@U?$pair@$$CBMM@std@@@2@$0A@@std@@@2@ABU?$pair@$$CBMM@2@@Z 00412c20 f i NxAllVehicle.obj
 0001:00012080       ??0length_error@std@@QAE@ABV?$basic_string@DU?$char_traits@D@std@@V?$allocator@D@2@@1@@Z 00413080 f i NxAllVehicle.obj
 0001:000120b0       ??1length_error@std@@UAE@XZ 004130b0 f i NxAllVehicle.obj
 0001:000120d0       ??_Glength_error@std@@UAEPAXI@Z 004130d0 f i NxAllVehicle.obj
 0001:000120d0       ??_Elength_error@std@@UAEPAXI@Z 004130d0 f i NxAllVehicle.obj
 0001:00012100       ??0length_error@std@@QAE@ABV01@@Z 00413100 f i NxAllVehicle.obj
 0001:00012130       ?_Max@?$_Tree@V?$_Tmap_traits@MMU?$less@M@std@@V?$allocator@U?$pair@$$CBMM@std@@@2@$0A@@std@@@std@@KAPAU_Node@?$_Tree_nod@V?$_Tmap_traits@MMU?$less@M@std@@V?$allocator@U?$pair@$$CBMM@std@@@2@$0A@@std@@@2@PAU342@@Z 00413130 f i NxAllVehicle.obj
 0001:00012170       ?_Min@?$_Tree@V?$_Tmap_traits@MMU?$less@M@std@@V?$allocator@U?$pair@$$CBMM@std@@@2@$0A@@std@@@std@@KAPAU_Node@?$_Tree_nod@V?$_Tmap_traits@MMU?$less@M@std@@V?$allocator@U?$pair@$$CBMM@std@@@2@$0A@@std@@@2@PAU342@@Z 00413170 f i NxAllVehicle.obj
 0001:000121b0       ?_Root@?$_Tree@V?$_Tmap_traits@MMU?$less@M@std@@V?$allocator@U?$pair@$$CBMM@std@@@2@$0A@@std@@@std@@IBEAAPAU_Node@?$_Tree_nod@V?$_Tmap_traits@MMU?$less@M@std@@V?$allocator@U?$pair@$$CBMM@std@@@2@$0A@@std@@@2@XZ 004131b0 f i NxAllVehicle.obj
 0001:000121d0       ??0?$_Tree_val@V?$_Tmap_traits@MMU?$less@M@std@@V?$allocator@U?$pair@$$CBMM@std@@@2@$0A@@std@@@std@@IAE@ABU?$less@M@1@V?$allocator@U?$pair@$$CBMM@std@@@1@@Z 004131d0 f i NxAllVehicle.obj
 0001:00012210       ?_Kfn@?$_Tmap_traits@MMU?$less@M@std@@V?$allocator@U?$pair@$$CBMM@std@@@2@$0A@@std@@SAABMABU?$pair@$$CBMM@2@@Z 00413210 f i NxAllVehicle.obj
 0001:00012220       ??0?$allocator@U?$pair@$$CBMM@std@@@std@@QAE@ABV01@@Z 00413220 f i NxAllVehicle.obj
 0001:00012230       ?deallocate@?$allocator@U_Node@?$_Tree_nod@V?$_Tmap_traits@MMU?$less@M@std@@V?$allocator@U?$pair@$$CBMM@std@@@2@$0A@@std@@@std@@@std@@QAEXPAU_Node@?$_Tree_nod@V?$_Tmap_traits@MMU?$less@M@std@@V?$allocator@U?$pair@$$CBMM@std@@@2@$0A@@std@@@2@I@Z 00413230 f i NxAllVehicle.obj
 0001:00012250       ?destroy@?$allocator@U_Node@?$_Tree_nod@V?$_Tmap_traits@MMU?$less@M@std@@V?$allocator@U?$pair@$$CBMM@std@@@2@$0A@@std@@@std@@@std@@QAEXPAU_Node@?$_Tree_nod@V?$_Tmap_traits@MMU?$less@M@std@@V?$allocator@U?$pair@$$CBMM@std@@@2@$0A@@std@@@2@@Z 00413250 f i NxAllVehicle.obj
 0001:00012270       ?destroy@?$allocator@PAU_Node@?$_Tree_nod@V?$_Tmap_traits@MMU?$less@M@std@@V?$allocator@U?$pair@$$CBMM@std@@@2@$0A@@std@@@std@@@std@@QAEXPAPAU_Node@?$_Tree_nod@V?$_Tmap_traits@MMU?$less@M@std@@V?$allocator@U?$pair@$$CBMM@std@@@2@$0A@@std@@@2@@Z 00413270 f i NxAllVehicle.obj
 0001:00012290       ?capacity@?$NxArray@PAVNxShapeDesc@@VNxAllocatorDefault@@@@QBEIXZ 00413290 f i NxAllVehicle.obj
 0001:000122d0       ?copy@?$NxArray@PAVNxShapeDesc@@VNxAllocatorDefault@@@@AAEPAPAVNxShapeDesc@@PBQAV2@0PAPAV2@@Z 004132d0 f i NxAllVehicle.obj
 0001:00012310       ?allocate@?$NxArray@PAVNxShapeDesc@@VNxAllocatorDefault@@@@AAEPAPAVNxShapeDesc@@I@Z 00413310 f i NxAllVehicle.obj
 0001:00012350       ?mallocDEBUG@NxAllocatorDefault@@QAEPAXIPBDH0W4NxMemoryType@@@Z 00413350 f i NxAllVehicle.obj
 0001:00012370       ?capacity@?$NxArray@PAVNxWheelDesc@@VNxAllocatorDefault@@@@QBEIXZ 00413370 f i NxAllVehicle.obj
 0001:000123b0       ?copy@?$NxArray@PAVNxWheelDesc@@VNxAllocatorDefault@@@@AAEPAPAVNxWheelDesc@@PBQAV2@0PAPAV2@@Z 004133b0 f i NxAllVehicle.obj
 0001:000123f0       ?allocate@?$NxArray@PAVNxWheelDesc@@VNxAllocatorDefault@@@@AAEPAPAVNxWheelDesc@@I@Z 004133f0 f i NxAllVehicle.obj
 0001:00012430       ?capacity@?$NxArray@PAVNxVehicle@@VNxAllocatorDefault@@@@QBEIXZ 00413430 f i NxAllVehicle.obj
 0001:00012470       ?copy@?$NxArray@PAVNxVehicle@@VNxAllocatorDefault@@@@AAEPAPAVNxVehicle@@PBQAV2@0PAPAV2@@Z 00413470 f i NxAllVehicle.obj
 0001:000124b0       ?allocate@?$NxArray@PAVNxVehicle@@VNxAllocatorDefault@@@@AAEPAPAVNxVehicle@@I@Z 004134b0 f i NxAllVehicle.obj
 0001:000124f0       ?capacity@?$NxArray@HVNxAllocatorDefault@@@@QBEIXZ 004134f0 f i NxAllVehicle.obj
 0001:00012530       ?copy@?$NxArray@HVNxAllocatorDefault@@@@AAEPAHPBH0PAH@Z 00413530 f i NxAllVehicle.obj
 0001:00012570       ?allocate@?$NxArray@HVNxAllocatorDefault@@@@AAEPAHI@Z 00413570 f i NxAllVehicle.obj
 0001:000125b0       ?capacity@?$NxArray@VNxVec3@@VNxAllocatorDefault@@@@QBEIXZ 004135b0 f i NxAllVehicle.obj
 0001:000125f0       ?copy@?$NxArray@VNxVec3@@VNxAllocatorDefault@@@@AAEPAVNxVec3@@PBV2@0PAV2@@Z 004135f0 f i NxAllVehicle.obj
 0001:00012630       ?allocate@?$NxArray@VNxVec3@@VNxAllocatorDefault@@@@AAEPAVNxVec3@@I@Z 00413630 f i NxAllVehicle.obj
 0001:00012670       ??0iterator@?$_Tree@V?$_Tmap_traits@MMU?$less@M@std@@V?$allocator@U?$pair@$$CBMM@std@@@2@$0A@@std@@@std@@QAE@XZ 00413670 f i NxAllVehicle.obj
 0001:00012690       ??0iterator@?$_Tree@V?$_Tmap_traits@MMU?$less@M@std@@V?$allocator@U?$pair@$$CBMM@std@@@2@$0A@@std@@@std@@QAE@PAU_Node@?$_Tree_nod@V?$_Tmap_traits@MMU?$less@M@std@@V?$allocator@U?$pair@$$CBMM@std@@@2@$0A@@std@@@2@@Z 00413690 f i NxAllVehicle.obj
 0001:000126b0       ??0const_iterator@?$_Tree@V?$_Tmap_traits@MMU?$less@M@std@@V?$allocator@U?$pair@$$CBMM@std@@@2@$0A@@std@@@std@@QAE@PAU_Node@?$_Tree_nod@V?$_Tmap_traits@MMU?$less@M@std@@V?$allocator@U?$pair@$$CBMM@std@@@2@$0A@@std@@@2@@Z 004136b0 f i NxAllVehicle.obj
 0001:000126d0       ??Eiterator@?$_Tree@V?$_Tmap_traits@MMU?$less@M@std@@V?$allocator@U?$pair@$$CBMM@std@@@2@$0A@@std@@@std@@QAEAAV012@XZ 004136d0 f i NxAllVehicle.obj
 0001:000126f0       ??Econst_iterator@?$_Tree@V?$_Tmap_traits@MMU?$less@M@std@@V?$allocator@U?$pair@$$CBMM@std@@@2@$0A@@std@@@std@@QAEAAV012@XZ 004136f0 f i NxAllVehicle.obj
 0001:00012710       ?_Inc@const_iterator@?$_Tree@V?$_Tmap_traits@MMU?$less@M@std@@V?$allocator@U?$pair@$$CBMM@std@@@2@$0A@@std@@@std@@QAEXXZ 00413710 f i NxAllVehicle.obj
 0001:000127d0       ??Eiterator@?$_Tree@V?$_Tmap_traits@MMU?$less@M@std@@V?$allocator@U?$pair@$$CBMM@std@@@2@$0A@@std@@@std@@QAE?AV012@H@Z 004137d0 f i NxAllVehicle.obj
 0001:00012800       ??Fiterator@?$_Tree@V?$_Tmap_traits@MMU?$less@M@std@@V?$allocator@U?$pair@$$CBMM@std@@@2@$0A@@std@@@std@@QAEAAV012@XZ 00413800 f i NxAllVehicle.obj
 0001:00012820       ??Fconst_iterator@?$_Tree@V?$_Tmap_traits@MMU?$less@M@std@@V?$allocator@U?$pair@$$CBMM@std@@@2@$0A@@std@@@std@@QAEAAV012@XZ 00413820 f i NxAllVehicle.obj
 0001:00012840       ?_Dec@const_iterator@?$_Tree@V?$_Tmap_traits@MMU?$less@M@std@@V?$allocator@U?$pair@$$CBMM@std@@@2@$0A@@std@@@std@@QAEXXZ 00413840 f i NxAllVehicle.obj
 0001:00012920       ??0out_of_range@std@@QAE@ABV01@@Z 00413920 f i NxAllVehicle.obj
 0001:00012950       ?_Color@?$_Tree@V?$_Tmap_traits@MMU?$less@M@std@@V?$allocator@U?$pair@$$CBMM@std@@@2@$0A@@std@@@std@@KAAADPAU_Node@?$_Tree_nod@V?$_Tmap_traits@MMU?$less@M@std@@V?$allocator@U?$pair@$$CBMM@std@@@2@$0A@@std@@@2@@Z 00413950 f i NxAllVehicle.obj
 0001:00012960       ?max_size@?$_Tree@V?$_Tmap_traits@MMU?$less@M@std@@V?$allocator@U?$pair@$$CBMM@std@@@2@$0A@@std@@@std@@QBEIXZ 00413960 f i NxAllVehicle.obj
 0001:00012980       ?_Lrotate@?$_Tree@V?$_Tmap_traits@MMU?$less@M@std@@V?$allocator@U?$pair@$$CBMM@std@@@2@$0A@@std@@@std@@IAEXPAU_Node@?$_Tree_nod@V?$_Tmap_traits@MMU?$less@M@std@@V?$allocator@U?$pair@$$CBMM@std@@@2@$0A@@std@@@2@@Z 00413980 f i NxAllVehicle.obj
 0001:00012ab0       ?_Rrotate@?$_Tree@V?$_Tmap_traits@MMU?$less@M@std@@V?$allocator@U?$pair@$$CBMM@std@@@2@$0A@@std@@@std@@IAEXPAU_Node@?$_Tree_nod@V?$_Tmap_traits@MMU?$less@M@std@@V?$allocator@U?$pair@$$CBMM@std@@@2@$0A@@std@@@2@@Z 00413ab0 f i NxAllVehicle.obj
 0001:00012be0       ?_Buynode@?$_Tree@V?$_Tmap_traits@MMU?$less@M@std@@V?$allocator@U?$pair@$$CBMM@std@@@2@$0A@@std@@@std@@IAEPAU_Node@?$_Tree_nod@V?$_Tmap_traits@MMU?$less@M@std@@V?$allocator@U?$pair@$$CBMM@std@@@2@$0A@@std@@@2@XZ 00413be0 f i NxAllVehicle.obj
 0001:00012d50       ?_Buynode@?$_Tree@V?$_Tmap_traits@MMU?$less@M@std@@V?$allocator@U?$pair@$$CBMM@std@@@2@$0A@@std@@@std@@IAEPAU_Node@?$_Tree_nod@V?$_Tmap_traits@MMU?$less@M@std@@V?$allocator@U?$pair@$$CBMM@std@@@2@$0A@@std@@@2@PAU342@00ABU?$pair@$$CBMM@2@D@Z 00413d50 f i NxAllVehicle.obj
 0001:00012e20       ??2@YAPAXIPAX@Z            00413e20 f i NxAllVehicle.obj
 0001:00012e30       ??3@YAXPAX0@Z              00413e30 f i NxAllVehicle.obj
 0001:00012e40       ??0?$_Tree_ptr@V?$_Tmap_traits@MMU?$less@M@std@@V?$allocator@U?$pair@$$CBMM@std@@@2@$0A@@std@@@std@@IAE@ABU?$less@M@1@V?$allocator@U?$pair@$$CBMM@std@@@1@@Z 00413e40 f i NxAllVehicle.obj
 0001:00012e80       ??0const_iterator@?$_Tree@V?$_Tmap_traits@MMU?$less@M@std@@V?$allocator@U?$pair@$$CBMM@std@@@2@$0A@@std@@@std@@QAE@XZ 00413e80 f i NxAllVehicle.obj
 0001:00012ea0       ??0?$pair@Viterator@?$_Tree@V?$_Tmap_traits@MMU?$less@M@std@@V?$allocator@U?$pair@$$CBMM@std@@@2@$0A@@std@@@std@@_N@std@@QAE@ABViterator@?$_Tree@V?$_Tmap_traits@MMU?$less@M@std@@V?$allocator@U?$pair@$$CBMM@std@@@2@$0A@@std@@@1@AB_N@Z 00413ea0 f i NxAllVehicle.obj
 0001:00012ed0       ??0?$_Tree_nod@V?$_Tmap_traits@MMU?$less@M@std@@V?$allocator@U?$pair@$$CBMM@std@@@2@$0A@@std@@@std@@IAE@ABU?$less@M@1@V?$allocator@U?$pair@$$CBMM@std@@@1@@Z 00413ed0 f i NxAllVehicle.obj
 0001:00012f00       ?max_size@?$allocator@U?$pair@$$CBMM@std@@@std@@QBEIXZ 00413f00 f i NxAllVehicle.obj
 0001:00012f30       ?allocate@?$allocator@U_Node@?$_Tree_nod@V?$_Tmap_traits@MMU?$less@M@std@@V?$allocator@U?$pair@$$CBMM@std@@@2@$0A@@std@@@std@@@std@@QAEPAU_Node@?$_Tree_nod@V?$_Tmap_traits@MMU?$less@M@std@@V?$allocator@U?$pair@$$CBMM@std@@@2@$0A@@std@@@2@I@Z 00413f30 f i NxAllVehicle.obj
 0001:00012f50       ?construct@?$allocator@PAU_Node@?$_Tree_nod@V?$_Tmap_traits@MMU?$less@M@std@@V?$allocator@U?$pair@$$CBMM@std@@@2@$0A@@std@@@std@@@std@@QAEXPAPAU_Node@?$_Tree_nod@V?$_Tmap_traits@MMU?$less@M@std@@V?$allocator@U?$pair@$$CBMM@std@@@2@$0A@@std@@@2@ABQAU342@@Z 00413f50 f i NxAllVehicle.obj
 0001:00012f70       ??0_Node@?$_Tree_nod@V?$_Tmap_traits@MMU?$less@M@std@@V?$allocator@U?$pair@$$CBMM@std@@@2@$0A@@std@@@std@@QAE@PAU012@00ABU?$pair@$$CBMM@2@D@Z 00413f70 f i NxAllVehicle.obj
 0001:00012fc0       ??0?$_Tmap_traits@MMU?$less@M@std@@V?$allocator@U?$pair@$$CBMM@std@@@2@$0A@@std@@QAE@U?$less@M@1@@Z 00413fc0 f i NxAllVehicle.obj
 0001:00012fd0       ??$?8DU?$char_traits@D@std@@V?$allocator@D@1@@std@@YA_NABV?$basic_string@DU?$char_traits@D@std@@V?$allocator@D@2@@0@0@Z 00413fd0 f i NxAllVehicle.obj
 0001:00012ff0       ??$swap@D@std@@YAXAAD0@Z   00413ff0 f i NxAllVehicle.obj
 0001:00013020       ??$_Destroy@U_Node@?$_Tree_nod@V?$_Tmap_traits@MMU?$less@M@std@@V?$allocator@U?$pair@$$CBMM@std@@@2@$0A@@std@@@std@@@std@@YAXPAU_Node@?$_Tree_nod@V?$_Tmap_traits@MMU?$less@M@std@@V?$allocator@U?$pair@$$CBMM@std@@@2@$0A@@std@@@0@@Z 00414020 f i NxAllVehicle.obj
 0001:00013030       ??$_Destroy@PAU_Node@?$_Tree_nod@V?$_Tmap_traits@MMU?$less@M@std@@V?$allocator@U?$pair@$$CBMM@std@@@2@$0A@@std@@@std@@@std@@YAXPAPAU_Node@?$_Tree_nod@V?$_Tmap_traits@MMU?$less@M@std@@V?$allocator@U?$pair@$$CBMM@std@@@2@$0A@@std@@@0@@Z 00414030 f i NxAllVehicle.obj
 0001:00013040       ??$?0U?$pair@$$CBMM@std@@@?$allocator@PAU_Node@?$_Tree_nod@V?$_Tmap_traits@MMU?$less@M@std@@V?$allocator@U?$pair@$$CBMM@std@@@2@$0A@@std@@@std@@@std@@QAE@ABV?$allocator@U?$pair@$$CBMM@std@@@1@@Z 00414040 f i NxAllVehicle.obj
 0001:00013050       ??$?0U?$pair@$$CBMM@std@@@?$allocator@U_Node@?$_Tree_nod@V?$_Tmap_traits@MMU?$less@M@std@@V?$allocator@U?$pair@$$CBMM@std@@@2@$0A@@std@@@std@@@std@@QAE@ABV?$allocator@U?$pair@$$CBMM@std@@@1@@Z 00414050 f i NxAllVehicle.obj
 0001:00013060       ??$_Allocate@U_Node@?$_Tree_nod@V?$_Tmap_traits@MMU?$less@M@std@@V?$allocator@U?$pair@$$CBMM@std@@@2@$0A@@std@@@std@@@std@@YAPAU_Node@?$_Tree_nod@V?$_Tmap_traits@MMU?$less@M@std@@V?$allocator@U?$pair@$$CBMM@std@@@2@$0A@@std@@@0@IPAU120@@Z 00414060 f i NxAllVehicle.obj
 0001:00013080       ??$_Construct@PAU_Node@?$_Tree_nod@V?$_Tmap_traits@MMU?$less@M@std@@V?$allocator@U?$pair@$$CBMM@std@@@2@$0A@@std@@@std@@PAU123@@std@@YAXPAPAU_Node@?$_Tree_nod@V?$_Tmap_traits@MMU?$less@M@std@@V?$allocator@U?$pair@$$CBMM@std@@@2@$0A@@std@@@0@ABQAU120@@Z 00414080 f i NxAllVehicle.obj
 0001:000130c0       ?compare@?$basic_string@DU?$char_traits@D@std@@V?$allocator@D@2@@std@@QBEHABV12@@Z 004140c0 f i NxAllVehicle.obj
 0001:000130f0       ?compare@?$basic_string@DU?$char_traits@D@std@@V?$allocator@D@2@@std@@QBEHIIPBDI@Z 004140f0 f i NxAllVehicle.obj
 0001:000131b0       ?compare@?$char_traits@D@std@@SAHPBD0I@Z 004141b0 f i NxAllVehicle.obj
 0001:000131f0       ??0NxTerrain@@QAE@XZ       004141f0 f   NxTerrain.obj
 0001:00013250       ??1NxTerrain@@UAE@XZ       00414250 f   NxTerrain.obj
 0001:00013270       ?initNx@NxTerrain@@QAEXXZ  00414270 f   NxTerrain.obj
 0001:000134b0       ?chooseTrigMaterial@NxTerrain@@QAEMIM@Z 004144b0 f   NxTerrain.obj
 0001:000135f0       ?createNxTerrain@NxTerrain@@QAEXXZ 004145f0 f   NxTerrain.obj
 0001:00013c60       ?simulate@NxTerrain@@QAEXMHH_N@Z 00414c60 f   NxTerrain.obj
 0001:00013d20       ?getOilAmount@NxTerrain@@QAEHXZ 00414d20 f   NxTerrain.obj
 0001:00013d40       ?setOilAmount@NxTerrain@@QAEXH@Z 00414d40 f   NxTerrain.obj
 0001:00013d60       ?getLoopNum@NxTerrain@@QAEHXZ 00414d60 f   NxTerrain.obj
 0001:00013d80       ?setLoopNum@NxTerrain@@QAEXH@Z 00414d80 f   NxTerrain.obj
 0001:00013da0       ?control@NxTerrain@@QAEXHH_N@Z 00414da0 f   NxTerrain.obj
 0001:00013dd0       ?standUp@NxTerrain@@QAEXXZ 00414dd0 f   NxTerrain.obj
 0001:00013df0       ?setToBeginning@NxTerrain@@QAEXABVNxVec3@@@Z 00414df0 f   NxTerrain.obj
 0001:00013e10       ?addUser@NxTerrain@@QAEXABVNxVec3@@VVehicleInfo@@V?$basic_string@DU?$char_traits@D@std@@V?$allocator@D@2@@std@@@Z 00414e10 f   NxTerrain.obj
 0001:00013ea0       ?getAllVehicleInfo@NxTerrain@@QAEPAUAllVehicleInfoNx@@XZ 00414ea0 f   NxTerrain.obj
 0001:00013ec0       ?getVelocity@NxTerrain@@QAEMXZ 00414ec0 f   NxTerrain.obj
 0001:00013ee0       ?userControl@NxTerrain@@QAEHABV?$basic_string@DU?$char_traits@D@std@@V?$allocator@D@2@@std@@@Z 00414ee0 f   NxTerrain.obj
 0001:00013f00       ?useSlipProp@NxTerrain@@QAEXXZ 00414f00 f   NxTerrain.obj
 0001:00013f20       ?setMaxVelocity@NxTerrain@@QAEXM@Z 00414f20 f   NxTerrain.obj
 0001:00013f40       ?cancelSlipProp@NxTerrain@@QAEXXZ 00414f40 f   NxTerrain.obj
 0001:00013f60       ?useFlashProp@NxTerrain@@QAEXXZ 00414f60 f   NxTerrain.obj
 0001:00013f70       ?cancelFlashProp@NxTerrain@@QAEXXZ 00414f70 f   NxTerrain.obj
 0001:00013f80       ??_GNxTerrain@@UAEPAXI@Z   00414f80 f i NxTerrain.obj
 0001:00013f80       ??_ENxTerrain@@UAEPAXI@Z   00414f80 f i NxTerrain.obj
 0001:00013fb0       ??0NxPhysicsSDKDesc@@QAE@XZ 00414fb0 f i NxTerrain.obj
 0001:00013fd0       ?setToDefault@NxPhysicsSDKDesc@@QAEXXZ 00414fd0 f i NxTerrain.obj
 0001:00014000       ??0NxSceneDesc@@QAE@XZ     00415000 f i NxTerrain.obj
 0001:00014030       ?setToDefault@NxSceneDesc@@QAEXXZ 00415030 f i NxTerrain.obj
 0001:000140e0       ?normalize@NxVec3@@QAEMXZ  004150e0 f i NxTerrain.obj
 0001:00014150       ?magnitude@NxVec3@@QBEMXZ  00415150 f i NxTerrain.obj
 0001:00014190       ??GNxVec3@@QBE?AV0@ABV0@@Z 00415190 f i NxTerrain.obj
 0001:000141e0       ?cross@NxVec3@@QBE?AV1@ABV1@@Z 004151e0 f i NxTerrain.obj
 0001:00014220       ??0NxVec3@@QAE@ABV0@@Z     00415220 f i NxTerrain.obj
 0001:00014260       ?cross@NxVec3@@QAEXABV1@0@Z 00415260 f i NxTerrain.obj
 0001:000142e0       ??XNxVec3@@QAEAAV0@M@Z     004152e0 f i NxTerrain.obj
 0001:00014320       ??0NxActorDesc@@QAE@XZ     00415320 f i NxTerrain.obj
 0001:000143a0       ??0NxActorDescBase@@QAE@XZ 004153a0 f i NxTerrain.obj
 0001:000143c0       ??1NxActorDescBase@@QAE@XZ 004153c0 f i NxTerrain.obj
 0001:000143e0       ?setToDefault@NxActorDesc@@QAEXXZ 004153e0 f i NxTerrain.obj
 0001:00014400       ?setToDefault@NxActorDescBase@@QAEXXZ 00415400 f i NxTerrain.obj
 0001:00014450       ??0NxMaterialDesc@@QAE@XZ  00415450 f i NxTerrain.obj
 0001:00014480       ?setToDefault@NxMaterialDesc@@QAEXXZ 00415480 f i NxTerrain.obj
 0001:00014500       ??0NxTriangleMeshDesc@@QAE@XZ 00415500 f i NxTerrain.obj
 0001:00014520       ??0NxSimpleTriangleMesh@@QAE@XZ 00415520 f i NxTerrain.obj
 0001:00014540       ?setToDefault@NxSimpleTriangleMesh@@QAEXXZ 00415540 f i NxTerrain.obj
 0001:00014590       ?setToDefault@NxTriangleMeshDesc@@QAEXXZ 00415590 f i NxTerrain.obj
 0001:000145e0       ??0NxTriangleMeshShapeDesc@@QAE@XZ 004155e0 f i NxTerrain.obj
 0001:00014640       ??_ENxTriangleMeshShapeDesc@@UAEPAXI@Z 00415640 f i NxTerrain.obj
 0001:00014640       ??_GNxTriangleMeshShapeDesc@@UAEPAXI@Z 00415640 f i NxTerrain.obj
 0001:00014670       ??1NxTriangleMeshShapeDesc@@UAE@XZ 00415670 f i NxTerrain.obj
 0001:00014690       ?setToDefault@NxTriangleMeshShapeDesc@@UAEXXZ 00415690 f i NxTerrain.obj
 0001:000146c0       ?isValid@NxTriangleMeshShapeDesc@@UBE_NXZ 004156c0 f i NxTerrain.obj
 0001:000146e0       ??1NxActorDesc@@QAE@XZ     004156e0 f i NxTerrain.obj
 0001:00014730       ?clear@?$NxArray@PAVNxShapeDesc@@VNxAllocatorDefault@@@@QAEXXZ 00415730 f i NxTerrain.obj
 0001:00014760       ?begin@?$NxArray@PAVNxShapeDesc@@VNxAllocatorDefault@@@@QAEPAPAVNxShapeDesc@@XZ 00415760 f i NxTerrain.obj
 0001:00014770       ?end@?$NxArray@PAVNxShapeDesc@@VNxAllocatorDefault@@@@QAEPAPAVNxShapeDesc@@XZ 00415770 f i NxTerrain.obj
 0001:00014790       ??0NxTerrainItem@@IAE@W4ItemType@@@Z 00415790 f   NxTerrainItem.obj
 0001:000147c0       ??1NxTerrainItem@@MAE@XZ   004157c0 f   NxTerrainItem.obj
 0001:000147e0       ?initTerrainItem@NxTerrainItem@@SAXPAVNxScene@@@Z 004157e0 f   NxTerrainItem.obj
 0001:00014810       ?createTerrainItem@NxTerrainItem@@SAPAV1@W4ItemType@@ABVNxVec3@@M@Z 00415810 f   NxTerrainItem.obj
 0001:00014a10       ?addScratchLine@NxTerrainItem@@SAXXZ 00415a10 f   NxTerrainItem.obj
 0001:00014d70       ?getItemPicked@NxTerrainItem@@SAPAV?$NxArray@PAVItemPicked@@VNxAllocatorDefault@@@@_N@Z 00415d70 f   NxTerrainItem.obj
 0001:00014d80       ??_GNxTerrainItem@@MAEPAXI@Z 00415d80 f i NxTerrainItem.obj
 0001:00014d80       ??_ENxTerrainItem@@MAEPAXI@Z 00415d80 f i NxTerrainItem.obj
 0001:00014db0       ?isValid@NxActorDesc@@QBE_NXZ 00415db0 f i NxTerrainItem.obj
 0001:00014e50       ?isValid@NxActorDescBase@@QBE_NXZ 00415e50 f i NxTerrainItem.obj
 0001:00014eb0       ?isValid@NxBodyDesc@@QBE_NXZ 00415eb0 f i NxTerrainItem.obj
 0001:00014f50       ?isValidInternal@NxActorDescBase@@IBE_N_N@Z 00415f50 f i NxTerrainItem.obj
 0001:00015080       ?isZero@NxVec3@@QBEHXZ     00416080 f i NxTerrainItem.obj
 0001:000150b0       ??A?$NxArray@PAVNxShapeDesc@@VNxAllocatorDefault@@@@QBEABQAVNxShapeDesc@@I@Z 004160b0 f i NxTerrainItem.obj
 0001:000150d0       ??0?$NxArray@PAVItemPicked@@VNxAllocatorDefault@@@@QAE@XZ 004160d0 f i NxTerrainItem.obj
 0001:00015100       ??0ItemTrigger@NxTerrainItem@@QAE@XZ 00416100 f i NxTerrainItem.obj
 0001:00015120       ?onTrigger@ItemTrigger@NxTerrainItem@@UAEXAAVNxShape@@0W4NxShapeFlag@@@Z 00416120 f i NxTerrainItem.obj
 0001:00015450       ?getItemType@NxTerrainItem@@QAE?AW4ItemType@@XZ 00416450 f i NxTerrainItem.obj
 0001:00015470       ??0ItemPicked@@QAE@XZ      00416470 f i NxTerrainItem.obj
 0001:00015490       ??0NxUserTriggerReport@@QAE@XZ 00416490 f i NxTerrainItem.obj
 0001:000154b0       ?push_back@?$NxArray@PAVItemPicked@@VNxAllocatorDefault@@@@QAEXABQAVItemPicked@@@Z 004164b0 f i NxTerrainItem.obj
 0001:000154d0       ?pushBack@?$NxArray@PAVItemPicked@@VNxAllocatorDefault@@@@QAEXABQAVItemPicked@@@Z 004164d0 f i NxTerrainItem.obj
 0001:00015520       ?reserve@?$NxArray@PAVItemPicked@@VNxAllocatorDefault@@@@QAEXI@Z 00416520 f i NxTerrainItem.obj
 0001:000155c0       ?deallocate@?$NxArray@PAVItemPicked@@VNxAllocatorDefault@@@@AAEXPAPAVItemPicked@@@Z 004165c0 f i NxTerrainItem.obj
 0001:000155f0       ?capacity@?$NxArray@PAVItemPicked@@VNxAllocatorDefault@@@@QBEIXZ 004165f0 f i NxTerrainItem.obj
 0001:00015630       ?copy@?$NxArray@PAVItemPicked@@VNxAllocatorDefault@@@@AAEPAPAVItemPicked@@PBQAV2@0PAPAV2@@Z 00416630 f i NxTerrainItem.obj
 0001:00015670       ?allocate@?$NxArray@PAVItemPicked@@VNxAllocatorDefault@@@@AAEPAPAVItemPicked@@I@Z 00416670 f i NxTerrainItem.obj
 0001:000156b0       ??1?$NxArray@PAVItemPicked@@VNxAllocatorDefault@@@@QAE@XZ 004166b0 f i NxTerrainItem.obj
 0001:00015700       ??0NxVehicle@@AAE@XZ       00416700 f   NxVehicle.obj
 0001:00015840       ??1NxVehicle@@QAE@XZ       00416840 f   NxVehicle.obj
 0001:00015980       ?_createVehicle@NxVehicle@@CAPAV1@PAVNxScene@@PAVNxVehicleDesc@@@Z 00416980 f   NxVehicle.obj
 0001:00015ff0       ?createVehicle@NxVehicle@@SAPAV1@PAVNxScene@@PAVNxVehicleDesc@@V?$basic_string@DU?$char_traits@D@std@@V?$allocator@D@2@@std@@@Z 00416ff0 f   NxVehicle.obj
 0001:00016080       ?getInfoForOgre@NxVehicle@@QAE?AUAllVehicleInfoNx@@XZ 00417080 f   NxVehicle.obj
 0001:00016400       ?handleContactPair@NxVehicle@@QAEXAAVNxContactPair@@I@Z 00417400 f   NxVehicle.obj
 0001:00016410       ?updateVehicle@NxVehicle@@QAEXM@Z 00417410 f   NxVehicle.obj
 0001:00016ab0       ?_computeMostTouchedActor@NxVehicle@@AAEXXZ 00417ab0 f   NxVehicle.obj
 0001:00016c20       ?_controlSteering@NxVehicle@@AAEXM_N@Z 00417c20 f   NxVehicle.obj
 0001:00016d00       ?_computeLocalVelocity@NxVehicle@@AAEXXZ 00417d00 f   NxVehicle.obj
 0001:00016e00       ?_controlAcceleration@NxVehicle@@AAEXM_N@Z 00417e00 f   NxVehicle.obj
 0001:00016e30       ?setBrake@NxVehicle@@QAEXM@Z 00417e30 f   NxVehicle.obj
 0001:00016e40       ?control@NxVehicle@@QAEXM_NM00@Z 00417e40 f   NxVehicle.obj
 0001:00016fa0       ?_computeAxisTorque@NxVehicle@@AAEMXZ 00417fa0 f   NxVehicle.obj
 0001:00017060       ?_computeRpmFromWheels@NxVehicle@@AAEMXZ 00418060 f   NxVehicle.obj
 0001:000170f0       ?_computeMotorRpm@NxVehicle@@AAEMM@Z 004180f0 f   NxVehicle.obj
 0001:000171e0       ?_getGearRatio@NxVehicle@@AAEMXZ 004181e0 f   NxVehicle.obj
 0001:00017210       ?gearUp@NxVehicle@@QAEXXZ  00418210 f   NxVehicle.obj
 0001:00017240       ?gearDown@NxVehicle@@QAEXXZ 00418240 f   NxVehicle.obj
 0001:00017270       ?applyRandomForce@NxVehicle@@QAEXXZ 00418270 f   NxVehicle.obj
 0001:00017340       ?standUp@NxVehicle@@QAEXXZ 00418340 f   NxVehicle.obj
 0001:000174c0       ?setToBeginning@NxVehicle@@QAEXABVNxVec3@@@Z 004184c0 f   NxVehicle.obj
 0001:00017630       ?_updateRpms@NxVehicle@@AAEXXZ 00418630 f   NxVehicle.obj
 0001:00017680       ?getVehicleName@NxVehicle@@QAE?AV?$basic_string@DU?$char_traits@D@std@@V?$allocator@D@2@@std@@XZ 00418680 f   NxVehicle.obj
 0001:000176c0       ?setToSlip@NxVehicle@@QAEXXZ 004186c0 f   NxVehicle.obj
 0001:00017750       ?cancleSlip@NxVehicle@@QAEXXZ 00418750 f   NxVehicle.obj
 0001:000177e0       ?isValid@NxVehicleDesc@@QBE_NXZ 004187e0 f i NxVehicle.obj
 0001:00017850       ?isValid@NxWheelDesc@@QBE_NXZ 00418850 f i NxVehicle.obj
 0001:00017890       ??0NxBodyDesc@@QAE@XZ      00418890 f i NxVehicle.obj
 0001:00017900       ?setToDefault@NxBodyDesc@@QAEXXZ 00418900 f i NxVehicle.obj
 0001:000179a0       ?createVehicleGears@NxVehicleGears@@SAPAV1@ABVNxVehicleGearDesc@@@Z 004189a0 f i NxVehicle.obj
 0001:00017a80       ?isValid@NxVehicleGearDesc@@QBE_NXZ 00418a80 f i NxVehicle.obj
 0001:00017b90       ?getMaxNumOfGears@NxVehicleGearDesc@@QBEIXZ 00418b90 f i NxVehicle.obj
 0001:00017ba0       ??0NxVehicleGears@@QAE@XZ  00418ba0 f i NxVehicle.obj
 0001:00017bc0       ?createMotor@NxVehicleMotor@@SAPAV1@ABVNxVehicleMotorDesc@@@Z 00418bc0 f i NxVehicle.obj
 0001:00017cf0       ?getValueAtIndex@NxLinearInterpolationValues@@QBEMH@Z 00418cf0 f i NxVehicle.obj
 0001:00017d40       ?getSize@NxLinearInterpolationValues@@QBEIXZ 00418d40 f i NxVehicle.obj
 0001:00017d60       ?isValid@NxVehicleMotorDesc@@QBE_NXZ 00418d60 f i NxVehicle.obj
 0001:00017dd0       ??0NxVehicleMotor@@QAE@XZ  00418dd0 f i NxVehicle.obj
 0001:00017df0       ??4NxLinearInterpolationValues@@QAEAAV0@ABV0@@Z 00418df0 f i NxVehicle.obj
 0001:00017e30       ??4?$map@MMU?$less@M@std@@V?$allocator@U?$pair@$$CBMM@std@@@2@@std@@QAEAAV01@ABV01@@Z 00418e30 f i NxVehicle.obj
 0001:00017e50       ??1NxBodyDesc@@QAE@XZ      00418e50 f i NxVehicle.obj
 0001:00017e70       ??_GNxVehicle@@QAEPAXI@Z   00418e70 f i NxVehicle.obj
 0001:00017ea0       ?sign@NxMath@@SAMM@Z       00418ea0 f i NxVehicle.obj
 0001:00017ed0       ?radToDeg@NxMath@@SAMM@Z   00418ed0 f i NxVehicle.obj
 0001:00017ee0       ?acos@NxMath@@SAMM@Z       00418ee0 f i NxVehicle.obj
 0001:00017f30       _acosf                     00418f30 f i NxVehicle.obj
 0001:00017f50       ??0NxQuat@@QAE@MABVNxVec3@@@Z 00418f50 f i NxVehicle.obj
 0001:00017f70       ?multiply@NxQuat@@QAEXABV1@0@Z 00418f70 f i NxVehicle.obj
 0001:00018080       ?rotate@NxQuat@@QBEXAAVNxVec3@@@Z 00419080 f i NxVehicle.obj
 0001:00018150       ?multiply@NxQuat@@QAEXABV1@ABVNxVec3@@@Z 00419150 f i NxVehicle.obj
 0001:00018230       ??0AllVehicleInfoNx@@QAE@ABU0@@Z 00419230 f i NxVehicle.obj
 0001:000182d0       ??0NxQuat@@QAE@ABV0@@Z     004192d0 f i NxVehicle.obj
 0001:00018310       ?atan@@YAMM@Z              00419310 f i NxVehicle.obj
 0001:00018330       _atanf                     00419330 f i NxVehicle.obj
 0001:00018350       ?abs@NxMath@@SAMM@Z        00419350 f i NxVehicle.obj
 0001:00018370       _fabsf                     00419370 f i NxVehicle.obj
 0001:00018390       ?clamp@NxMath@@SAMMMM@Z    00419390 f i NxVehicle.obj
 0001:000183c0       ?pow@NxMath@@SAMMM@Z       004193c0 f i NxVehicle.obj
 0001:000183e0       _powf                      004193e0 f i NxVehicle.obj
 0001:00018410       ?tan@NxMath@@SAMM@Z        00419410 f i NxVehicle.obj
 0001:00018430       _tanf                      00419430 f i NxVehicle.obj
 0001:00018450       ?atan@NxMath@@SAMM@Z       00419450 f i NxVehicle.obj
 0001:00018470       ?magnitudeSquared@NxVec3@@QBEMXZ 00419470 f i NxVehicle.obj
 0001:000184b0       ??GNxVec3@@QBE?AV0@XZ      004194b0 f i NxVehicle.obj
 0001:000184f0       ?inverseRotate@NxQuat@@QBEXAAVNxVec3@@@Z 004194f0 f i NxVehicle.obj
 0001:000185e0       ??DNxMat34@@QBE?AVNxVec3@@ABV1@@Z 004195e0 f i NxVehicle.obj
 0001:00018620       ?multiply@NxMat34@@QBEXABVNxVec3@@AAV2@@Z 00419620 f i NxVehicle.obj
 0001:00018660       ??HNxVec3@@QBE?AV0@ABV0@@Z 00419660 f i NxVehicle.obj
 0001:000186b0       ??DNxMat33@@QBE?AVNxVec3@@ABV1@@Z 004196b0 f i NxVehicle.obj
 0001:000186f0       ?multiply@NxMat33@@QBEXABVNxVec3@@AAV2@@Z 004196f0 f i NxVehicle.obj
 0001:000187a0       ?hasGroundContact@NxWheel@@QBE_NXZ 004197a0 f i NxVehicle.obj
 0001:000187c0       ?getWheelFlag@NxWheel@@QBE_NW4NxWheelFlags@@@Z 004197c0 f i NxVehicle.obj
 0001:000187e0       ??1?$map@PAVNxActor@@IU?$less@PAVNxActor@@@std@@V?$allocator@U?$pair@QAVNxActor@@I@std@@@3@@std@@QAE@XZ 004197e0 f i NxVehicle.obj
 0001:00018800       ?setRpm@NxVehicleMotor@@QAEXM@Z 00419800 f i NxVehicle.obj
 0001:00018820       ?getTorque@NxVehicleMotor@@QBEMXZ 00419820 f i NxVehicle.obj
 0001:00018840       ?getValue@NxLinearInterpolationValues@@QBEMM@Z 00419840 f i NxVehicle.obj
 0001:00018950       ?getMinRpm@NxVehicleMotor@@QBEMXZ 00419950 f i NxVehicle.obj
 0001:00018970       ?changeGears@NxVehicleMotor@@QBEHPBVNxVehicleGears@@M@Z 00419970 f i NxVehicle.obj
 0001:000189e0       ?getGear@NxVehicleGears@@QBEHXZ 004199e0 f i NxVehicle.obj
 0001:00018a00       ?getMaxGear@NxVehicleGears@@QBEHXZ 00419a00 f i NxVehicle.obj
 0001:00018a10       ?getCurrentRatio@NxVehicleGears@@QBEMXZ 00419a10 f i NxVehicle.obj
 0001:00018a30       ?getRatio@NxVehicleGears@@QBEMH@Z 00419a30 f i NxVehicle.obj
 0001:00018a70       ?gearUp@NxVehicleGears@@QAEXXZ 00419a70 f i NxVehicle.obj
 0001:00018aa0       ?min@NxMath@@SAHHH@Z       00419aa0 f i NxVehicle.obj
 0001:00018ad0       ?gearDown@NxVehicleGears@@QAEXXZ 00419ad0 f i NxVehicle.obj
 0001:00018b00       ?max@NxMath@@SAHHH@Z       00419b00 f i NxVehicle.obj
 0001:00018b30       ?rand@NxMath@@SAMMM@Z      00419b30 f i NxVehicle.obj
 0001:00018b60       ??0NxTireFunctionDesc@@QAE@XZ 00419b60 f i NxVehicle.obj
 0001:00018b80       ?setToDefault@NxTireFunctionDesc@@UAEXXZ 00419b80 f i NxVehicle.obj
 0001:00018bc0       ?isValid@NxTireFunctionDesc@@UBE_NXZ 00419bc0 f i NxVehicle.obj
 0001:00018c40       ??0NxTireFunctionDesc@@QAE@ABV0@@Z 00419c40 f i NxVehicle.obj
 0001:00018ca0       ??4?$_Tree@V?$_Tmap_traits@MMU?$less@M@std@@V?$allocator@U?$pair@$$CBMM@std@@@2@$0A@@std@@@std@@QAEAAV01@ABV01@@Z 00419ca0 f i NxVehicle.obj
 0001:00018cf0       ?begin@?$_Tree@V?$_Tmap_traits@MMU?$less@M@std@@V?$allocator@U?$pair@$$CBMM@std@@@2@$0A@@std@@@std@@QBE?AVconst_iterator@12@XZ 00419cf0 f i NxVehicle.obj
 0001:00018d20       ?end@?$_Tree@V?$_Tmap_traits@MMU?$less@M@std@@V?$allocator@U?$pair@$$CBMM@std@@@2@$0A@@std@@@std@@QBE?AVconst_iterator@12@XZ 00419d20 f i NxVehicle.obj
 0001:00018d40       ?lower_bound@?$_Tree@V?$_Tmap_traits@MMU?$less@M@std@@V?$allocator@U?$pair@$$CBMM@std@@@2@$0A@@std@@@std@@QBE?AVconst_iterator@12@ABM@Z 00419d40 f i NxVehicle.obj
 0001:00018d70       ??Cconst_iterator@?$_Tree@V?$_Tmap_traits@MMU?$less@M@std@@V?$allocator@U?$pair@$$CBMM@std@@@2@$0A@@std@@@std@@QBEPBU?$pair@$$CBMM@2@XZ 00419d70 f i NxVehicle.obj
 0001:00018d90       ??Fconst_iterator@?$_Tree@V?$_Tmap_traits@MMU?$less@M@std@@V?$allocator@U?$pair@$$CBMM@std@@@2@$0A@@std@@@std@@QAE?AV012@H@Z 00419d90 f i NxVehicle.obj
 0001:00018dc0       ??A?$NxArray@PAVNxShapeDesc@@VNxAllocatorDefault@@@@QAEAAPAVNxShapeDesc@@I@Z 00419dc0 f i NxVehicle.obj
 0001:00018de0       ??A?$NxArray@PAVNxWheelDesc@@VNxAllocatorDefault@@@@QBEABQAVNxWheelDesc@@I@Z 00419de0 f i NxVehicle.obj
 0001:00018e00       ??A?$NxArray@PAVNxWheelDesc@@VNxAllocatorDefault@@@@QAEAAPAVNxWheelDesc@@I@Z 00419e00 f i NxVehicle.obj
 0001:00018e20       ??0?$NxArray@PAVNxWheel@@VNxAllocatorDefault@@@@QAE@XZ 00419e20 f i NxVehicle.obj
 0001:00018e50       ??1?$NxArray@PAVNxWheel@@VNxAllocatorDefault@@@@QAE@XZ 00419e50 f i NxVehicle.obj
 0001:00018ea0       ?size@?$NxArray@PAVNxWheel@@VNxAllocatorDefault@@@@QBEIXZ 00419ea0 f i NxVehicle.obj
 0001:00018ec0       ?pushBack@?$NxArray@PAVNxWheel@@VNxAllocatorDefault@@@@QAEXABQAVNxWheel@@@Z 00419ec0 f i NxVehicle.obj
 0001:00018f10       ??A?$NxArray@PAVNxWheel@@VNxAllocatorDefault@@@@QAEAAPAVNxWheel@@I@Z 00419f10 f i NxVehicle.obj
 0001:00018f30       ??0?$map@PAVNxActor@@IU?$less@PAVNxActor@@@std@@V?$allocator@U?$pair@QAVNxActor@@I@std@@@3@@std@@QAE@XZ 00419f30 f i NxVehicle.obj
 0001:00018f60       ??A?$map@PAVNxActor@@IU?$less@PAVNxActor@@@std@@V?$allocator@U?$pair@QAVNxActor@@I@std@@@3@@std@@QAEAAIABQAVNxActor@@@Z 00419f60 f i NxVehicle.obj
 0001:00019000       ??1?$_Tree@V?$_Tmap_traits@PAVNxActor@@IU?$less@PAVNxActor@@@std@@V?$allocator@U?$pair@QAVNxActor@@I@std@@@3@$0A@@std@@@std@@QAE@XZ 0041a000 f i NxVehicle.obj
 0001:00019020       ?begin@?$_Tree@V?$_Tmap_traits@PAVNxActor@@IU?$less@PAVNxActor@@@std@@V?$allocator@U?$pair@QAVNxActor@@I@std@@@3@$0A@@std@@@std@@QAE?AViterator@12@XZ 0041a020 f i NxVehicle.obj
 0001:00019050       ?end@?$_Tree@V?$_Tmap_traits@PAVNxActor@@IU?$less@PAVNxActor@@@std@@V?$allocator@U?$pair@QAVNxActor@@I@std@@@3@$0A@@std@@@std@@QAE?AViterator@12@XZ 0041a050 f i NxVehicle.obj
 0001:00019070       ?find@?$_Tree@V?$_Tmap_traits@PAVNxActor@@IU?$less@PAVNxActor@@@std@@V?$allocator@U?$pair@QAVNxActor@@I@std@@@3@$0A@@std@@@std@@QAE?AViterator@12@ABQAVNxActor@@@Z 0041a070 f i NxVehicle.obj
 0001:00019100       ??Citerator@?$_Tree@V?$_Tmap_traits@PAVNxActor@@IU?$less@PAVNxActor@@@std@@V?$allocator@U?$pair@QAVNxActor@@I@std@@@3@$0A@@std@@@std@@QBEPAU?$pair@QAVNxActor@@I@2@XZ 0041a100 f i NxVehicle.obj
 0001:00019120       ??Eiterator@?$_Tree@V?$_Tmap_traits@PAVNxActor@@IU?$less@PAVNxActor@@@std@@V?$allocator@U?$pair@QAVNxActor@@I@std@@@3@$0A@@std@@@std@@QAEAAV012@XZ 0041a120 f i NxVehicle.obj
 0001:00019140       ??8const_iterator@?$_Tree@V?$_Tmap_traits@PAVNxActor@@IU?$less@PAVNxActor@@@std@@V?$allocator@U?$pair@QAVNxActor@@I@std@@@3@$0A@@std@@@std@@QBE_NABV012@@Z 0041a140 f i NxVehicle.obj
 0001:00019160       ??9const_iterator@?$_Tree@V?$_Tmap_traits@PAVNxActor@@IU?$less@PAVNxActor@@@std@@V?$allocator@U?$pair@QAVNxActor@@I@std@@@3@$0A@@std@@@std@@QBE_NABV012@@Z 0041a160 f i NxVehicle.obj
 0001:00019190       ?_Copy@?$_Tree@V?$_Tmap_traits@MMU?$less@M@std@@V?$allocator@U?$pair@$$CBMM@std@@@2@$0A@@std@@@std@@IAEXABV12@@Z 0041a190 f i NxVehicle.obj
 0001:00019250       ?_Lmost@?$_Tree@V?$_Tmap_traits@MMU?$less@M@std@@V?$allocator@U?$pair@$$CBMM@std@@@2@$0A@@std@@@std@@IBEAAPAU_Node@?$_Tree_nod@V?$_Tmap_traits@MMU?$less@M@std@@V?$allocator@U?$pair@$$CBMM@std@@@2@$0A@@std@@@2@XZ 0041a250 f i NxVehicle.obj
 0001:00019270       ?reserve@?$NxArray@PAVNxWheel@@VNxAllocatorDefault@@@@QAEXI@Z 0041a270 f i NxVehicle.obj
 0001:00019310       ?deallocate@?$NxArray@PAVNxWheel@@VNxAllocatorDefault@@@@AAEXPAPAVNxWheel@@@Z 0041a310 f i NxVehicle.obj
 0001:00019340       ?destroy@?$NxArray@PAVNxWheel@@VNxAllocatorDefault@@@@AAEXPAPAVNxWheel@@0@Z 0041a340 f i NxVehicle.obj
 0001:00019370       ?_Key@?$_Tree@V?$_Tmap_traits@PAVNxActor@@IU?$less@PAVNxActor@@@std@@V?$allocator@U?$pair@QAVNxActor@@I@std@@@3@$0A@@std@@@std@@KAABQAVNxActor@@PAU_Node@?$_Tree_nod@V?$_Tmap_traits@PAVNxActor@@IU?$less@PAVNxActor@@@std@@V?$allocator@U?$pair@QAVNxActor@@I@std@@@3@$0A@@std@@@2@@Z 0041a370 f i NxVehicle.obj
 0001:00019390       ??0?$_Tree@V?$_Tmap_traits@PAVNxActor@@IU?$less@PAVNxActor@@@std@@V?$allocator@U?$pair@QAVNxActor@@I@std@@@3@$0A@@std@@@std@@QAE@ABU?$less@PAVNxActor@@@1@ABV?$allocator@U?$pair@QAVNxActor@@I@std@@@1@@Z 0041a390 f i NxVehicle.obj
 0001:000193d0       ?insert@?$_Tree@V?$_Tmap_traits@PAVNxActor@@IU?$less@PAVNxActor@@@std@@V?$allocator@U?$pair@QAVNxActor@@I@std@@@3@$0A@@std@@@std@@QAE?AViterator@12@V312@ABU?$pair@QAVNxActor@@I@2@@Z 0041a3d0 f i NxVehicle.obj
 0001:000199a0       ?lower_bound@?$_Tree@V?$_Tmap_traits@PAVNxActor@@IU?$less@PAVNxActor@@@std@@V?$allocator@U?$pair@QAVNxActor@@I@std@@@3@$0A@@std@@@std@@QAE?AViterator@12@ABQAVNxActor@@@Z 0041a9a0 f i NxVehicle.obj
 0001:000199d0       ?_Lmost@?$_Tree@V?$_Tmap_traits@PAVNxActor@@IU?$less@PAVNxActor@@@std@@V?$allocator@U?$pair@QAVNxActor@@I@std@@@3@$0A@@std@@@std@@IAEAAPAU_Node@?$_Tree_nod@V?$_Tmap_traits@PAVNxActor@@IU?$less@PAVNxActor@@@std@@V?$allocator@U?$pair@QAVNxActor@@I@std@@@3@$0A@@std@@@2@XZ 0041a9d0 f i NxVehicle.obj
 0001:000199f0       ?_Tidy@?$_Tree@V?$_Tmap_traits@PAVNxActor@@IU?$less@PAVNxActor@@@std@@V?$allocator@U?$pair@QAVNxActor@@I@std@@@3@$0A@@std@@@std@@IAEXXZ 0041a9f0 f i NxVehicle.obj
 0001:00019aa0       ??0?$allocator@U?$pair@QAVNxActor@@I@std@@@std@@QAE@XZ 0041aaa0 f i NxVehicle.obj
 0001:00019ab0       ??R?$less@PAVNxActor@@@std@@QBE_NABQAVNxActor@@0@Z 0041aab0 f i NxVehicle.obj
 0001:00019ad0       ??0iterator@?$_Tree@V?$_Tmap_traits@PAVNxActor@@IU?$less@PAVNxActor@@@std@@V?$allocator@U?$pair@QAVNxActor@@I@std@@@3@$0A@@std@@@std@@QAE@PAU_Node@?$_Tree_nod@V?$_Tmap_traits@PAVNxActor@@IU?$less@PAVNxActor@@@std@@V?$allocator@U?$pair@QAVNxActor@@I@std@@@3@$0A@@std@@@2@@Z 0041aad0 f i NxVehicle.obj
 0001:00019af0       ??Diterator@?$_Tree@V?$_Tmap_traits@PAVNxActor@@IU?$less@PAVNxActor@@@std@@V?$allocator@U?$pair@QAVNxActor@@I@std@@@3@$0A@@std@@@std@@QBEAAU?$pair@QAVNxActor@@I@2@XZ 0041aaf0 f i NxVehicle.obj
 0001:00019b10       ??Econst_iterator@?$_Tree@V?$_Tmap_traits@PAVNxActor@@IU?$less@PAVNxActor@@@std@@V?$allocator@U?$pair@QAVNxActor@@I@std@@@3@$0A@@std@@@std@@QAEAAV012@XZ 0041ab10 f i NxVehicle.obj
 0001:00019b30       ?_Mynode@const_iterator@?$_Tree@V?$_Tmap_traits@PAVNxActor@@IU?$less@PAVNxActor@@@std@@V?$allocator@U?$pair@QAVNxActor@@I@std@@@3@$0A@@std@@@std@@QBEPAU_Node@?$_Tree_nod@V?$_Tmap_traits@PAVNxActor@@IU?$less@PAVNxActor@@@std@@V?$allocator@U?$pair@QAVNxActor@@I@std@@@3@$0A@@std@@@3@XZ 0041ab30 f i NxVehicle.obj
 0001:00019b40       ??0?$pair@QAVNxActor@@I@std@@QAE@ABQAVNxActor@@ABI@Z 0041ab40 f i NxVehicle.obj
 0001:00019b70       ?_Copy@?$_Tree@V?$_Tmap_traits@MMU?$less@M@std@@V?$allocator@U?$pair@$$CBMM@std@@@2@$0A@@std@@@std@@IAEPAU_Node@?$_Tree_nod@V?$_Tmap_traits@MMU?$less@M@std@@V?$allocator@U?$pair@$$CBMM@std@@@2@$0A@@std@@@2@PAU342@0@Z 0041ab70 f i NxVehicle.obj
 0001:00019cc0       ?capacity@?$NxArray@PAVNxWheel@@VNxAllocatorDefault@@@@QBEIXZ 0041acc0 f i NxVehicle.obj
 0001:00019d00       ?copy@?$NxArray@PAVNxWheel@@VNxAllocatorDefault@@@@AAEPAPAVNxWheel@@PBQAV2@0PAPAV2@@Z 0041ad00 f i NxVehicle.obj
 0001:00019d40       ?allocate@?$NxArray@PAVNxWheel@@VNxAllocatorDefault@@@@AAEPAPAVNxWheel@@I@Z 0041ad40 f i NxVehicle.obj
 0001:00019d80       ?_Isnil@?$_Tree@V?$_Tmap_traits@PAVNxActor@@IU?$less@PAVNxActor@@@std@@V?$allocator@U?$pair@QAVNxActor@@I@std@@@3@$0A@@std@@@std@@KAAADPAU_Node@?$_Tree_nod@V?$_Tmap_traits@PAVNxActor@@IU?$less@PAVNxActor@@@std@@V?$allocator@U?$pair@QAVNxActor@@I@std@@@3@$0A@@std@@@2@@Z 0041ad80 f i NxVehicle.obj
 0001:00019d90       ?_Left@?$_Tree@V?$_Tmap_traits@PAVNxActor@@IU?$less@PAVNxActor@@@std@@V?$allocator@U?$pair@QAVNxActor@@I@std@@@3@$0A@@std@@@std@@KAAAPAU_Node@?$_Tree_nod@V?$_Tmap_traits@PAVNxActor@@IU?$less@PAVNxActor@@@std@@V?$allocator@U?$pair@QAVNxActor@@I@std@@@3@$0A@@std@@@2@PAU342@@Z 0041ad90 f i NxVehicle.obj
 0001:00019da0       ?_Parent@?$_Tree@V?$_Tmap_traits@PAVNxActor@@IU?$less@PAVNxActor@@@std@@V?$allocator@U?$pair@QAVNxActor@@I@std@@@3@$0A@@std@@@std@@KAAAPAU_Node@?$_Tree_nod@V?$_Tmap_traits@PAVNxActor@@IU?$less@PAVNxActor@@@std@@V?$allocator@U?$pair@QAVNxActor@@I@std@@@3@$0A@@std@@@2@PAU342@@Z 0041ada0 f i NxVehicle.obj
 0001:00019db0       ?_Right@?$_Tree@V?$_Tmap_traits@PAVNxActor@@IU?$less@PAVNxActor@@@std@@V?$allocator@U?$pair@QAVNxActor@@I@std@@@3@$0A@@std@@@std@@KAAAPAU_Node@?$_Tree_nod@V?$_Tmap_traits@PAVNxActor@@IU?$less@PAVNxActor@@@std@@V?$allocator@U?$pair@QAVNxActor@@I@std@@@3@$0A@@std@@@2@PAU342@@Z 0041adb0 f i NxVehicle.obj
 0001:00019dc0       ?_Myval@?$_Tree@V?$_Tmap_traits@PAVNxActor@@IU?$less@PAVNxActor@@@std@@V?$allocator@U?$pair@QAVNxActor@@I@std@@@3@$0A@@std@@@std@@KAAAU?$pair@QAVNxActor@@I@2@PAU_Node@?$_Tree_nod@V?$_Tmap_traits@PAVNxActor@@IU?$less@PAVNxActor@@@std@@V?$allocator@U?$pair@QAVNxActor@@I@std@@@3@$0A@@std@@@2@@Z 0041adc0 f i NxVehicle.obj
 0001:00019dd0       ?size@?$_Tree@V?$_Tmap_traits@PAVNxActor@@IU?$less@PAVNxActor@@@std@@V?$allocator@U?$pair@QAVNxActor@@I@std@@@3@$0A@@std@@@std@@QBEIXZ 0041add0 f i NxVehicle.obj
 0001:00019df0       ?insert@?$_Tree@V?$_Tmap_traits@PAVNxActor@@IU?$less@PAVNxActor@@@std@@V?$allocator@U?$pair@QAVNxActor@@I@std@@@3@$0A@@std@@@std@@QAE?AU?$pair@Viterator@?$_Tree@V?$_Tmap_traits@PAVNxActor@@IU?$less@PAVNxActor@@@std@@V?$allocator@U?$pair@QAVNxActor@@I@std@@@3@$0A@@std@@@std@@_N@2@ABU?$pair@QAVNxActor@@I@2@@Z 0041adf0 f i NxVehicle.obj
 0001:00019fa0       ?erase@?$_Tree@V?$_Tmap_traits@PAVNxActor@@IU?$less@PAVNxActor@@@std@@V?$allocator@U?$pair@QAVNxActor@@I@std@@@3@$0A@@std@@@std@@QAE?AViterator@12@V312@0@Z 0041afa0 f i NxVehicle.obj
 0001:0001a040       ?_Init@?$_Tree@V?$_Tmap_traits@PAVNxActor@@IU?$less@PAVNxActor@@@std@@V?$allocator@U?$pair@QAVNxActor@@I@std@@@3@$0A@@std@@@std@@IAEXXZ 0041b040 f i NxVehicle.obj
 0001:0001a0b0       ?_Insert@?$_Tree@V?$_Tmap_traits@PAVNxActor@@IU?$less@PAVNxActor@@@std@@V?$allocator@U?$pair@QAVNxActor@@I@std@@@3@$0A@@std@@@std@@IAE?AViterator@12@_NPAU_Node@?$_Tree_nod@V?$_Tmap_traits@PAVNxActor@@IU?$less@PAVNxActor@@@std@@V?$allocator@U?$pair@QAVNxActor@@I@std@@@3@$0A@@std@@@2@ABU?$pair@QAVNxActor@@I@2@@Z 0041b0b0 f i NxVehicle.obj
 0001:0001a510       ?_Lbound@?$_Tree@V?$_Tmap_traits@PAVNxActor@@IU?$less@PAVNxActor@@@std@@V?$allocator@U?$pair@QAVNxActor@@I@std@@@3@$0A@@std@@@std@@IBEPAU_Node@?$_Tree_nod@V?$_Tmap_traits@PAVNxActor@@IU?$less@PAVNxActor@@@std@@V?$allocator@U?$pair@QAVNxActor@@I@std@@@3@$0A@@std@@@2@ABQAVNxActor@@@Z 0041b510 f i NxVehicle.obj
 0001:0001a5a0       ?_Rmost@?$_Tree@V?$_Tmap_traits@PAVNxActor@@IU?$less@PAVNxActor@@@std@@V?$allocator@U?$pair@QAVNxActor@@I@std@@@3@$0A@@std@@@std@@IAEAAPAU_Node@?$_Tree_nod@V?$_Tmap_traits@PAVNxActor@@IU?$less@PAVNxActor@@@std@@V?$allocator@U?$pair@QAVNxActor@@I@std@@@3@$0A@@std@@@2@XZ 0041b5a0 f i NxVehicle.obj
 0001:0001a5c0       ??0?$_Tree_val@V?$_Tmap_traits@PAVNxActor@@IU?$less@PAVNxActor@@@std@@V?$allocator@U?$pair@QAVNxActor@@I@std@@@3@$0A@@std@@@std@@IAE@ABU?$less@PAVNxActor@@@1@V?$allocator@U?$pair@QAVNxActor@@I@std@@@1@@Z 0041b5c0 f i NxVehicle.obj
 0001:0001a600       ?_Kfn@?$_Tmap_traits@PAVNxActor@@IU?$less@PAVNxActor@@@std@@V?$allocator@U?$pair@QAVNxActor@@I@std@@@3@$0A@@std@@SAABQAVNxActor@@ABU?$pair@QAVNxActor@@I@2@@Z 0041b600 f i NxVehicle.obj
 0001:0001a610       ??0?$allocator@U?$pair@QAVNxActor@@I@std@@@std@@QAE@ABV01@@Z 0041b610 f i NxVehicle.obj
 0001:0001a620       ?deallocate@?$allocator@U_Node@?$_Tree_nod@V?$_Tmap_traits@PAVNxActor@@IU?$less@PAVNxActor@@@std@@V?$allocator@U?$pair@QAVNxActor@@I@std@@@3@$0A@@std@@@std@@@std@@QAEXPAU_Node@?$_Tree_nod@V?$_Tmap_traits@PAVNxActor@@IU?$less@PAVNxActor@@@std@@V?$allocator@U?$pair@QAVNxActor@@I@std@@@3@$0A@@std@@@2@I@Z 0041b620 f i NxVehicle.obj
 0001:0001a640       ?destroy@?$allocator@PAU_Node@?$_Tree_nod@V?$_Tmap_traits@PAVNxActor@@IU?$less@PAVNxActor@@@std@@V?$allocator@U?$pair@QAVNxActor@@I@std@@@3@$0A@@std@@@std@@@std@@QAEXPAPAU_Node@?$_Tree_nod@V?$_Tmap_traits@PAVNxActor@@IU?$less@PAVNxActor@@@std@@V?$allocator@U?$pair@QAVNxActor@@I@std@@@3@$0A@@std@@@2@@Z 0041b640 f i NxVehicle.obj
 0001:0001a660       ??0iterator@?$_Tree@V?$_Tmap_traits@PAVNxActor@@IU?$less@PAVNxActor@@@std@@V?$allocator@U?$pair@QAVNxActor@@I@std@@@3@$0A@@std@@@std@@QAE@XZ 0041b660 f i NxVehicle.obj
 0001:0001a680       ??Fiterator@?$_Tree@V?$_Tmap_traits@PAVNxActor@@IU?$less@PAVNxActor@@@std@@V?$allocator@U?$pair@QAVNxActor@@I@std@@@3@$0A@@std@@@std@@QAEAAV012@XZ 0041b680 f i NxVehicle.obj
 0001:0001a6a0       ??0const_iterator@?$_Tree@V?$_Tmap_traits@PAVNxActor@@IU?$less@PAVNxActor@@@std@@V?$allocator@U?$pair@QAVNxActor@@I@std@@@3@$0A@@std@@@std@@QAE@PAU_Node@?$_Tree_nod@V?$_Tmap_traits@PAVNxActor@@IU?$less@PAVNxActor@@@std@@V?$allocator@U?$pair@QAVNxActor@@I@std@@@3@$0A@@std@@@2@@Z 0041b6a0 f i NxVehicle.obj
 0001:0001a6c0       ??Dconst_iterator@?$_Tree@V?$_Tmap_traits@PAVNxActor@@IU?$less@PAVNxActor@@@std@@V?$allocator@U?$pair@QAVNxActor@@I@std@@@3@$0A@@std@@@std@@QBEABU?$pair@QAVNxActor@@I@2@XZ 0041b6c0 f i NxVehicle.obj
 0001:0001a6e0       ?_Inc@const_iterator@?$_Tree@V?$_Tmap_traits@PAVNxActor@@IU?$less@PAVNxActor@@@std@@V?$allocator@U?$pair@QAVNxActor@@I@std@@@3@$0A@@std@@@std@@QAEXXZ 0041b6e0 f i NxVehicle.obj
 0001:0001a7a0       ?_Color@?$_Tree@V?$_Tmap_traits@PAVNxActor@@IU?$less@PAVNxActor@@@std@@V?$allocator@U?$pair@QAVNxActor@@I@std@@@3@$0A@@std@@@std@@KAAADPAU_Node@?$_Tree_nod@V?$_Tmap_traits@PAVNxActor@@IU?$less@PAVNxActor@@@std@@V?$allocator@U?$pair@QAVNxActor@@I@std@@@3@$0A@@std@@@2@@Z 0041b7a0 f i NxVehicle.obj
 0001:0001a7b0       ?max_size@?$_Tree@V?$_Tmap_traits@PAVNxActor@@IU?$less@PAVNxActor@@@std@@V?$allocator@U?$pair@QAVNxActor@@I@std@@@3@$0A@@std@@@std@@QBEIXZ 0041b7b0 f i NxVehicle.obj
 0001:0001a7d0       ?erase@?$_Tree@V?$_Tmap_traits@PAVNxActor@@IU?$less@PAVNxActor@@@std@@V?$allocator@U?$pair@QAVNxActor@@I@std@@@3@$0A@@std@@@std@@QAE?AViterator@12@V312@@Z 0041b7d0 f i NxVehicle.obj
 0001:0001af80       ?clear@?$_Tree@V?$_Tmap_traits@PAVNxActor@@IU?$less@PAVNxActor@@@std@@V?$allocator@U?$pair@QAVNxActor@@I@std@@@3@$0A@@std@@@std@@QAEXXZ 0041bf80 f i NxVehicle.obj
 0001:0001afe0       ?_Lrotate@?$_Tree@V?$_Tmap_traits@PAVNxActor@@IU?$less@PAVNxActor@@@std@@V?$allocator@U?$pair@QAVNxActor@@I@std@@@3@$0A@@std@@@std@@IAEXPAU_Node@?$_Tree_nod@V?$_Tmap_traits@PAVNxActor@@IU?$less@PAVNxActor@@@std@@V?$allocator@U?$pair@QAVNxActor@@I@std@@@3@$0A@@std@@@2@@Z 0041bfe0 f i NxVehicle.obj
 0001:0001b110       ?_Min@?$_Tree@V?$_Tmap_traits@PAVNxActor@@IU?$less@PAVNxActor@@@std@@V?$allocator@U?$pair@QAVNxActor@@I@std@@@3@$0A@@std@@@std@@KAPAU_Node@?$_Tree_nod@V?$_Tmap_traits@PAVNxActor@@IU?$less@PAVNxActor@@@std@@V?$allocator@U?$pair@QAVNxActor@@I@std@@@3@$0A@@std@@@2@PAU342@@Z 0041c110 f i NxVehicle.obj
 0001:0001b150       ?_Root@?$_Tree@V?$_Tmap_traits@PAVNxActor@@IU?$less@PAVNxActor@@@std@@V?$allocator@U?$pair@QAVNxActor@@I@std@@@3@$0A@@std@@@std@@IAEAAPAU_Node@?$_Tree_nod@V?$_Tmap_traits@PAVNxActor@@IU?$less@PAVNxActor@@@std@@V?$allocator@U?$pair@QAVNxActor@@I@std@@@3@$0A@@std@@@2@XZ 0041c150 f i NxVehicle.obj
 0001:0001b170       ?_Root@?$_Tree@V?$_Tmap_traits@PAVNxActor@@IU?$less@PAVNxActor@@@std@@V?$allocator@U?$pair@QAVNxActor@@I@std@@@3@$0A@@std@@@std@@IBEAAPAU_Node@?$_Tree_nod@V?$_Tmap_traits@PAVNxActor@@IU?$less@PAVNxActor@@@std@@V?$allocator@U?$pair@QAVNxActor@@I@std@@@3@$0A@@std@@@2@XZ 0041c170 f i NxVehicle.obj
 0001:0001b190       ?_Rrotate@?$_Tree@V?$_Tmap_traits@PAVNxActor@@IU?$less@PAVNxActor@@@std@@V?$allocator@U?$pair@QAVNxActor@@I@std@@@3@$0A@@std@@@std@@IAEXPAU_Node@?$_Tree_nod@V?$_Tmap_traits@PAVNxActor@@IU?$less@PAVNxActor@@@std@@V?$allocator@U?$pair@QAVNxActor@@I@std@@@3@$0A@@std@@@2@@Z 0041c190 f i NxVehicle.obj
 0001:0001b2c0       ?_Buynode@?$_Tree@V?$_Tmap_traits@PAVNxActor@@IU?$less@PAVNxActor@@@std@@V?$allocator@U?$pair@QAVNxActor@@I@std@@@3@$0A@@std@@@std@@IAEPAU_Node@?$_Tree_nod@V?$_Tmap_traits@PAVNxActor@@IU?$less@PAVNxActor@@@std@@V?$allocator@U?$pair@QAVNxActor@@I@std@@@3@$0A@@std@@@2@XZ 0041c2c0 f i NxVehicle.obj
 0001:0001b430       ?_Buynode@?$_Tree@V?$_Tmap_traits@PAVNxActor@@IU?$less@PAVNxActor@@@std@@V?$allocator@U?$pair@QAVNxActor@@I@std@@@3@$0A@@std@@@std@@IAEPAU_Node@?$_Tree_nod@V?$_Tmap_traits@PAVNxActor@@IU?$less@PAVNxActor@@@std@@V?$allocator@U?$pair@QAVNxActor@@I@std@@@3@$0A@@std@@@2@PAU342@00ABU?$pair@QAVNxActor@@I@2@D@Z 0041c430 f i NxVehicle.obj
 0001:0001b500       ??0?$_Tree_ptr@V?$_Tmap_traits@PAVNxActor@@IU?$less@PAVNxActor@@@std@@V?$allocator@U?$pair@QAVNxActor@@I@std@@@3@$0A@@std@@@std@@IAE@ABU?$less@PAVNxActor@@@1@V?$allocator@U?$pair@QAVNxActor@@I@std@@@1@@Z 0041c500 f i NxVehicle.obj
 0001:0001b540       ??Eiterator@?$_Tree@V?$_Tmap_traits@PAVNxActor@@IU?$less@PAVNxActor@@@std@@V?$allocator@U?$pair@QAVNxActor@@I@std@@@3@$0A@@std@@@std@@QAE?AV012@H@Z 0041c540 f i NxVehicle.obj
 0001:0001b570       ??0const_iterator@?$_Tree@V?$_Tmap_traits@PAVNxActor@@IU?$less@PAVNxActor@@@std@@V?$allocator@U?$pair@QAVNxActor@@I@std@@@3@$0A@@std@@@std@@QAE@XZ 0041c570 f i NxVehicle.obj
 0001:0001b590       ??Fconst_iterator@?$_Tree@V?$_Tmap_traits@PAVNxActor@@IU?$less@PAVNxActor@@@std@@V?$allocator@U?$pair@QAVNxActor@@I@std@@@3@$0A@@std@@@std@@QAEAAV012@XZ 0041c590 f i NxVehicle.obj
 0001:0001b5b0       ??0?$pair@Viterator@?$_Tree@V?$_Tmap_traits@PAVNxActor@@IU?$less@PAVNxActor@@@std@@V?$allocator@U?$pair@QAVNxActor@@I@std@@@3@$0A@@std@@@std@@_N@std@@QAE@ABViterator@?$_Tree@V?$_Tmap_traits@PAVNxActor@@IU?$less@PAVNxActor@@@std@@V?$allocator@U?$pair@QAVNxActor@@I@std@@@3@$0A@@std@@@1@AB_N@Z 0041c5b0 f i NxVehicle.obj
 0001:0001b5e0       ?_Erase@?$_Tree@V?$_Tmap_traits@PAVNxActor@@IU?$less@PAVNxActor@@@std@@V?$allocator@U?$pair@QAVNxActor@@I@std@@@3@$0A@@std@@@std@@IAEXPAU_Node@?$_Tree_nod@V?$_Tmap_traits@PAVNxActor@@IU?$less@PAVNxActor@@@std@@V?$allocator@U?$pair@QAVNxActor@@I@std@@@3@$0A@@std@@@2@@Z 0041c5e0 f i NxVehicle.obj
 0001:0001b660       ?_Max@?$_Tree@V?$_Tmap_traits@PAVNxActor@@IU?$less@PAVNxActor@@@std@@V?$allocator@U?$pair@QAVNxActor@@I@std@@@3@$0A@@std@@@std@@KAPAU_Node@?$_Tree_nod@V?$_Tmap_traits@PAVNxActor@@IU?$less@PAVNxActor@@@std@@V?$allocator@U?$pair@QAVNxActor@@I@std@@@3@$0A@@std@@@2@PAU342@@Z 0041c660 f i NxVehicle.obj
 0001:0001b6a0       ??0?$_Tree_nod@V?$_Tmap_traits@PAVNxActor@@IU?$less@PAVNxActor@@@std@@V?$allocator@U?$pair@QAVNxActor@@I@std@@@3@$0A@@std@@@std@@IAE@ABU?$less@PAVNxActor@@@1@V?$allocator@U?$pair@QAVNxActor@@I@std@@@1@@Z 0041c6a0 f i NxVehicle.obj
 0001:0001b6d0       ?max_size@?$allocator@U?$pair@QAVNxActor@@I@std@@@std@@QBEIXZ 0041c6d0 f i NxVehicle.obj
 0001:0001b700       ?allocate@?$allocator@U_Node@?$_Tree_nod@V?$_Tmap_traits@PAVNxActor@@IU?$less@PAVNxActor@@@std@@V?$allocator@U?$pair@QAVNxActor@@I@std@@@3@$0A@@std@@@std@@@std@@QAEPAU_Node@?$_Tree_nod@V?$_Tmap_traits@PAVNxActor@@IU?$less@PAVNxActor@@@std@@V?$allocator@U?$pair@QAVNxActor@@I@std@@@3@$0A@@std@@@2@I@Z 0041c700 f i NxVehicle.obj
 0001:0001b720       ?destroy@?$allocator@U_Node@?$_Tree_nod@V?$_Tmap_traits@PAVNxActor@@IU?$less@PAVNxActor@@@std@@V?$allocator@U?$pair@QAVNxActor@@I@std@@@3@$0A@@std@@@std@@@std@@QAEXPAU_Node@?$_Tree_nod@V?$_Tmap_traits@PAVNxActor@@IU?$less@PAVNxActor@@@std@@V?$allocator@U?$pair@QAVNxActor@@I@std@@@3@$0A@@std@@@2@@Z 0041c720 f i NxVehicle.obj
 0001:0001b740       ?construct@?$allocator@PAU_Node@?$_Tree_nod@V?$_Tmap_traits@PAVNxActor@@IU?$less@PAVNxActor@@@std@@V?$allocator@U?$pair@QAVNxActor@@I@std@@@3@$0A@@std@@@std@@@std@@QAEXPAPAU_Node@?$_Tree_nod@V?$_Tmap_traits@PAVNxActor@@IU?$less@PAVNxActor@@@std@@V?$allocator@U?$pair@QAVNxActor@@I@std@@@3@$0A@@std@@@2@ABQAU342@@Z 0041c740 f i NxVehicle.obj
 0001:0001b760       ?_Dec@const_iterator@?$_Tree@V?$_Tmap_traits@PAVNxActor@@IU?$less@PAVNxActor@@@std@@V?$allocator@U?$pair@QAVNxActor@@I@std@@@3@$0A@@std@@@std@@QAEXXZ 0041c760 f i NxVehicle.obj
 0001:0001b840       ??0_Node@?$_Tree_nod@V?$_Tmap_traits@PAVNxActor@@IU?$less@PAVNxActor@@@std@@V?$allocator@U?$pair@QAVNxActor@@I@std@@@3@$0A@@std@@@std@@QAE@PAU012@00ABU?$pair@QAVNxActor@@I@2@D@Z 0041c840 f i NxVehicle.obj
 0001:0001b890       ??0?$_Tmap_traits@PAVNxActor@@IU?$less@PAVNxActor@@@std@@V?$allocator@U?$pair@QAVNxActor@@I@std@@@3@$0A@@std@@QAE@U?$less@PAVNxActor@@@1@@Z 0041c890 f i NxVehicle.obj
 0001:0001b8a0       ??$_Destroy@PAU_Node@?$_Tree_nod@V?$_Tmap_traits@PAVNxActor@@IU?$less@PAVNxActor@@@std@@V?$allocator@U?$pair@QAVNxActor@@I@std@@@3@$0A@@std@@@std@@@std@@YAXPAPAU_Node@?$_Tree_nod@V?$_Tmap_traits@PAVNxActor@@IU?$less@PAVNxActor@@@std@@V?$allocator@U?$pair@QAVNxActor@@I@std@@@3@$0A@@std@@@0@@Z 0041c8a0 f i NxVehicle.obj
 0001:0001b8b0       ??$?0U?$pair@QAVNxActor@@I@std@@@?$allocator@PAU_Node@?$_Tree_nod@V?$_Tmap_traits@PAVNxActor@@IU?$less@PAVNxActor@@@std@@V?$allocator@U?$pair@QAVNxActor@@I@std@@@3@$0A@@std@@@std@@@std@@QAE@ABV?$allocator@U?$pair@QAVNxActor@@I@std@@@1@@Z 0041c8b0 f i NxVehicle.obj
 0001:0001b8c0       ??$?0U?$pair@QAVNxActor@@I@std@@@?$allocator@U_Node@?$_Tree_nod@V?$_Tmap_traits@PAVNxActor@@IU?$less@PAVNxActor@@@std@@V?$allocator@U?$pair@QAVNxActor@@I@std@@@3@$0A@@std@@@std@@@std@@QAE@ABV?$allocator@U?$pair@QAVNxActor@@I@std@@@1@@Z 0041c8c0 f i NxVehicle.obj
 0001:0001b8d0       ??$_Allocate@U_Node@?$_Tree_nod@V?$_Tmap_traits@PAVNxActor@@IU?$less@PAVNxActor@@@std@@V?$allocator@U?$pair@QAVNxActor@@I@std@@@3@$0A@@std@@@std@@@std@@YAPAU_Node@?$_Tree_nod@V?$_Tmap_traits@PAVNxActor@@IU?$less@PAVNxActor@@@std@@V?$allocator@U?$pair@QAVNxActor@@I@std@@@3@$0A@@std@@@0@IPAU120@@Z 0041c8d0 f i NxVehicle.obj
 0001:0001b8f0       ??$_Destroy@U_Node@?$_Tree_nod@V?$_Tmap_traits@PAVNxActor@@IU?$less@PAVNxActor@@@std@@V?$allocator@U?$pair@QAVNxActor@@I@std@@@3@$0A@@std@@@std@@@std@@YAXPAU_Node@?$_Tree_nod@V?$_Tmap_traits@PAVNxActor@@IU?$less@PAVNxActor@@@std@@V?$allocator@U?$pair@QAVNxActor@@I@std@@@3@$0A@@std@@@0@@Z 0041c8f0 f i NxVehicle.obj
 0001:0001b900       ??$_Construct@PAU_Node@?$_Tree_nod@V?$_Tmap_traits@PAVNxActor@@IU?$less@PAVNxActor@@@std@@V?$allocator@U?$pair@QAVNxActor@@I@std@@@3@$0A@@std@@@std@@PAU123@@std@@YAXPAPAU_Node@?$_Tree_nod@V?$_Tmap_traits@PAVNxActor@@IU?$less@PAVNxActor@@@std@@V?$allocator@U?$pair@QAVNxActor@@I@std@@@3@$0A@@std@@@0@ABQAU120@@Z 0041c900 f i NxVehicle.obj
 0001:0001b940       ?createWheel@NxWheel@@SAPAV1@PAVNxActor@@PAVNxWheelDesc@@@Z 0041c940 f   NxWheel.obj
 0001:0001b9b0       ??0NxWheel@@AAE@PAVNxActor@@PAVNxWheelDesc@@@Z 0041c9b0 f   NxWheel.obj
 0001:0001bba0       ??1NxWheel@@UAE@XZ         0041cba0 f   NxWheel.obj
 0001:0001bbc0       ?tick@NxWheel@@UAEXMM@Z    0041cbc0 f   NxWheel.obj
 0001:0001bc10       ?getTouchedActor@NxWheel@@UBEPAVNxActor@@XZ 0041cc10 f   NxWheel.obj
 0001:0001bc60       ?getWheelPos@NxWheel@@UBE?AVNxVec3@@XZ 0041cc60 f   NxWheel.obj
 0001:0001bc90       ?setAngle@NxWheel@@UAEXM@Z 0041cc90 f   NxWheel.obj
 0001:0001bcc0       ?getRpm@NxWheel@@UBEMXZ    0041ccc0 f   NxWheel.obj
 0001:0001bd00       ?fromQuat@NxMat33@@QAEXABVNxQuat@@@Z 0041cd00 f i NxWheel.obj
 0001:0001be20       ??0NxWheelShapeDesc@@QAE@XZ 0041ce20 f i NxWheel.obj
 0001:0001bea0       ??0NxSpringDesc@@QAE@XZ    0041cea0 f i NxWheel.obj
 0001:0001bec0       ?setToDefault@NxSpringDesc@@QAEXXZ 0041cec0 f i NxWheel.obj
 0001:0001bef0       ??_GNxWheelShapeDesc@@UAEPAXI@Z 0041cef0 f i NxWheel.obj
 0001:0001bef0       ??_ENxWheelShapeDesc@@UAEPAXI@Z 0041cef0 f i NxWheel.obj
 0001:0001bf20       ??1NxWheelShapeDesc@@UAE@XZ 0041cf20 f i NxWheel.obj
 0001:0001bf40       ?setToDefault@NxWheelShapeDesc@@UAEX_N@Z 0041cf40 f i NxWheel.obj
 0001:0001bfe0       ?isValid@NxWheelShapeDesc@@UBE_NXZ 0041cfe0 f i NxWheel.obj
 0001:0001c1a0       ?isValid@NxSpringDesc@@QBE_NXZ 0041d1a0 f i NxWheel.obj
 0001:0001c1f0       ?setSideSlipEffect@NxWheel@@UAEXVNxTireFunctionDesc@@@Z 0041d1f0 f i NxWheel.obj
 0001:0001c230       ?getGroundContactPos@NxWheel@@UBE?AVNxVec3@@XZ 0041d230 f i NxWheel.obj
 0001:0001c290       ?getRadius@NxWheel@@UBEMXZ 0041d290 f i NxWheel.obj
 0001:0001c2c0       ??_GNxWheel@@UAEPAXI@Z     0041d2c0 f i NxWheel.obj
 0001:0001c2c0       ??_ENxWheel@@UAEPAXI@Z     0041d2c0 f i NxWheel.obj
 0001:0001c2f0       ??0NxWheelContactData@@QAE@XZ 0041d2f0 f i NxWheel.obj
 0001:0001c330       ??0OgreAllVehicle@@IAE@XZ  0041d330 f   OgreAllVehicle.obj
 0001:0001c3a0       ??1OgreAllVehicle@@UAE@XZ  0041d3a0 f   OgreAllVehicle.obj
 0001:0001c3c0       ?getSingleton@OgreAllVehicle@@SAPAV1@XZ 0041d3c0 f   OgreAllVehicle.obj
 0001:0001c470       ?addVehicle@OgreAllVehicle@@QAEPAVOgreVehicle@@PAVSceneNode@Ogre@@V?$basic_string@DU?$char_traits@D@std@@V?$allocator@D@2@@std@@VVector3@4@@Z 0041d470 f   OgreAllVehicle.obj
 0001:0001c510       ?updateAllVehicle@OgreAllVehicle@@QAEXPAUAllVehicleInfoOgre@@@Z 0041d510 f   OgreAllVehicle.obj
 0001:0001c5d0       ?getUserVehicle@OgreAllVehicle@@QAEPAVOgreVehicle@@ABV?$basic_string@DU?$char_traits@D@std@@V?$allocator@D@2@@std@@@Z 0041d5d0 f   OgreAllVehicle.obj
 0001:0001c6a0       ?RemoveVehicleCam@OgreAllVehicle@@QAEPAVOgreVehicle@@XZ 0041d6a0 f   OgreAllVehicle.obj
 0001:0001c760       ??0OgreVehicle@@IAE@XZ     0041d760 f   OgreAllVehicle.obj
 0001:0001c820       ??1OgreVehicle@@UAE@XZ     0041d820 f   OgreAllVehicle.obj
 0001:0001c880       ?createOgreVehicle@OgreVehicle@@SAPAV1@PAVSceneNode@Ogre@@V?$basic_string@DU?$char_traits@D@std@@V?$allocator@D@2@@std@@VVector3@3@@Z 0041d880 f   OgreAllVehicle.obj
 0001:0001cc50       ?updateVehicle@OgreVehicle@@QAEXABUAllVehicleInfoOgre@@@Z 0041dc50 f   OgreAllVehicle.obj
 0001:0001ce10       ?getVehicleName@OgreVehicle@@QAE?AV?$basic_string@DU?$char_traits@D@std@@V?$allocator@D@2@@std@@XZ 0041de10 f   OgreAllVehicle.obj
 0001:0001ce50       ?setToBeginning@OgreVehicle@@QAEXXZ 0041de50 f   OgreAllVehicle.obj
 0001:0001ce70       ?attachCamera@OgreVehicle@@QAEXPAVCamera@Ogre@@@Z 0041de70 f   OgreAllVehicle.obj
 0001:0001cf20       ?setCamera@OgreVehicle@@QAEXABVVector3@Ogre@@ABVQuaternion@3@@Z 0041df20 f   OgreAllVehicle.obj
 0001:0001d040       ?removeCamera@OgreVehicle@@QAEXXZ 0041e040 f   OgreAllVehicle.obj
 0001:0001d0f0       ?hasCamera@OgreVehicle@@QAE_NXZ 0041e0f0 f   OgreAllVehicle.obj
 0001:0001d110       ?addVehicleItem@OgreVehicle@@QAE_NW4ItemType@@@Z 0041e110 f   OgreAllVehicle.obj
 0001:0001d160       ?getAllItem@OgreVehicle@@QAEPAV?$vector@W4ItemType@@V?$allocator@W4ItemType@@@std@@@std@@XZ 0041e160 f   OgreAllVehicle.obj
 0001:0001d180       ?getCurrentItem@OgreVehicle@@QAE?AW4ItemType@@XZ 0041e180 f   OgreAllVehicle.obj
 0001:0001d1f0       ?removeCurrentItem@OgreVehicle@@QAE?AW4ItemType@@XZ 0041e1f0 f   OgreAllVehicle.obj
 0001:0001d2a0       ??0OgreWheel@@IAE@XZ       0041e2a0 f   OgreAllVehicle.obj
 0001:0001d2c0       ??1OgreWheel@@UAE@XZ       0041e2c0 f   OgreAllVehicle.obj
 0001:0001d2e0       ?createOgreWheel@OgreWheel@@SAPAV1@PAVSceneNode@Ogre@@VVector3@3@@Z 0041e2e0 f   OgreAllVehicle.obj
 0001:0001d570       ?updateWheel@OgreWheel@@QAEXM@Z 0041e570 f   OgreAllVehicle.obj
 0001:0001d5f0       ??0OgreTerrainItem@@IAE@PAVSceneNode@Ogre@@W4ItemType@@H@Z 0041e5f0 f   OgreAllVehicle.obj
 0001:0001d650       ??1OgreTerrainItem@@UAE@XZ 0041e650 f   OgreAllVehicle.obj
 0001:0001d670       ?createOgreTerrainItem@OgreTerrainItem@@SAPAV1@PAVSceneNode@Ogre@@ABVVector3@3@W4ItemType@@H@Z 0041e670 f   OgreAllVehicle.obj
 0001:0001d9b0       ?removeTerrainItem@OgreTerrainItem@@QAE_NH@Z 0041e9b0 f   OgreAllVehicle.obj
 0001:0001da00       ?turnTerrainItem@OgreTerrainItem@@QAE_NHM@Z 0041ea00 f   OgreAllVehicle.obj
 0001:0001da60       ?getTerrainItemId@OgreTerrainItem@@QAEHXZ 0041ea60 f   OgreAllVehicle.obj
 0001:0001da80       ??_EOgreAllVehicle@@UAEPAXI@Z 0041ea80 f i OgreAllVehicle.obj
 0001:0001da80       ??_GOgreAllVehicle@@UAEPAXI@Z 0041ea80 f i OgreAllVehicle.obj
 0001:0001dab0       ??_EOgreVehicle@@UAEPAXI@Z 0041eab0 f i OgreAllVehicle.obj
 0001:0001dab0       ??_GOgreVehicle@@UAEPAXI@Z 0041eab0 f i OgreAllVehicle.obj
 0001:0001dae0       ??_EOgreWheel@@UAEPAXI@Z   0041eae0 f i OgreAllVehicle.obj
 0001:0001dae0       ??_GOgreWheel@@UAEPAXI@Z   0041eae0 f i OgreAllVehicle.obj
 0001:0001db10       ??DRadian@Ogre@@QBE?AV01@M@Z 0041eb10 f i OgreAllVehicle.obj
 0001:0001db40       ??_GOgreTerrainItem@@UAEPAXI@Z 0041eb40 f i OgreAllVehicle.obj
 0001:0001db40       ??_EOgreTerrainItem@@UAEPAXI@Z 0041eb40 f i OgreAllVehicle.obj
 0001:0001db70       ??0?$vector@W4ItemType@@V?$allocator@W4ItemType@@@std@@@std@@QAE@XZ 0041eb70 f i OgreAllVehicle.obj
 0001:0001dba0       ??1?$vector@W4ItemType@@V?$allocator@W4ItemType@@@std@@@std@@QAE@XZ 0041eba0 f i OgreAllVehicle.obj
 0001:0001dbc0       ?push_back@?$vector@W4ItemType@@V?$allocator@W4ItemType@@@std@@@std@@QAEXABW4ItemType@@@Z 0041ebc0 f i OgreAllVehicle.obj
 0001:0001dc30       ?clear@?$vector@W4ItemType@@V?$allocator@W4ItemType@@@std@@@std@@QAEXXZ 0041ec30 f i OgreAllVehicle.obj
 0001:0001dc50       ??0?$vector@PAVOgreVehicle@@V?$allocator@PAVOgreVehicle@@@std@@@std@@QAE@XZ 0041ec50 f i OgreAllVehicle.obj
 0001:0001dc80       ??1?$vector@PAVOgreVehicle@@V?$allocator@PAVOgreVehicle@@@std@@@std@@QAE@XZ 0041ec80 f i OgreAllVehicle.obj
 0001:0001dca0       ?size@?$vector@PAVOgreVehicle@@V?$allocator@PAVOgreVehicle@@@std@@@std@@QBEIXZ 0041eca0 f i OgreAllVehicle.obj
 0001:0001dce0       ??A?$vector@PAVOgreVehicle@@V?$allocator@PAVOgreVehicle@@@std@@@std@@QAEAAPAVOgreVehicle@@I@Z 0041ece0 f i OgreAllVehicle.obj
 0001:0001dd20       ?push_back@?$vector@PAVOgreVehicle@@V?$allocator@PAVOgreVehicle@@@std@@@std@@QAEXABQAVOgreVehicle@@@Z 0041ed20 f i OgreAllVehicle.obj
 0001:0001dd90       ?clear@?$vector@PAVOgreVehicle@@V?$allocator@PAVOgreVehicle@@@std@@@std@@QAEXXZ 0041ed90 f i OgreAllVehicle.obj
 0001:0001ddb0       ?capacity@?$vector@W4ItemType@@V?$allocator@W4ItemType@@@std@@@std@@QBEIXZ 0041edb0 f i OgreAllVehicle.obj
 0001:0001ddf0       ?insert@?$vector@W4ItemType@@V?$allocator@W4ItemType@@@std@@@std@@QAE?AViterator@12@V312@ABW4ItemType@@@Z 0041edf0 f i OgreAllVehicle.obj
 0001:0001de70       ?_Buy@?$vector@W4ItemType@@V?$allocator@W4ItemType@@@std@@@std@@IAE_NI@Z 0041ee70 f i OgreAllVehicle.obj
 0001:0001def0       ?_Tidy@?$vector@W4ItemType@@V?$allocator@W4ItemType@@@std@@@std@@IAEXXZ 0041eef0 f i OgreAllVehicle.obj
 0001:0001df60       ?_Ufill@?$vector@W4ItemType@@V?$allocator@W4ItemType@@@std@@@std@@IAEPAW4ItemType@@PAW43@IABW43@@Z 0041ef60 f i OgreAllVehicle.obj
 0001:0001df90       ??0?$_Vector_val@W4ItemType@@V?$allocator@W4ItemType@@@std@@@std@@IAE@V?$allocator@W4ItemType@@@1@@Z 0041ef90 f i OgreAllVehicle.obj
 0001:0001dfb0       ??0?$allocator@W4ItemType@@@std@@QAE@XZ 0041efb0 f i OgreAllVehicle.obj
 0001:0001dfc0       ?capacity@?$vector@PAVOgreVehicle@@V?$allocator@PAVOgreVehicle@@@std@@@std@@QBEIXZ 0041efc0 f i OgreAllVehicle.obj
 0001:0001e000       ?begin@?$vector@PAVOgreVehicle@@V?$allocator@PAVOgreVehicle@@@std@@@std@@QAE?AViterator@12@XZ 0041f000 f i OgreAllVehicle.obj
 0001:0001e020       ?end@?$vector@PAVOgreVehicle@@V?$allocator@PAVOgreVehicle@@@std@@@std@@QAE?AViterator@12@XZ 0041f020 f i OgreAllVehicle.obj
 0001:0001e040       ?insert@?$vector@PAVOgreVehicle@@V?$allocator@PAVOgreVehicle@@@std@@@std@@QAE?AViterator@12@V312@ABQAVOgreVehicle@@@Z 0041f040 f i OgreAllVehicle.obj
 0001:0001e0c0       ?_Buy@?$vector@PAVOgreVehicle@@V?$allocator@PAVOgreVehicle@@@std@@@std@@IAE_NI@Z 0041f0c0 f i OgreAllVehicle.obj
 0001:0001e140       ?_Tidy@?$vector@PAVOgreVehicle@@V?$allocator@PAVOgreVehicle@@@std@@@std@@IAEXXZ 0041f140 f i OgreAllVehicle.obj
 0001:0001e1b0       ?_Ufill@?$vector@PAVOgreVehicle@@V?$allocator@PAVOgreVehicle@@@std@@@std@@IAEPAPAVOgreVehicle@@PAPAV3@IABQAV3@@Z 0041f1b0 f i OgreAllVehicle.obj
 0001:0001e1e0       ??0?$_Vector_val@PAVOgreVehicle@@V?$allocator@PAVOgreVehicle@@@std@@@std@@IAE@V?$allocator@PAVOgreVehicle@@@1@@Z 0041f1e0 f i OgreAllVehicle.obj
 0001:0001e200       ??0?$allocator@PAVOgreVehicle@@@std@@QAE@XZ 0041f200 f i OgreAllVehicle.obj
 0001:0001e210       ??Diterator@?$vector@PAVOgreVehicle@@V?$allocator@PAVOgreVehicle@@@std@@@std@@QBEAAPAVOgreVehicle@@XZ 0041f210 f i OgreAllVehicle.obj
 0001:0001e230       ??Hiterator@?$vector@PAVOgreVehicle@@V?$allocator@PAVOgreVehicle@@@std@@@std@@QBE?AV012@H@Z 0041f230 f i OgreAllVehicle.obj
 0001:0001e260       ?max_size@?$vector@W4ItemType@@V?$allocator@W4ItemType@@@std@@@std@@QBEIXZ 0041f260 f i OgreAllVehicle.obj
 0001:0001e280       ?_Insert_n@?$vector@W4ItemType@@V?$allocator@W4ItemType@@@std@@@std@@IAEXViterator@12@IABW4ItemType@@@Z 0041f280 f i OgreAllVehicle.obj
 0001:0001e5a0       ?_Xlen@?$vector@W4ItemType@@V?$allocator@W4ItemType@@@std@@@std@@IBEXXZ 0041f5a0 f i OgreAllVehicle.obj
 0001:0001e600       ??0?$allocator@W4ItemType@@@std@@QAE@ABV01@@Z 0041f600 f i OgreAllVehicle.obj
 0001:0001e610       ?deallocate@?$allocator@W4ItemType@@@std@@QAEXPAW4ItemType@@I@Z 0041f610 f i OgreAllVehicle.obj
 0001:0001e630       ?allocate@?$allocator@W4ItemType@@@std@@QAEPAW4ItemType@@I@Z 0041f630 f i OgreAllVehicle.obj
 0001:0001e650       ?max_size@?$vector@PAVOgreVehicle@@V?$allocator@PAVOgreVehicle@@@std@@@std@@QBEIXZ 0041f650 f i OgreAllVehicle.obj
 0001:0001e670       ?_Destroy@?$vector@PAVOgreVehicle@@V?$allocator@PAVOgreVehicle@@@std@@@std@@IAEXPAPAVOgreVehicle@@0@Z 0041f670 f i OgreAllVehicle.obj
 0001:0001e6a0       ?_Insert_n@?$vector@PAVOgreVehicle@@V?$allocator@PAVOgreVehicle@@@std@@@std@@IAEXViterator@12@IABQAVOgreVehicle@@@Z 0041f6a0 f i OgreAllVehicle.obj
 0001:0001e9c0       ?_Xlen@?$vector@PAVOgreVehicle@@V?$allocator@PAVOgreVehicle@@@std@@@std@@IBEXXZ 0041f9c0 f i OgreAllVehicle.obj
 0001:0001ea20       ??0?$allocator@PAVOgreVehicle@@@std@@QAE@ABV01@@Z 0041fa20 f i OgreAllVehicle.obj
 0001:0001ea30       ?deallocate@?$allocator@PAVOgreVehicle@@@std@@QAEXPAPAVOgreVehicle@@I@Z 0041fa30 f i OgreAllVehicle.obj
 0001:0001ea50       ?allocate@?$allocator@PAVOgreVehicle@@@std@@QAEPAPAVOgreVehicle@@I@Z 0041fa50 f i OgreAllVehicle.obj
 0001:0001ea70       ??Giterator@?$vector@W4ItemType@@V?$allocator@W4ItemType@@@std@@@std@@QBEHABVconst_iterator@12@@Z 0041fa70 f i OgreAllVehicle.obj
 0001:0001eaa0       ??0iterator@?$vector@PAVOgreVehicle@@V?$allocator@PAVOgreVehicle@@@std@@@std@@QAE@PAPAVOgreVehicle@@@Z 0041faa0 f i OgreAllVehicle.obj
 0001:0001eac0       ??Yiterator@?$vector@PAVOgreVehicle@@V?$allocator@PAVOgreVehicle@@@std@@@std@@QAEAAV012@H@Z 0041fac0 f i OgreAllVehicle.obj
 0001:0001eae0       ??Giterator@?$vector@PAVOgreVehicle@@V?$allocator@PAVOgreVehicle@@@std@@@std@@QBEHABVconst_iterator@12@@Z 0041fae0 f i OgreAllVehicle.obj
 0001:0001eb10       ??Dconst_iterator@?$vector@PAVOgreVehicle@@V?$allocator@PAVOgreVehicle@@@std@@@std@@QBEABQAVOgreVehicle@@XZ 0041fb10 f i OgreAllVehicle.obj
 0001:0001eb20       ?max_size@?$allocator@W4ItemType@@@std@@QBEIXZ 0041fb20 f i OgreAllVehicle.obj
 0001:0001eb50       ?max_size@?$allocator@PAVOgreVehicle@@@std@@QBEIXZ 0041fb50 f i OgreAllVehicle.obj
 0001:0001eb80       ??Gconst_iterator@?$vector@W4ItemType@@V?$allocator@W4ItemType@@@std@@@std@@QBEHABV012@@Z 0041fb80 f i OgreAllVehicle.obj
 0001:0001eba0       ??0const_iterator@?$vector@PAVOgreVehicle@@V?$allocator@PAVOgreVehicle@@@std@@@std@@QAE@PAPAVOgreVehicle@@@Z 0041fba0 f i OgreAllVehicle.obj
 0001:0001ebc0       ??Gconst_iterator@?$vector@PAVOgreVehicle@@V?$allocator@PAVOgreVehicle@@@std@@@std@@QBEHABV012@@Z 0041fbc0 f i OgreAllVehicle.obj
 0001:0001ebe0       ??$_Uninitialized_fill_n@PAW4ItemType@@IW41@V?$allocator@W4ItemType@@@std@@@std@@YAXPAW4ItemType@@IABW41@AAV?$allocator@W4ItemType@@@0@@Z 0041fbe0 f i OgreAllVehicle.obj
 0001:0001ec20       ??$_Uninitialized_fill_n@PAPAVOgreVehicle@@IPAV1@V?$allocator@PAVOgreVehicle@@@std@@@std@@YAXPAPAVOgreVehicle@@IABQAV1@AAV?$allocator@PAVOgreVehicle@@@0@@Z 0041fc20 f i OgreAllVehicle.obj
 0001:0001ec60       ??$_Ucopy@PAW4ItemType@@@?$vector@W4ItemType@@V?$allocator@W4ItemType@@@std@@@std@@IAEPAW4ItemType@@PAW42@00@Z 0041fc60 f i OgreAllVehicle.obj
 0001:0001ec90       ??$fill@PAW4ItemType@@W41@@std@@YAXPAW4ItemType@@0ABW41@@Z 0041fc90 f i OgreAllVehicle.obj
 0001:0001ecc0       ??$copy_backward@PAW4ItemType@@PAW41@@std@@YAPAW4ItemType@@PAW41@00@Z 0041fcc0 f i OgreAllVehicle.obj
 0001:0001ed00       ??$_Allocate@W4ItemType@@@std@@YAPAW4ItemType@@IPAW41@@Z 0041fd00 f i OgreAllVehicle.obj
 0001:0001ed20       ??$_Destroy_range@PAVOgreVehicle@@V?$allocator@PAVOgreVehicle@@@std@@@std@@YAXPAPAVOgreVehicle@@0AAV?$allocator@PAVOgreVehicle@@@0@@Z 0041fd20 f i OgreAllVehicle.obj
 0001:0001ed60       ??$_Ucopy@PAPAVOgreVehicle@@@?$vector@PAVOgreVehicle@@V?$allocator@PAVOgreVehicle@@@std@@@std@@IAEPAPAVOgreVehicle@@PAPAV2@00@Z 0041fd60 f i OgreAllVehicle.obj
 0001:0001ed90       ??$fill@PAPAVOgreVehicle@@PAV1@@std@@YAXPAPAVOgreVehicle@@0ABQAV1@@Z 0041fd90 f i OgreAllVehicle.obj
 0001:0001edc0       ??$copy_backward@PAPAVOgreVehicle@@PAPAV1@@std@@YAPAPAVOgreVehicle@@PAPAV1@00@Z 0041fdc0 f i OgreAllVehicle.obj
 0001:0001ee00       ??$_Allocate@PAVOgreVehicle@@@std@@YAPAPAVOgreVehicle@@IPAPAV1@@Z 0041fe00 f i OgreAllVehicle.obj
 0001:0001ee20       ??$_Uninit_fill_n@PAW4ItemType@@IW41@V?$allocator@W4ItemType@@@std@@@std@@YAXPAW4ItemType@@IABW41@AAV?$allocator@W4ItemType@@@0@U_Nonscalar_ptr_iterator_tag@0@@Z 0041fe20 f i OgreAllVehicle.obj
 0001:0001eec0       ??$_Ptr_cat@VOgreVehicle@@@std@@YA?AU_Scalar_ptr_iterator_tag@0@PAPAVOgreVehicle@@0@Z 0041fec0 f i OgreAllVehicle.obj
 0001:0001eed0       ??$_Uninit_fill_n@PAVOgreVehicle@@IPAV1@@std@@YAXPAPAVOgreVehicle@@IABQAV1@AAV?$allocator@PAVOgreVehicle@@@0@U_Scalar_ptr_iterator_tag@0@@Z 0041fed0 f i OgreAllVehicle.obj
 0001:0001eef0       ??$_Uninitialized_copy@PAW4ItemType@@PAW41@V?$allocator@W4ItemType@@@std@@@std@@YAPAW4ItemType@@PAW41@00AAV?$allocator@W4ItemType@@@0@@Z 0041fef0 f i OgreAllVehicle.obj
 0001:0001ef30       ??$_Copy_backward_opt@PAW4ItemType@@PAW41@@std@@YAPAW4ItemType@@PAW41@00U_Nonscalar_ptr_iterator_tag@0@@Z 0041ff30 f i OgreAllVehicle.obj
 0001:0001ef60       ??$_Destroy_range@PAVOgreVehicle@@V?$allocator@PAVOgreVehicle@@@std@@@std@@YAXPAPAVOgreVehicle@@0AAV?$allocator@PAVOgreVehicle@@@0@U_Scalar_ptr_iterator_tag@0@@Z 0041ff60 f i OgreAllVehicle.obj
 0001:0001ef70       ??$_Uninitialized_copy@PAPAVOgreVehicle@@PAPAV1@V?$allocator@PAVOgreVehicle@@@std@@@std@@YAPAPAVOgreVehicle@@PAPAV1@00AAV?$allocator@PAVOgreVehicle@@@0@@Z 0041ff70 f i OgreAllVehicle.obj
 0001:0001efb0       ??$_Copy_backward_opt@PAPAVOgreVehicle@@PAPAV1@@std@@YAPAPAVOgreVehicle@@PAPAV1@00U_Scalar_ptr_iterator_tag@0@@Z 0041ffb0 f i OgreAllVehicle.obj
 0001:0001eff0       ?construct@?$allocator@W4ItemType@@@std@@QAEXPAW4ItemType@@ABW43@@Z 0041fff0 f i OgreAllVehicle.obj
 0001:0001f010       ??$fill_n@PAPAVOgreVehicle@@IPAV1@@std@@YAXPAPAVOgreVehicle@@IABQAV1@@Z 00420010 f i OgreAllVehicle.obj
 0001:0001f040       ??$_Uninit_copy@PAW4ItemType@@PAW41@V?$allocator@W4ItemType@@@std@@@std@@YAPAW4ItemType@@PAW41@00AAV?$allocator@W4ItemType@@@0@U_Nonscalar_ptr_iterator_tag@0@@Z 00420040 f i OgreAllVehicle.obj
 0001:0001f0f0       ??$_Uninit_copy@PAVOgreVehicle@@PAV1@@std@@YAPAPAVOgreVehicle@@PAPAV1@00AAV?$allocator@PAVOgreVehicle@@@0@U_Scalar_ptr_iterator_tag@0@@Z 004200f0 f i OgreAllVehicle.obj
 0001:0001f130       ??$_Construct@W4ItemType@@W41@@std@@YAXPAW4ItemType@@ABW41@@Z 00420130 f i OgreAllVehicle.obj
 0001:0001f170       ??0OgreTerrain@@QAE@PAVSceneManager@Ogre@@@Z 00420170 f   OgreTerrain.obj
 0001:0001f220       ??1OgreTerrain@@UAE@XZ     00420220 f   OgreTerrain.obj
 0001:0001f240       ?createOgreTerrain@OgreTerrain@@QAEXXZ 00420240 f   OgreTerrain.obj
 0001:0001f3c0       ?addUser@OgreTerrain@@QAEXV?$basic_string@DU?$char_traits@D@std@@V?$allocator@D@2@@std@@VVector3@Ogre@@@Z 004203c0 f   OgreTerrain.obj
 0001:0001f450       ?updateAllOgre@OgreTerrain@@QAEXPAUAllVehicleInfoOgre@@@Z 00420450 f   OgreTerrain.obj
 0001:0001f4d0       ?userCamera@OgreTerrain@@QAEHPAVCamera@Ogre@@ABV?$basic_string@DU?$char_traits@D@std@@V?$allocator@D@2@@std@@@Z 004204d0 f   OgreTerrain.obj
 0001:0001f810       ?wholeCamera@OgreTerrain@@QAEXPAVCamera@Ogre@@@Z 00420810 f   OgreTerrain.obj
 0001:0001f870       ?switchCamera@OgreTerrain@@QAEHPAVCamera@Ogre@@@Z 00420870 f   OgreTerrain.obj
 0001:0001f8f0       ?addVehicleItem@OgreTerrain@@QAEXW4ItemType@@ABV?$basic_string@DU?$char_traits@D@std@@V?$allocator@D@2@@std@@@Z 004208f0 f   OgreTerrain.obj
 0001:0001f920       ?addTerrainItem@OgreTerrain@@QAEXABVVector3@Ogre@@W4ItemType@@H@Z 00420920 f   OgreTerrain.obj
 0001:0001f960       ?removeTerrainItem@OgreTerrain@@QAEXH@Z 00420960 f   OgreTerrain.obj
 0001:0001f9e0       ?turnAllTerrainItem@OgreTerrain@@QAEXM@Z 004209e0 f   OgreTerrain.obj
 0001:0001fa60       ?getCurrentVehicleItem@OgreTerrain@@QAE?AW4ItemType@@ABV?$basic_string@DU?$char_traits@D@std@@V?$allocator@D@2@@std@@@Z 00420a60 f   OgreTerrain.obj
 0001:0001fa90       ?getAllItem@OgreTerrain@@QAEPAV?$vector@W4ItemType@@V?$allocator@W4ItemType@@@std@@@std@@ABV?$basic_string@DU?$char_traits@D@std@@V?$allocator@D@2@@3@@Z 00420a90 f   OgreTerrain.obj
 0001:0001fac0       ?removeCurrentVehicleItem@OgreTerrain@@QAE?AW4ItemType@@ABV?$basic_string@DU?$char_traits@D@std@@V?$allocator@D@2@@std@@@Z 00420ac0 f   OgreTerrain.obj
 0001:0001faf0       ?addScratchLine@OgreTerrain@@QAEXXZ 00420af0 f   OgreTerrain.obj
 0001:0001fc30       ?setToBeginning@OgreTerrain@@QAEXABV?$basic_string@DU?$char_traits@D@std@@V?$allocator@D@2@@std@@@Z 00420c30 f   OgreTerrain.obj
 0001:0001fc60       ??_GOgreTerrain@@UAEPAXI@Z 00420c60 f i OgreTerrain.obj
 0001:0001fc60       ??_EOgreTerrain@@UAEPAXI@Z 00420c60 f i OgreTerrain.obj
 0001:0001fc90       ??0?$vector@PAVOgreTerrainItem@@V?$allocator@PAVOgreTerrainItem@@@std@@@std@@QAE@XZ 00420c90 f i OgreTerrain.obj
 0001:0001fcc0       ??1?$vector@PAVOgreTerrainItem@@V?$allocator@PAVOgreTerrainItem@@@std@@@std@@QAE@XZ 00420cc0 f i OgreTerrain.obj
 0001:0001fce0       ?begin@?$vector@PAVOgreTerrainItem@@V?$allocator@PAVOgreTerrainItem@@@std@@@std@@QAE?AViterator@12@XZ 00420ce0 f i OgreTerrain.obj
 0001:0001fd00       ?end@?$vector@PAVOgreTerrainItem@@V?$allocator@PAVOgreTerrainItem@@@std@@@std@@QAE?AViterator@12@XZ 00420d00 f i OgreTerrain.obj
 0001:0001fd20       ?push_back@?$vector@PAVOgreTerrainItem@@V?$allocator@PAVOgreTerrainItem@@@std@@@std@@QAEXABQAVOgreTerrainItem@@@Z 00420d20 f i OgreTerrain.obj
 0001:0001fd90       ?erase@?$vector@PAVOgreTerrainItem@@V?$allocator@PAVOgreTerrainItem@@@std@@@std@@QAE?AViterator@12@V312@@Z 00420d90 f i OgreTerrain.obj
 0001:0001fdf0       ?clear@?$vector@PAVOgreTerrainItem@@V?$allocator@PAVOgreTerrainItem@@@std@@@std@@QAEXXZ 00420df0 f i OgreTerrain.obj
 0001:0001fe10       ??Diterator@?$vector@PAVOgreTerrainItem@@V?$allocator@PAVOgreTerrainItem@@@std@@@std@@QBEAAPAVOgreTerrainItem@@XZ 00420e10 f i OgreTerrain.obj
 0001:0001fe30       ??Eiterator@?$vector@PAVOgreTerrainItem@@V?$allocator@PAVOgreTerrainItem@@@std@@@std@@QAE?AV012@H@Z 00420e30 f i OgreTerrain.obj
 0001:0001fe60       ??9const_iterator@?$vector@PAVOgreTerrainItem@@V?$allocator@PAVOgreTerrainItem@@@std@@@std@@QBE_NABV012@@Z 00420e60 f i OgreTerrain.obj
 0001:0001fe90       ?capacity@?$vector@PAVOgreTerrainItem@@V?$allocator@PAVOgreTerrainItem@@@std@@@std@@QBEIXZ 00420e90 f i OgreTerrain.obj
 0001:0001fed0       ?size@?$vector@PAVOgreTerrainItem@@V?$allocator@PAVOgreTerrainItem@@@std@@@std@@QBEIXZ 00420ed0 f i OgreTerrain.obj
 0001:0001ff10       ?insert@?$vector@PAVOgreTerrainItem@@V?$allocator@PAVOgreTerrainItem@@@std@@@std@@QAE?AViterator@12@V312@ABQAVOgreTerrainItem@@@Z 00420f10 f i OgreTerrain.obj
 0001:0001ff90       ?_Buy@?$vector@PAVOgreTerrainItem@@V?$allocator@PAVOgreTerrainItem@@@std@@@std@@IAE_NI@Z 00420f90 f i OgreTerrain.obj
 0001:00020010       ?_Destroy@?$vector@PAVOgreTerrainItem@@V?$allocator@PAVOgreTerrainItem@@@std@@@std@@IAEXPAPAVOgreTerrainItem@@0@Z 00421010 f i OgreTerrain.obj
 0001:00020040       ?_Tidy@?$vector@PAVOgreTerrainItem@@V?$allocator@PAVOgreTerrainItem@@@std@@@std@@IAEXXZ 00421040 f i OgreTerrain.obj
 0001:000200b0       ?_Ufill@?$vector@PAVOgreTerrainItem@@V?$allocator@PAVOgreTerrainItem@@@std@@@std@@IAEPAPAVOgreTerrainItem@@PAPAV3@IABQAV3@@Z 004210b0 f i OgreTerrain.obj
 0001:000200e0       ??0?$_Vector_val@PAVOgreTerrainItem@@V?$allocator@PAVOgreTerrainItem@@@std@@@std@@IAE@V?$allocator@PAVOgreTerrainItem@@@1@@Z 004210e0 f i OgreTerrain.obj
 0001:00020100       ??0?$allocator@PAVOgreTerrainItem@@@std@@QAE@XZ 00421100 f i OgreTerrain.obj
 0001:00020110       ??0iterator@?$vector@PAVOgreTerrainItem@@V?$allocator@PAVOgreTerrainItem@@@std@@@std@@QAE@PAPAVOgreTerrainItem@@@Z 00421110 f i OgreTerrain.obj
 0001:00020130       ??Eiterator@?$vector@PAVOgreTerrainItem@@V?$allocator@PAVOgreTerrainItem@@@std@@@std@@QAEAAV012@XZ 00421130 f i OgreTerrain.obj
 0001:00020150       ??Dconst_iterator@?$vector@PAVOgreTerrainItem@@V?$allocator@PAVOgreTerrainItem@@@std@@@std@@QBEABQAVOgreTerrainItem@@XZ 00421150 f i OgreTerrain.obj
 0001:00020160       ??8const_iterator@?$vector@PAVOgreTerrainItem@@V?$allocator@PAVOgreTerrainItem@@@std@@@std@@QBE_NABV012@@Z 00421160 f i OgreTerrain.obj
 0001:00020180       ?max_size@?$vector@PAVOgreTerrainItem@@V?$allocator@PAVOgreTerrainItem@@@std@@@std@@QBEIXZ 00421180 f i OgreTerrain.obj
 0001:000201a0       ?_Insert_n@?$vector@PAVOgreTerrainItem@@V?$allocator@PAVOgreTerrainItem@@@std@@@std@@IAEXViterator@12@IABQAVOgreTerrainItem@@@Z 004211a0 f i OgreTerrain.obj
 0001:000204c0       ?_Xlen@?$vector@PAVOgreTerrainItem@@V?$allocator@PAVOgreTerrainItem@@@std@@@std@@IBEXXZ 004214c0 f i OgreTerrain.obj
 0001:00020520       ??0?$allocator@PAVOgreTerrainItem@@@std@@QAE@ABV01@@Z 00421520 f i OgreTerrain.obj
 0001:00020530       ?deallocate@?$allocator@PAVOgreTerrainItem@@@std@@QAEXPAPAVOgreTerrainItem@@I@Z 00421530 f i OgreTerrain.obj
 0001:00020550       ?allocate@?$allocator@PAVOgreTerrainItem@@@std@@QAEPAPAVOgreTerrainItem@@I@Z 00421550 f i OgreTerrain.obj
 0001:00020570       ??Hiterator@?$vector@PAVOgreTerrainItem@@V?$allocator@PAVOgreTerrainItem@@@std@@@std@@QBE?AV012@H@Z 00421570 f i OgreTerrain.obj
 0001:000205a0       ??Giterator@?$vector@PAVOgreTerrainItem@@V?$allocator@PAVOgreTerrainItem@@@std@@@std@@QBEHABVconst_iterator@12@@Z 004215a0 f i OgreTerrain.obj
 0001:000205d0       ??0const_iterator@?$vector@PAVOgreTerrainItem@@V?$allocator@PAVOgreTerrainItem@@@std@@@std@@QAE@PAPAVOgreTerrainItem@@@Z 004215d0 f i OgreTerrain.obj
 0001:000205f0       ?max_size@?$allocator@PAVOgreTerrainItem@@@std@@QBEIXZ 004215f0 f i OgreTerrain.obj
 0001:00020620       ??Yiterator@?$vector@PAVOgreTerrainItem@@V?$allocator@PAVOgreTerrainItem@@@std@@@std@@QAEAAV012@H@Z 00421620 f i OgreTerrain.obj
 0001:00020640       ??Gconst_iterator@?$vector@PAVOgreTerrainItem@@V?$allocator@PAVOgreTerrainItem@@@std@@@std@@QBEHABV012@@Z 00421640 f i OgreTerrain.obj
 0001:00020660       ??$copy@PAPAVOgreTerrainItem@@PAPAV1@@std@@YAPAPAVOgreTerrainItem@@PAPAV1@00@Z 00421660 f i OgreTerrain.obj
 0001:000206a0       ??$_Destroy_range@PAVOgreTerrainItem@@V?$allocator@PAVOgreTerrainItem@@@std@@@std@@YAXPAPAVOgreTerrainItem@@0AAV?$allocator@PAVOgreTerrainItem@@@0@@Z 004216a0 f i OgreTerrain.obj
 0001:000206e0       ??$_Uninitialized_fill_n@PAPAVOgreTerrainItem@@IPAV1@V?$allocator@PAVOgreTerrainItem@@@std@@@std@@YAXPAPAVOgreTerrainItem@@IABQAV1@AAV?$allocator@PAVOgreTerrainItem@@@0@@Z 004216e0 f i OgreTerrain.obj
 0001:00020720       ??$_Ucopy@PAPAVOgreTerrainItem@@@?$vector@PAVOgreTerrainItem@@V?$allocator@PAVOgreTerrainItem@@@std@@@std@@IAEPAPAVOgreTerrainItem@@PAPAV2@00@Z 00421720 f i OgreTerrain.obj
 0001:00020750       ??$fill@PAPAVOgreTerrainItem@@PAV1@@std@@YAXPAPAVOgreTerrainItem@@0ABQAV1@@Z 00421750 f i OgreTerrain.obj
 0001:00020780       ??$copy_backward@PAPAVOgreTerrainItem@@PAPAV1@@std@@YAPAPAVOgreTerrainItem@@PAPAV1@00@Z 00421780 f i OgreTerrain.obj
 0001:000207c0       ??$_Allocate@PAVOgreTerrainItem@@@std@@YAPAPAVOgreTerrainItem@@IPAPAV1@@Z 004217c0 f i OgreTerrain.obj
 0001:000207e0       ??$_Ptr_cat@VOgreTerrainItem@@@std@@YA?AU_Scalar_ptr_iterator_tag@0@PAPAVOgreTerrainItem@@0@Z 004217e0 f i OgreTerrain.obj
 0001:000207f0       ??$_Copy_opt@PAPAVOgreTerrainItem@@PAPAV1@@std@@YAPAPAVOgreTerrainItem@@PAPAV1@00U_Scalar_ptr_iterator_tag@0@@Z 004217f0 f i OgreTerrain.obj
 0001:00020830       ??$_Destroy_range@PAVOgreTerrainItem@@V?$allocator@PAVOgreTerrainItem@@@std@@@std@@YAXPAPAVOgreTerrainItem@@0AAV?$allocator@PAVOgreTerrainItem@@@0@U_Scalar_ptr_iterator_tag@0@@Z 00421830 f i OgreTerrain.obj
 0001:00020840       ??$_Uninit_fill_n@PAVOgreTerrainItem@@IPAV1@@std@@YAXPAPAVOgreTerrainItem@@IABQAV1@AAV?$allocator@PAVOgreTerrainItem@@@0@U_Scalar_ptr_iterator_tag@0@@Z 00421840 f i OgreTerrain.obj
 0001:00020860       ??$_Uninitialized_copy@PAPAVOgreTerrainItem@@PAPAV1@V?$allocator@PAVOgreTerrainItem@@@std@@@std@@YAPAPAVOgreTerrainItem@@PAPAV1@00AAV?$allocator@PAVOgreTerrainItem@@@0@@Z 00421860 f i OgreTerrain.obj
 0001:000208a0       ??$_Copy_backward_opt@PAPAVOgreTerrainItem@@PAPAV1@@std@@YAPAPAVOgreTerrainItem@@PAPAV1@00U_Scalar_ptr_iterator_tag@0@@Z 004218a0 f i OgreTerrain.obj
 0001:000208e0       ??$fill_n@PAPAVOgreTerrainItem@@IPAV1@@std@@YAXPAPAVOgreTerrainItem@@IABQAV1@@Z 004218e0 f i OgreTerrain.obj
 0001:00020910       ??$_Uninit_copy@PAVOgreTerrainItem@@PAV1@@std@@YAPAPAVOgreTerrainItem@@PAPAV1@00AAV?$allocator@PAVOgreTerrainItem@@@0@U_Scalar_ptr_iterator_tag@0@@Z 00421910 f i OgreTerrain.obj
 0001:00020942       _CloseHandle@4             00421942 f   kernel32:KERNEL32.dll
 0001:00020948       _GetFileSize@8             00421948 f   kernel32:KERNEL32.dll
 0001:0002094e       _CreateFileA@28            0042194e f   kernel32:KERNEL32.dll
 0001:00020954       _Sleep@4                   00421954 f   kernel32:KERNEL32.dll
 0001:0002095a       _LockResource@4            0042195a f   kernel32:KERNEL32.dll
 0001:00020960       _SizeofResource@8          00421960 f   kernel32:KERNEL32.dll
 0001:00020966       _LoadResource@8            00421966 f   kernel32:KERNEL32.dll
 0001:0002096c       _GetModuleHandleA@4        0042196c f   kernel32:KERNEL32.dll
 0001:00020972       _FindResourceA@12          00421972 f   kernel32:KERNEL32.dll
 0001:00020978       _MessageBoxA@16            00421978 f   user32:USER32.dll
 0001:0002097e       _GetForegroundWindow@0     0042197e f   user32:USER32.dll
 0001:00020990       _memset                    00421990 f   LIBCMTD:memset.obj
 0001:000209f0       @__security_check_cookie@4 004219f0 f   LIBCMTD:secchk.obj
 0001:00020a70       __fpmath                   00421a70 f   LIBCMTD:fpinit.obj
 0001:00020aa0       __fpclear                  00421aa0 f   LIBCMTD:fpinit.obj
 0001:00020ab0       __cfltcvt_init             00421ab0 f   LIBCMTD:fpinit.obj
 0001:00020b00       ___setfflag                00421b00 f   LIBCMTD:fpinit.obj
 0001:00020b20       ?_JumpToContinuation@@YGXPAXPAUEHRegistrationNode@@@Z 00421b20 f   LIBCMTD:trnsctrl.obj
 0001:00020b60       ?_CallMemberFunction0@@YGXPAX0@Z 00421b60 f   LIBCMTD:trnsctrl.obj
 0001:00020b70       ?_CallMemberFunction1@@YGXPAX00@Z 00421b70 f   LIBCMTD:trnsctrl.obj
 0001:00020b80       ?_CallMemberFunction2@@YGXPAX00H@Z 00421b80 f   LIBCMTD:trnsctrl.obj
 0001:00020b90       ?_UnwindNestedFrames@@YGXPAUEHRegistrationNode@@PAUEHExceptionRecord@@@Z 00421b90 f   LIBCMTD:trnsctrl.obj
 0001:00020bf0       ___CxxFrameHandler         00421bf0 f   LIBCMTD:trnsctrl.obj
 0001:00020c30       ___CxxLongjmpUnwind@4      00421c30 f   LIBCMTD:trnsctrl.obj
 0001:00020c60       ?_CallCatchBlock2@@YAPAXPAUEHRegistrationNode@@PBU_s_FuncInfo@@PAXHK@Z 00421c60 f   LIBCMTD:trnsctrl.obj
 0001:00020d30       ?_CallSETranslator@@YAHPAUEHExceptionRecord@@PAUEHRegistrationNode@@PAX2PBU_s_FuncInfo@@H1@Z 00421d30 f   LIBCMTD:trnsctrl.obj
 0001:00020ee0       ?_GetRangeOfTrysToCheck@@YAPBU_s_TryBlockMapEntry@@PBU_s_FuncInfo@@HHPAI1@Z 00421ee0 f   LIBCMTD:trnsctrl.obj
 0001:00020f70       ?_CreateFrameInfo@@YAPAUFrameInfo@@PAU1@PAX@Z 00421f70 f   LIBCMTD:trnsctrl.obj
 0001:00020fa0       ?IsExceptionObjectToBeDestroyed@@YAHPAX@Z 00421fa0 f   LIBCMTD:trnsctrl.obj
 0001:00020fd0       ?_FindAndUnlinkFrame@@YAXPAUFrameInfo@@@Z 00421fd0 f   LIBCMTD:trnsctrl.obj
 0001:00021028       __global_unwind2           00422028 f   LIBCMTD:exsup.obj
 0001:0002106a       __local_unwind2            0042206a f   LIBCMTD:exsup.obj
 0001:000210c2       __NLG_Return2              004220c2     LIBCMTD:exsup.obj
 0001:000210d2       __abnormal_termination     004220d2 f   LIBCMTD:exsup.obj
 0001:000210f5       __NLG_Notify1              004220f5 f   LIBCMTD:exsup.obj
 0001:000210fe       __NLG_Notify               004220fe f   LIBCMTD:exsup.obj
 0001:00021111       __NLG_Dispatch             00422111     LIBCMTD:exsup.obj
 0001:00021120       _memcpy                    00422120 f   LIBCMTD:memcpy.obj
 0001:00021460       ??_M@YGXPAXIHP6EX0@Z@Z     00422460 f   LIBCMTD:ehvecdtr.obj
 0001:00021500       ?__ArrayUnwind@@YGXPAXIHP6EX0@Z@Z 00422500 f   LIBCMTD:ehvecdtr.obj
 0001:000215b0       ??1type_info@@UAE@XZ       004225b0 f   LIBCMTD:typinfo.obj
 0001:00021640       ??_Gtype_info@@UAEPAXI@Z   00422640 f i LIBCMTD:typinfo.obj
 0001:00021640       ??_Etype_info@@UAEPAXI@Z   00422640 f i LIBCMTD:typinfo.obj
 0001:00021670       ??8type_info@@QBEHABV0@@Z  00422670 f   LIBCMTD:typinfo.obj
 0001:000216a0       ??9type_info@@QBEHABV0@@Z  004226a0 f   LIBCMTD:typinfo.obj
 0001:000216d0       ?before@type_info@@QBEHABV1@@Z 004226d0 f   LIBCMTD:typinfo.obj
 0001:00021700       ?raw_name@type_info@@QBEPBDXZ 00422700 f   LIBCMTD:typinfo.obj
 0001:00021720       ??0type_info@@AAE@ABV0@@Z  00422720 f   LIBCMTD:typinfo.obj
 0001:00021740       ??4type_info@@AAEAAV0@ABV0@@Z 00422740 f   LIBCMTD:typinfo.obj
 0001:00021750       __purecall                 00422750 f   LIBCMTD:purevirt.obj
 0001:00021770       __set_purecall_handler     00422770 f   LIBCMTD:purevirt.obj
 0001:000217a0       _sprintf                   004227a0 f   LIBCMTD:sprintf.obj
 0001:00021890       __scprintf                 00422890 f   LIBCMTD:sprintf.obj
 0001:00021910       __onexit                   00422910 f   LIBCMTD:onexit.obj
 0001:00021a70       _atexit                    00422a70 f   LIBCMTD:onexit.obj
 0001:00021a90       ___onexitinit              00422a90 f   LIBCMTD:onexit.obj
 0001:00021adc       __ftol2                    00422adc f   LIBCMTD:ftol2.obj
 0001:00021b60       _fclose                    00422b60 f   LIBCMTD:fclose.obj
 0001:00021c20       __fclose_lk                00422c20 f   LIBCMTD:fclose.obj
 0001:00021cd0       _fread                     00422cd0 f   LIBCMTD:fread.obj
 0001:00021d50       __fread_lk                 00422d50 f   LIBCMTD:fread.obj
 0001:00021f20       __fsopen                   00422f20 f   LIBCMTD:fopen.obj
 0001:00022050       _fopen                     00423050 f   LIBCMTD:fopen.obj
 0001:00022070       ??_L@YGXPAXIHP6EX0@Z1@Z    00423070 f   LIBCMTD:ehvecctr.obj
 0001:00022110       _srand                     00423110 f   LIBCMTD:rand.obj
 0001:00022120       _rand                      00423120 f   LIBCMTD:rand.obj
 0001:00022160       _fwrite                    00423160 f   LIBCMTD:fwrite.obj
 0001:000221e0       __fwrite_lk                004231e0 f   LIBCMTD:fwrite.obj
 0001:00022400       _memmove                   00423400 f   LIBCMTD:memmove.obj
 0001:00022740       __CxxThrowException@8      00423740 f   LIBCMTD:throw.obj
 0001:00022790       __CIsqrt                   00423790 f   LIBCMTD:sqrt.obj
 0001:000227a4       _sqrt                      004237a4     LIBCMTD:sqrt.obj
 0001:00022850       __CIsin                    00423850 f   LIBCMTD:sin.obj
 0001:00022864       _sin                       00423864     LIBCMTD:sin.obj
 0001:00022900       __CIcos                    00423900 f   LIBCMTD:cos.obj
 0001:00022914       _cos                       00423914     LIBCMTD:cos.obj
 0001:000229b0       __copysign                 004239b0 f   LIBCMTD:ieeemisc.obj
 0001:000229e0       __chgsign                  004239e0 f   LIBCMTD:ieeemisc.obj
 0001:00022a10       __scalb                    00423a10 f   LIBCMTD:ieeemisc.obj
 0001:00022a30       __logb                     00423a30 f   LIBCMTD:ieeemisc.obj
 0001:00022b60       __nextafter                00423b60 f   LIBCMTD:ieeemisc.obj
 0001:00022e90       __finite                   00423e90 f   LIBCMTD:ieeemisc.obj
 0001:00022eb0       __isnan                    00423eb0 f   LIBCMTD:ieeemisc.obj
 0001:00022ef0       __fpclass                  00423ef0 f   LIBCMTD:ieeemisc.obj
 0001:00022fc0       _malloc                    00423fc0 f   LIBCMTD:dbgheap.obj
 0001:00022ff0       __malloc_dbg               00423ff0 f   LIBCMTD:dbgheap.obj
 0001:00023020       __nh_malloc                00424020 f   LIBCMTD:dbgheap.obj
 0001:00023040       __nh_malloc_dbg            00424040 f   LIBCMTD:dbgheap.obj
 0001:000230e0       __heap_alloc               004240e0 f   LIBCMTD:dbgheap.obj
 0001:00023100       __heap_alloc_dbg           00424100 f   LIBCMTD:dbgheap.obj
 0001:00023420       _calloc                    00424420 f   LIBCMTD:dbgheap.obj
 0001:00023450       __calloc_dbg               00424450 f   LIBCMTD:dbgheap.obj
 0001:000234b0       _realloc                   004244b0 f   LIBCMTD:dbgheap.obj
 0001:000234e0       __realloc_dbg              004244e0 f   LIBCMTD:dbgheap.obj
 0001:00023a80       __expand                   00424a80 f   LIBCMTD:dbgheap.obj
 0001:00023ab0       __expand_dbg               00424ab0 f   LIBCMTD:dbgheap.obj
 0001:00023b40       _free                      00424b40 f   LIBCMTD:dbgheap.obj
 0001:00023b60       __free_lk                  00424b60 f   LIBCMTD:dbgheap.obj
 0001:00023b80       __free_dbg                 00424b80 f   LIBCMTD:dbgheap.obj
 0001:00023bf0       __free_dbg_lk              00424bf0 f   LIBCMTD:dbgheap.obj
 0001:00024000       __msize                    00425000 f   LIBCMTD:dbgheap.obj
 0001:00024020       __msize_dbg                00425020 f   LIBCMTD:dbgheap.obj
 0001:00024190       __CrtSetBreakAlloc         00425190 f   LIBCMTD:dbgheap.obj
 0001:000241b0       __CrtSetDbgBlockType       004251b0 f   LIBCMTD:dbgheap.obj
 0001:00024290       __CrtSetAllocHook          00425290 f   LIBCMTD:dbgheap.obj
 0001:00024300       __CrtCheckMemory           00425300 f   LIBCMTD:dbgheap.obj
 0001:00024670       __CrtSetDbgFlag            00425670 f   LIBCMTD:dbgheap.obj
 0001:00024720       __CrtDoForAllClientObjects 00425720 f   LIBCMTD:dbgheap.obj
 0001:000247d0       __CrtIsValidPointer        004257d0 f   LIBCMTD:dbgheap.obj
 0001:00024820       __CrtIsValidHeapPointer    00425820 f   LIBCMTD:dbgheap.obj
 0001:000248d0       __CrtIsMemoryBlock         004258d0 f   LIBCMTD:dbgheap.obj
 0001:00024a00       __CrtReportBlockType       00425a00 f   LIBCMTD:dbgheap.obj
 0001:00024a30       __CrtSetDumpClient         00425a30 f   LIBCMTD:dbgheap.obj
 0001:00024a50       __CrtMemCheckpoint         00425a50 f   LIBCMTD:dbgheap.obj
 0001:00024bf0       __CrtMemDifference         00425bf0 f   LIBCMTD:dbgheap.obj
 0001:00024d10       __CrtMemDumpAllObjectsSince 00425d10 f   LIBCMTD:dbgheap.obj
 0001:00025110       __CrtDumpMemoryLeaks       00426110 f   LIBCMTD:dbgheap.obj
 0001:00025180       __CrtMemDumpStatistics     00426180 f   LIBCMTD:dbgheap.obj
 0001:00025230       __aligned_malloc           00426230 f   LIBCMTD:dbgheap.obj
 0001:00025250       __aligned_malloc_dbg       00426250 f   LIBCMTD:dbgheap.obj
 0001:00025270       __aligned_realloc          00426270 f   LIBCMTD:dbgheap.obj
 0001:00025290       __aligned_realloc_dbg      00426290 f   LIBCMTD:dbgheap.obj
 0001:000252c0       __aligned_offset_malloc    004262c0 f   LIBCMTD:dbgheap.obj
 0001:000252e0       __aligned_offset_malloc_dbg 004262e0 f   LIBCMTD:dbgheap.obj
 0001:00025420       __aligned_offset_realloc   00426420 f   LIBCMTD:dbgheap.obj
 0001:00025450       __aligned_offset_realloc_dbg 00426450 f   LIBCMTD:dbgheap.obj
 0001:000256b0       __aligned_free             004266b0 f   LIBCMTD:dbgheap.obj
 0001:000256d0       __aligned_free_dbg         004266d0 f   LIBCMTD:dbgheap.obj
 0001:00025780       ??0exception@@QAE@XZ       00426780 f   LIBCMTD:stdexcpt.obj
 0001:000257b0       ??_Gexception@@UAEPAXI@Z   004267b0 f i LIBCMTD:stdexcpt.obj
 0001:000257b0       ??_Eexception@@UAEPAXI@Z   004267b0 f i LIBCMTD:stdexcpt.obj
 0001:000257e0       ??0exception@@QAE@ABQBD@Z  004267e0 f   LIBCMTD:stdexcpt.obj
 0001:00025850       ??0exception@@QAE@ABV0@@Z  00426850 f   LIBCMTD:stdexcpt.obj
 0001:000258d0       ??4exception@@QAEAAV0@ABV0@@Z 004268d0 f   LIBCMTD:stdexcpt.obj
 0001:00025900       ??1exception@@UAE@XZ       00426900 f   LIBCMTD:stdexcpt.obj
 0001:00025930       ?what@exception@@UBEPBDXZ  00426930 f   LIBCMTD:stdexcpt.obj
 0001:00025960       ??0bad_cast@@QAE@PBD@Z     00426960 f   LIBCMTD:stdexcpt.obj
 0001:00025990       ??_Ebad_cast@@UAEPAXI@Z    00426990 f i LIBCMTD:stdexcpt.obj
 0001:00025990       ??_Gbad_cast@@UAEPAXI@Z    00426990 f i LIBCMTD:stdexcpt.obj
 0001:000259c0       ??0bad_cast@@QAE@ABV0@@Z   004269c0 f   LIBCMTD:stdexcpt.obj
 0001:000259f0       ??1bad_cast@@UAE@XZ        004269f0 f   LIBCMTD:stdexcpt.obj
 0001:00025a10       ??0bad_typeid@@QAE@PBD@Z   00426a10 f   LIBCMTD:stdexcpt.obj
 0001:00025a40       ??_Gbad_typeid@@UAEPAXI@Z  00426a40 f i LIBCMTD:stdexcpt.obj
 0001:00025a40       ??_Ebad_typeid@@UAEPAXI@Z  00426a40 f i LIBCMTD:stdexcpt.obj
 0001:00025a70       ??0bad_typeid@@QAE@ABV0@@Z 00426a70 f   LIBCMTD:stdexcpt.obj
 0001:00025aa0       ??1bad_typeid@@UAE@XZ      00426aa0 f   LIBCMTD:stdexcpt.obj
 0001:00025ac0       ??0__non_rtti_object@@QAE@PBD@Z 00426ac0 f   LIBCMTD:stdexcpt.obj
 0001:00025af0       ??_G__non_rtti_object@@UAEPAXI@Z 00426af0 f i LIBCMTD:stdexcpt.obj
 0001:00025af0       ??_E__non_rtti_object@@UAEPAXI@Z 00426af0 f i LIBCMTD:stdexcpt.obj
 0001:00025b20       ??0__non_rtti_object@@QAE@ABV0@@Z 00426b20 f   LIBCMTD:stdexcpt.obj
 0001:00025b50       ??1__non_rtti_object@@UAE@XZ 00426b50 f   LIBCMTD:stdexcpt.obj
 0001:00025b70       __assert                   00426b70 f   LIBCMTD:assert.obj
 0001:00026170       _fprintf                   00427170 f   LIBCMTD:fprintf.obj
 0001:00026260       ___iob_func                00427260 f   LIBCMTD:_file.obj
 0001:00026270       ___initstdio               00427270 f   LIBCMTD:_file.obj
 0001:000263a0       ___endstdio                004273a0 f   LIBCMTD:_file.obj
 0001:000263c0       __lock_file                004273c0 f   LIBCMTD:_file.obj
 0001:00026400       __lock_file2               00427400 f   LIBCMTD:_file.obj
 0001:00026430       __unlock_file              00427430 f   LIBCMTD:_file.obj
 0001:00026470       __unlock_file2             00427470 f   LIBCMTD:_file.obj
 0001:000264a0       __CIacos                   004274a0 f   LIBCMTD:acos.obj
 0001:000264b4       _acos                      004274b4     LIBCMTD:acos.obj
 0001:00026570       _atan                      00427570 f   LIBCMTD:atan.obj
 0001:000265b0       __CIatan                   004275b0 f   LIBCMTD:atan.obj
 0001:000265eb       __CIatan_default           004275eb f   LIBCMTD:atan.obj
 0001:000265ff       __atan_default             004275ff     LIBCMTD:atan.obj
 0001:00026690       _fabs                      00427690 f   LIBCMTD:fabs.obj
 0001:00026790       _pow                       00427790 f   LIBCMTD:pow.obj
 0001:000267d0       __CIpow                    004277d0 f   LIBCMTD:pow.obj
 0001:0002680b       __CIpow_default            0042780b f   LIBCMTD:pow.obj
 0001:00026824       __pow_default              00427824     LIBCMTD:pow.obj
 0001:00026a20       __CItan                    00427a20 f   LIBCMTD:tan.obj
 0001:00026a34       _tan                       00427a34     LIBCMTD:tan.obj
 0001:00026ae0       _strlen                    00427ae0 f   LIBCMTD:strlen.obj
 0001:00026b70       _memcmp                    00427b70 f   LIBCMTD:memcmp.obj
 0001:00026c30       _WinMainCRTStartup         00427c30 f   LIBCMTD:wincrt0.obj
 0001:00026e50       __amsg_exit                00427e50 f   LIBCMTD:wincrt0.obj
 0001:00026f70       ___security_init_cookie    00427f70 f   LIBCMTD:seccinit.obj
 0001:00027010       ___security_error_handler  00428010 f   LIBCMTD:secfail.obj
 0001:00027240       __set_security_error_handler 00428240 f   LIBCMTD:secfail.obj
 0001:00027260       ___buffer_overrun          00428260 f   LIBCMTD:secfail.obj
 0001:00027280       ___set_buffer_overrun_handler 00428280 f   LIBCMTD:secfail.obj
 0001:0002729c       __except_handler3          0042829c f   LIBCMTD:exsup3.obj
 0001:00027382       __seh_longjmp_unwind@4     00428382 f   LIBCMTD:exsup3.obj
 0001:000273a0       __setdefaultprecision      004283a0 f   LIBCMTD:fp8.obj
 0001:000273c0       __ms_p5_test_fdiv          004283c0 f   LIBCMTD:testfdiv.obj
 0001:00027410       __ms_p5_mp_test_fdiv       00428410 f   LIBCMTD:testfdiv.obj
 0001:00027460       __forcdecpt                00428460 f   LIBCMTD:cvt.obj
 0001:000274e0       __cropzeros                004284e0 f   LIBCMTD:cvt.obj
 0001:000275c0       __positive                 004285c0 f   LIBCMTD:cvt.obj
 0001:000275f0       __fassign                  004285f0 f   LIBCMTD:cvt.obj
 0001:00027640       __cftoe                    00428640 f   LIBCMTD:cvt.obj
 0001:00027840       __cftof                    00428840 f   LIBCMTD:cvt.obj
 0001:00027a00       __cftog                    00428a00 f   LIBCMTD:cvt.obj
 0001:00027b00       __cfltcvt                  00428b00 f   LIBCMTD:cvt.obj
 0001:00027b90       ___InternalCxxFrameHandler 00428b90 f   LIBCMTD:frame.obj
 0001:00028100       ___FrameUnwindToState      00429100 f   LIBCMTD:frame.obj
 0001:00028870       ___DestructExceptionObject 00429870 f   LIBCMTD:frame.obj
 0001:00028950       ?__uncaught_exception@@YA_NXZ 00429950 f   LIBCMTD:frame.obj
 0001:00028970       ___CxxExceptionFilter      00429970 f   LIBCMTD:frame.obj
 0001:00028b20       ___CxxRegisterExceptionObject 00429b20 f   LIBCMTD:frame.obj
 0001:00028c40       ___CxxDetectRethrow        00429c40 f   LIBCMTD:frame.obj
 0001:00028ca0       ___CxxUnregisterExceptionObject 00429ca0 f   LIBCMTD:frame.obj
 0001:00028d70       ___CxxQueryExceptionSize   00429d70 f   LIBCMTD:frame.obj
 0001:00028d80       ___CxxCallUnwindDtor       00429d80 f   LIBCMTD:frame.obj
 0001:00028df0       ___CxxCallUnwindVecDtor    00429df0 f   LIBCMTD:frame.obj
 0001:00028e70       __CallSettingFrame@12      00429e70 f   LIBCMTD:lowhelpr.obj
 0001:00028e97       __NLG_Return               00429e97     LIBCMTD:lowhelpr.obj
 0001:00028ec0       ___crtTlsAlloc@4           00429ec0 f   LIBCMTD:tidtable.obj
 0001:00028ed0       __mtinit                   00429ed0 f   LIBCMTD:tidtable.obj
 0001:00029020       __mtterm                   0042a020 f   LIBCMTD:tidtable.obj
 0001:00029050       __initptd                  0042a050 f   LIBCMTD:tidtable.obj
 0001:00029070       __getptd                   0042a070 f   LIBCMTD:tidtable.obj
 0001:00029110       __freefls@4                0042a110 f   LIBCMTD:tidtable.obj
 0001:00029390       __freeptd                  0042a390 f   LIBCMTD:tidtable.obj
 0001:000293d0       ___threadid                0042a3d0 f   LIBCMTD:tidtable.obj
 0001:000293e0       ___threadhandle            0042a3e0 f   LIBCMTD:tidtable.obj
 0001:000293f0       ?terminate@@YAXXZ          0042a3f0 f   LIBCMTD:hooks.obj
 0001:00029460       ?unexpected@@YAXXZ         0042a460 f   LIBCMTD:hooks.obj
 0001:00029480       ?_inconsistency@@YAXXZ     0042a480 f   LIBCMTD:hooks.obj
 0001:000294f0       __mtinitlocks              0042a4f0 f   LIBCMTD:mlock.obj
 0001:00029580       __mtdeletelocks            0042a580 f   LIBCMTD:mlock.obj
 0001:00029640       __mtinitlocknum            0042a640 f   LIBCMTD:mlock.obj
 0001:00029760       __lock                     0042a760 f   LIBCMTD:mlock.obj
 0001:000297a0       __unlock                   0042a7a0 f   LIBCMTD:mlock.obj
 0001:000297c0       __lockerr_exit             0042a7c0 f   LIBCMTD:mlock.obj
 0001:000297e0       __free_base                0042a7e0 f   LIBCMTD:free.obj
 0001:000298b0       _strcmp                    0042a8b0 f   LIBCMTD:strcmp.obj
 0001:00029940       __flsbuf                   0042a940 f   LIBCMTD:_flsbuf.obj
 0001:00029ba0       __output                   0042aba0 f   LIBCMTD:output.obj
 0001:0002ab20       __CrtDbgBreak              0042bb20 f   LIBCMTD:dbgrpt.obj
 0001:0002ab30       __CrtSetReportMode         0042bb30 f   LIBCMTD:dbgrpt.obj
 0001:0002ab90       __CrtSetReportFile         0042bb90 f   LIBCMTD:dbgrpt.obj
 0001:0002ac10       __CrtSetReportHook         0042bc10 f   LIBCMTD:dbgrpt.obj
 0001:0002ac30       __CrtSetReportHook2        0042bc30 f   LIBCMTD:dbgrpt.obj
 0001:0002ae80       __CrtDbgReport             0042be80 f   LIBCMTD:dbgrpt.obj
 0001:0002b5f0       __cinit                    0042c5f0 f   LIBCMTD:crt0dat.obj
 0001:0002b650       _exit                      0042c650 f   LIBCMTD:crt0dat.obj
 0001:0002b670       __exit                     0042c670 f   LIBCMTD:crt0dat.obj
 0001:0002b690       __cexit                    0042c690 f   LIBCMTD:crt0dat.obj
 0001:0002b6b0       __c_exit                   0042c6b0 f   LIBCMTD:crt0dat.obj
 0001:0002b800       ___crtExitProcess          0042c800 f   LIBCMTD:crt0dat.obj
 0001:0002b850       __lockexit                 0042c850 f   LIBCMTD:crt0dat.obj
 0001:0002b860       __unlockexit               0042c860 f   LIBCMTD:crt0dat.obj
 0001:0002b8e0       __close                    0042c8e0 f   LIBCMTD:close.obj
 0001:0002b9d0       __close_lk                 0042c9d0 f   LIBCMTD:close.obj
 0001:0002ba80       __freebuf                  0042ca80 f   LIBCMTD:_freebuf.obj
 0001:0002bb10       _fflush                    0042cb10 f   LIBCMTD:fflush.obj
 0001:0002bba0       __fflush_lk                0042cba0 f   LIBCMTD:fflush.obj
 0001:0002bbe0       __flush                    0042cbe0 f   LIBCMTD:fflush.obj
 0001:0002bca0       __flushall                 0042cca0 f   LIBCMTD:fflush.obj
 0001:0002be40       __filbuf                   0042ce40 f   LIBCMTD:_filbuf.obj
 0001:0002c010       __read                     0042d010 f   LIBCMTD:read.obj
 0001:0002c120       __read_lk                  0042d120 f   LIBCMTD:read.obj
 0001:0002c560       __openfile                 0042d560 f   LIBCMTD:_open.obj
 0001:0002c8f0       __dosmaperr                0042d8f0 f   LIBCMTD:dosmap.obj
 0001:0002c990       __errno                    0042d990 f   LIBCMTD:dosmap.obj
 0001:0002c9a0       ___doserrno                0042d9a0 f   LIBCMTD:dosmap.obj
 0001:0002c9b0       __getstream                0042d9b0 f   LIBCMTD:stream.obj
 0001:0002cbe0       __write                    0042dbe0 f   LIBCMTD:write.obj
 0001:0002ccf0       __write_lk                 0042dcf0 f   LIBCMTD:write.obj
 0001:0002cfe0       ?__CxxUnhandledExceptionFilter@@YGJPAU_EXCEPTION_POINTERS@@@Z 0042dfe0 f   LIBCMTD:unhandld.obj
 0001:0002d050       ?__CxxSetUnhandledExceptionFilter@@YAHXZ 0042e050 f   LIBCMTD:unhandld.obj
 0001:0002d070       ?__CxxRestoreUnhandledExceptionFilter@@YAXXZ 0042e070 f   LIBCMTD:unhandld.obj
 0001:0002d090       __trandisp1                0042e090 f   LIBCMTD:87disp.obj
 0001:0002d0f7       __trandisp2                0042e0f7 f   LIBCMTD:87disp.obj
 0001:0002d183       __rttospopde               0042e183     LIBCMTD:87disp.obj
 0001:0002d188       __rttospop                 0042e188     LIBCMTD:87disp.obj
 0001:0002d18a       __rtnospop                 0042e18a     LIBCMTD:87disp.obj
 0001:0002d18c       __rttosnpop                0042e18c     LIBCMTD:87disp.obj
 0001:0002d18d       __rtnospopde               0042e18d     LIBCMTD:87disp.obj
 0001:0002d194       __rtzeropop                0042e194     LIBCMTD:87disp.obj
 0001:0002d196       __rtzeronpop               0042e196     LIBCMTD:87disp.obj
 0001:0002d19b       __rtonepop                 0042e19b     LIBCMTD:87disp.obj
 0001:0002d19d       __rtonenpop                0042e19d     LIBCMTD:87disp.obj
 0001:0002d1a2       __tosnan1                  0042e1a2     LIBCMTD:87disp.obj
 0001:0002d1cd       __nosnan2                  0042e1cd     LIBCMTD:87disp.obj
 0001:0002d1cf       __tosnan2                  0042e1cf     LIBCMTD:87disp.obj
 0001:0002d1f7       __nan2                     0042e1f7     LIBCMTD:87disp.obj
 0001:0002d236       __rtindfpop                0042e236     LIBCMTD:87disp.obj
 0001:0002d238       __rtindfnpop               0042e238     LIBCMTD:87disp.obj
 0001:0002d249       __rttosnpopde              0042e249     LIBCMTD:87disp.obj
 0001:0002d253       __rtchsifneg               0042e253     LIBCMTD:87disp.obj
 0001:0002d260       __startTwoArgErrorHandling 0042e260 f   LIBCMTD:genexcep.obj
 0001:0002d277       __startOneArgErrorHandling 0042e277 f   LIBCMTD:genexcep.obj
 0001:0002d2c0       __twoToTOS                 0042e2c0 f   LIBCMTD:common.obj
 0001:0002d2d5       __load_CW                  0042e2d5 f   LIBCMTD:common.obj
 0001:0002d2ec       __convertTOStoQNaN         0042e2ec f   LIBCMTD:common.obj
 0001:0002d305       __fload_withFB             0042e305 f   LIBCMTD:common.obj
 0001:0002d348       __checkTOS_withFB          0042e348 f   LIBCMTD:common.obj
 0001:0002d35e       __fast_exit                0042e35e f   LIBCMTD:common.obj
 0001:0002d36b       __math_exit                0042e36b f   LIBCMTD:common.obj
 0001:0002d395       __check_overflow_exit      0042e395 f   LIBCMTD:common.obj
 0001:0002d3a9       __check_range_exit         0042e3a9 f   LIBCMTD:common.obj
 0001:0002d450       _ldexp                     0042e450 f   LIBCMTD:ldexp.obj
 0001:0002d720       __set_exp                  0042e720 f   LIBCMTD:util.obj
 0001:0002d760       __get_exp                  0042e760 f   LIBCMTD:util.obj
 0001:0002d790       __add_exp                  0042e790 f   LIBCMTD:util.obj
 0001:0002d7c0       __set_bexp                 0042e7c0 f   LIBCMTD:util.obj
 0001:0002d7f0       __sptype                   0042e7f0 f   LIBCMTD:util.obj
 0001:0002d870       __decomp                   0042e870 f   LIBCMTD:util.obj
 0001:0002d9a0       __handle_qnan1             0042e9a0 f   LIBCMTD:fpexcept.obj
 0001:0002da00       __handle_qnan2             0042ea00 f   LIBCMTD:fpexcept.obj
 0001:0002da70       __except1                  0042ea70 f   LIBCMTD:fpexcept.obj
 0001:0002db70       __except2                  0042eb70 f   LIBCMTD:fpexcept.obj
 0001:0002dc80       __raise_exc                0042ec80 f   LIBCMTD:fpexcept.obj
 0001:0002e130       __handle_exc               0042f130 f   LIBCMTD:fpexcept.obj
 0001:0002e450       __umatherr                 0042f450 f   LIBCMTD:fpexcept.obj
 0001:0002e4f0       __set_errno                0042f4f0 f   LIBCMTD:fpexcept.obj
 0001:0002e570       __errcode                  0042f570 f   LIBCMTD:fpexcept.obj
 0001:0002e5e0       __statfp                   0042f5e0 f   LIBCMTD:fpctrl.obj
 0001:0002e5f0       __clrfp                    0042f5f0 f   LIBCMTD:fpctrl.obj
 0001:0002e610       __ctrlfp                   0042f610 f   LIBCMTD:fpctrl.obj
 0001:0002e640       __set_statfp               0042f640 f   LIBCMTD:fpctrl.obj
 0001:0002e6b0       ?_set_new_handler@@YAP6AHI@ZP6AHI@Z@Z 0042f6b0 f   LIBCMTD:handler.obj
 0001:0002e6e0       ?_query_new_handler@@YAP6AHI@ZXZ 0042f6e0 f   LIBCMTD:handler.obj
 0001:0002e6f0       __callnewh                 0042f6f0 f   LIBCMTD:handler.obj
 0001:0002e720       __malloc_base              0042f720 f   LIBCMTD:malloc.obj
 0001:0002e740       __nh_malloc_base           0042f740 f   LIBCMTD:malloc.obj
 0001:0002e7a0       __heap_alloc_base          0042f7a0 f   LIBCMTD:malloc.obj
 0001:0002e870       __CrtDefaultAllocHook      0042f870 f   LIBCMTD:dbghook.obj
 0001:0002e880       __expand_base              0042f880 f   LIBCMTD:expand.obj
 0001:0002e9a0       __realloc_base             0042f9a0 f   LIBCMTD:realloc.obj
 0001:0002ec50       __heapchk                  0042fc50 f   LIBCMTD:heapchk.obj
 0001:0002ed10       __heapset                  0042fd10 f   LIBCMTD:heapchk.obj
 0001:0002ed20       ___heap_select             0042fd20 f   LIBCMTD:heapinit.obj
 0001:0002ed50       __heap_init                0042fd50 f   LIBCMTD:heapinit.obj
 0001:0002edc0       __heap_term                0042fdc0 f   LIBCMTD:heapinit.obj
 0001:0002ee70       __get_heap_handle          0042fe70 f   LIBCMTD:heapinit.obj
 0001:0002ee80       __get_sbh_threshold        0042fe80 f   LIBCMTD:sbheap.obj
 0001:0002eea0       __set_sbh_threshold        0042fea0 f   LIBCMTD:sbheap.obj
 0001:0002ef10       ___sbh_heap_init           0042ff10 f   LIBCMTD:sbheap.obj
 0001:0002ef80       ___sbh_find_block          0042ff80 f   LIBCMTD:sbheap.obj
 0001:0002efe0       ___sbh_verify_block        0042ffe0 f   LIBCMTD:sbheap.obj
 0001:0002f040       ___sbh_free_block          00430040 f   LIBCMTD:sbheap.obj
 0001:0002f600       ___sbh_alloc_block         00430600 f   LIBCMTD:sbheap.obj
 0001:0002fb20       ___sbh_alloc_new_region    00430b20 f   LIBCMTD:sbheap.obj
 0001:0002fc30       ___sbh_alloc_new_group     00430c30 f   LIBCMTD:sbheap.obj
 0001:0002fe20       ___sbh_resize_block        00430e20 f   LIBCMTD:sbheap.obj
 0001:000303f0       ___sbh_heapmin             004313f0 f   LIBCMTD:sbheap.obj
 0001:00030520       ___sbh_heap_check          00431520 f   LIBCMTD:sbheap.obj
 0001:00030a30       ____setlc_active_func      00431a30 f   LIBCMTD:setlocal.obj
 0001:00030a40       ____unguarded_readlc_active_add_func 00431a40 f   LIBCMTD:setlocal.obj
 0001:00030a50       ___freetlocinfo            00431a50 f   LIBCMTD:setlocal.obj
 0001:00030bd0       ___updatetlocinfo          00431bd0 f   LIBCMTD:setlocal.obj
 0001:00030e10       _setlocale                 00431e10 f   LIBCMTD:setlocal.obj
 0001:000318c0       __expandlocale             004328c0 f   LIBCMTD:setlocal.obj
 0001:00031aa0       ___init_dummy              00432aa0 f   LIBCMTD:setlocal.obj
 0001:00031ab0       __strcats                  00432ab0 f   LIBCMTD:setlocal.obj
 0001:00031b00       ___lc_strtolc              00432b00 f   LIBCMTD:setlocal.obj
 0001:00031c70       ___lc_lctostr              00432c70 f   LIBCMTD:setlocal.obj
 0001:00031ce0       __chvalidator              00432ce0 f   LIBCMTD:isctype.obj
 0001:00031d20       __chvalidator_mt           00432d20 f   LIBCMTD:isctype.obj
 0001:00031d60       __isctype                  00432d60 f   LIBCMTD:isctype.obj
 0001:00031da0       ___isctype_mt              00432da0 f   LIBCMTD:isctype.obj
 0001:00031e60       _strcpy                    00432e60 f   LIBCMTD:strcat.obj
 0001:00031e70       _strcat                    00432e70 f   LIBCMTD:strcat.obj
 0001:00031f60       _abort                     00432f60 f   LIBCMTD:abort.obj
 0001:00031f80       _signal                    00432f80 f   LIBCMTD:winsig.obj
 0001:000322c0       _raise                     004332c0 f   LIBCMTD:winsig.obj
 0001:00032580       ___fpecode                 00433580 f   LIBCMTD:winsig.obj
 0001:00032590       ___pxcptinfoptrs           00433590 f   LIBCMTD:winsig.obj
 0001:000325a0       ___crtMessageBoxA          004335a0 f   LIBCMTD:crtmbox.obj
 0001:00032710       __itoa                     00433710 f   LIBCMTD:xtoa.obj
 0001:00032830       __ltoa                     00433830 f   LIBCMTD:xtoa.obj
 0001:00032870       __ultoa                    00433870 f   LIBCMTD:xtoa.obj
 0001:00032890       __i64toa                   00433890 f   LIBCMTD:xtoa.obj
 0001:000329e0       __ui64toa                  004339e0 f   LIBCMTD:xtoa.obj
 0001:00032a00       _strncat                   00433a00 f   LIBCMTD:strncat.obj
 0001:00032b40       _strncpy                   00433b40 f   LIBCMTD:strncpy.obj
 0001:00032c70       _setvbuf                   00433c70 f   LIBCMTD:setvbuf.obj
 0001:00032e10       __stbuf                    00433e10 f   LIBCMTD:_sftbuf.obj
 0001:00032f60       __ftbuf                    00433f60 f   LIBCMTD:_sftbuf.obj
 0001:00032ff0       __ioinit                   00433ff0 f   LIBCMTD:ioinit.obj
 0001:00033380       __ioterm                   00434380 f   LIBCMTD:ioinit.obj
 0001:00033420       __fcloseall                00434420 f   LIBCMTD:closeall.obj
 0001:00033540       ___sse2_available_init     00434540 f   LIBCMTD:cpu_disp.obj
 0001:000336d0       __set_SSE2_enable          004346d0 f   LIBCMTD:cpu_disp.obj
 0001:000336f0       __CIatan_pentium4          004346f0 f   LIBCMTD:atan_pentium4.obj
 0001:00033708       __atan_pentium4            00434708     LIBCMTD:atan_pentium4.obj
 0001:000339e0       __CIpow_pentium4           004349e0 f   LIBCMTD:pow_pentium4.obj
 0001:000339f9       __pow_pentium4             004349f9     LIBCMTD:pow_pentium4.obj
 0001:00034541       __fFEXP                    00435541     LIBCMTD:87tran.obj
 0001:000345a8       __rtinfpopse               004355a8     LIBCMTD:87tran.obj
 0001:000345aa       __rtinfnpopse              004355aa     LIBCMTD:87tran.obj
 0001:000345ba       __fFLN                     004355ba     LIBCMTD:87tran.obj
 0001:0003466f       __rtinfpop                 0043566f     LIBCMTD:87tran.obj
 0001:00034671       __rtinfnpop                00435671     LIBCMTD:87tran.obj
 0001:0003468e       __ffexpm1                  0043568e     LIBCMTD:87tran.obj
 0001:00034740       __powhlp                   00435740 f   LIBCMTD:powhlp.obj
 0001:00034940       __d_inttype                00435940 f   LIBCMTD:powhlp.obj
 0001:000349d0       ___CppXcptFilter           004359d0 f   LIBCMTD:winxfltr.obj
 0001:00034a00       __XcptFilter               00435a00 f   LIBCMTD:winxfltr.obj
 0001:00034c20       __wincmdln                 00435c20 f   LIBCMTD:wincmdln.obj
 0001:00034cf0       __setenvp                  00435cf0 f   LIBCMTD:stdenvp.obj
 0001:00034e70       __setargv                  00435e70 f   LIBCMTD:stdargv.obj
 0001:000352d0       ___crtGetEnvironmentStringsA 004362d0 f   LIBCMTD:a_env.obj
 0001:000354f0       __RTC_Initialize           004364f0 f   LIBCMTD:initsect.obj
 0001:00035570       __RTC_Terminate            00436570 f   LIBCMTD:initsect.obj
 0001:000355f0       __chkstk                   004365f0 f   LIBCMTD:chkstk.obj
 0001:000355f0       __alloca_probe             004365f0     LIBCMTD:chkstk.obj
 0001:00035630       __FF_MSGBANNER             00436630 f   LIBCMTD:crt0msg.obj
 0001:00035680       __NMSG_WRITE               00436680 f   LIBCMTD:crt0msg.obj
 0001:00035890       __GET_RTERRMSG             00436890 f   LIBCMTD:crt0msg.obj
 0001:000358e0       __ValidateEH3RN            004368e0 f   LIBCMTD:eh3valid.obj
 0001:00035cd0       __statusfp                 00436cd0 f   LIBCMTD:ieee87.obj
 0001:00035cf0       __clearfp                  00436cf0 f   LIBCMTD:ieee87.obj
 0001:00035d10       __control87                00436d10 f   LIBCMTD:ieee87.obj
 0001:00035d60       __controlfp                00436d60 f   LIBCMTD:ieee87.obj
 0001:00035d80       __fpreset                  00436d80 f   LIBCMTD:ieee87.obj
 0001:00036110       _isalpha                   00437110 f   LIBCMTD:_ctype.obj
 0001:00036180       _isupper                   00437180 f   LIBCMTD:_ctype.obj
 0001:000361e0       _islower                   004371e0 f   LIBCMTD:_ctype.obj
 0001:00036240       _isdigit                   00437240 f   LIBCMTD:_ctype.obj
 0001:000362a0       _isxdigit                  004372a0 f   LIBCMTD:_ctype.obj
 0001:00036310       _isspace                   00437310 f   LIBCMTD:_ctype.obj
 0001:00036370       _ispunct                   00437370 f   LIBCMTD:_ctype.obj
 0001:000363d0       _isalnum                   004373d0 f   LIBCMTD:_ctype.obj
 0001:00036440       _isprint                   00437440 f   LIBCMTD:_ctype.obj
 0001:000364b0       _isgraph                   004374b0 f   LIBCMTD:_ctype.obj
 0001:00036520       _iscntrl                   00437520 f   LIBCMTD:_ctype.obj
 0001:00036580       ___isascii                 00437580 f   LIBCMTD:_ctype.obj
 0001:00036590       ___toascii                 00437590 f   LIBCMTD:_ctype.obj
 0001:000365a0       ___iscsymf                 004375a0 f   LIBCMTD:_ctype.obj
 0001:000365e0       ___iscsym                  004375e0 f   LIBCMTD:_ctype.obj
 0001:00036620       __tolower                  00437620 f   LIBCMTD:tolower.obj
 0001:00036630       _tolower                   00437630 f   LIBCMTD:tolower.obj
 0001:00036670       ___tolower_mt              00437670 f   LIBCMTD:tolower.obj
 0001:000367b0       __ZeroTail                 004377b0 f   LIBCMTD:intrncvt.obj
 0001:00036840       __IncMan                   00437840 f   LIBCMTD:intrncvt.obj
 0001:000368f0       __RoundMan                 004378f0 f   LIBCMTD:intrncvt.obj
 0001:000369d0       __CopyMan                  004379d0 f   LIBCMTD:intrncvt.obj
 0001:00036a20       __FillZeroMan              00437a20 f   LIBCMTD:intrncvt.obj
 0001:00036a50       __IsZeroMan                00437a50 f   LIBCMTD:intrncvt.obj
 0001:00036a90       __ShrMan                   00437a90 f   LIBCMTD:intrncvt.obj
 0001:00036b80       __ld12cvt                  00437b80 f   LIBCMTD:intrncvt.obj
 0001:00036dc0       __ld12tod                  00437dc0 f   LIBCMTD:intrncvt.obj
 0001:00036de0       __ld12tof                  00437de0 f   LIBCMTD:intrncvt.obj
 0001:00036e00       __ld12told                 00437e00 f   LIBCMTD:intrncvt.obj
 0001:00036eb0       __atodbl                   00437eb0 f   LIBCMTD:intrncvt.obj
 0001:00036f00       __atoldbl                  00437f00 f   LIBCMTD:intrncvt.obj
 0001:00036f50       __atoflt                   00437f50 f   LIBCMTD:intrncvt.obj
 0001:00036fa0       __fptostr                  00437fa0 f   LIBCMTD:_fptostr.obj
 0001:000370a0       __fltout2                  004380a0 f   LIBCMTD:cfout.obj
 0001:00037130       ___dtold                   00438130 f   LIBCMTD:cfout.obj
 0001:00037280       __fptrap                   00438280 f   LIBCMTD:crt0fp.obj
 0001:00037290       ?_ValidateRead@@YAHPBXI@Z  00438290 f   LIBCMTD:validate.obj
 0001:000372c0       ?_ValidateWrite@@YAHPAXI@Z 004382c0 f   LIBCMTD:validate.obj
 0001:000372f0       ?_ValidateExecute@@YAHP6GHXZ@Z 004382f0 f   LIBCMTD:validate.obj
 0001:00037320       ___updatetmbcinfo          00438320 f   LIBCMTD:mbctype.obj
 0001:000373f0       __setmbcp                  004383f0 f   LIBCMTD:mbctype.obj
 0001:00037d30       __getmbcp                  00438d30 f   LIBCMTD:mbctype.obj
 0001:00037d50       ___initmbctable            00438d50 f   LIBCMTD:mbctype.obj
 0001:00037d80       ___crtInitCritSecAndSpinCount 00438d80 f   LIBCMTD:initcrit.obj
 0001:00037ea0       __lseek                    00438ea0 f   LIBCMTD:lseek.obj
 0001:00037fb0       __lseek_lk                 00438fb0 f   LIBCMTD:lseek.obj
 0001:00038070       __getbuf                   00439070 f   LIBCMTD:_getbuf.obj
 0001:00038130       __isatty                   00439130 f   LIBCMTD:isatty.obj
 0001:00038170       _wctomb                    00439170 f   LIBCMTD:wctomb.obj
 0001:000381b0       ___wctomb_mt               004391b0 f   LIBCMTD:wctomb.obj
 0001:00038250       ___pwctype_func            00439250 f   LIBCMTD:ctype.obj
 0001:00038260       ___pctype_func             00439260 f   LIBCMTD:ctype.obj
 0001:00038270       __aulldiv                  00439270 f   LIBCMTD:ulldiv.obj
 0001:000382e0       __aullrem                  004392e0 f   LIBCMTD:ullrem.obj
 0001:00038360       __snprintf                 00439360 f   LIBCMTD:snprintf.obj
 0001:00038450       __vsnprintf                00439450 f   LIBCMTD:vsnprint.obj
 0001:00038520       __alloc_osfhnd             00439520 f   LIBCMTD:osfinfo.obj
 0001:000387a0       __set_osfhnd               004397a0 f   LIBCMTD:osfinfo.obj
 0001:00038860       __free_osfhnd              00439860 f   LIBCMTD:osfinfo.obj
 0001:00038940       __get_osfhandle            00439940 f   LIBCMTD:osfinfo.obj
 0001:000389b0       __open_osfhandle           004399b0 f   LIBCMTD:osfinfo.obj
 0001:00038b00       __lock_fhandle             00439b00 f   LIBCMTD:osfinfo.obj
 0001:00038bf0       __unlock_fhandle           00439bf0 f   LIBCMTD:osfinfo.obj
 0001:00038c20       __commit                   00439c20 f   LIBCMTD:commit.obj
 0001:00038d30       __open                     00439d30 f   LIBCMTD:open.obj
 0001:00038de0       __sopen                    00439de0 f   LIBCMTD:open.obj
 0001:00039390       __lseeki64                 0043a390 f   LIBCMTD:lseeki64.obj
 0001:000394b0       __lseeki64_lk              0043a4b0 f   LIBCMTD:lseeki64.obj
 0001:00039580       __87except                 0043a580 f   LIBCMTD:87except.obj
 0001:00039730       __matherr                  0043a730 f   LIBCMTD:matherr.obj
 0001:00039740       __Getdays                  0043a740 f   LIBCMTD:strftime.obj
 0001:00039870       __Getmonths                0043a870 f   LIBCMTD:strftime.obj
 0001:000399a0       __Gettnames                0043a9a0 f   LIBCMTD:strftime.obj
 0001:00039d30       _strftime                  0043ad30 f   LIBCMTD:strftime.obj
 0001:00039d50       __Strftime                 0043ad50 f   LIBCMTD:strftime.obj
 0001:00039da0       __Strftime_mt              0043ada0 f   LIBCMTD:strftime.obj
 0001:0003afc0       _localeconv                0043bfc0 f   LIBCMTD:lconv.obj
 0001:0003afd0       ___init_time               0043bfd0 f   LIBCMTD:inittime.obj
 0001:0003b5e0       ___free_lc_time            0043c5e0 f   LIBCMTD:inittime.obj
 0001:0003b8f0       ___init_numeric            0043c8f0 f   LIBCMTD:initnum.obj
 0001:0003bc30       ___free_lconv_num          0043cc30 f   LIBCMTD:initnum.obj
 0001:0003bcd0       ___init_monetary           0043ccd0 f   LIBCMTD:initmon.obj
 0001:0003c0d0       ___free_lconv_mon          0043d0d0 f   LIBCMTD:initmon.obj
 0001:0003c230       ___init_ctype              0043d230 f   LIBCMTD:initctyp.obj
 0001:0003c4f0       ____mb_cur_max_func        0043d4f0 f   LIBCMTD:initctyp.obj
 0001:0003c500       ____lc_codepage_func       0043d500 f   LIBCMTD:initctyp.obj
 0001:0003c530       ____lc_collate_cp_func     0043d530 f   LIBCMTD:initctyp.obj
 0001:0003c560       ____lc_handle_func         0043d560 f   LIBCMTD:initctyp.obj
 0001:0003c590       ___init_collate            0043d590 f   LIBCMTD:initcoll.obj
 0001:0003c5a0       _strcspn                   0043d5a0 f   LIBCMTD:strcspn.obj
 0001:0003c5f0       _strncmp                   0043d5f0 f   LIBCMTD:strncmp.obj
 0001:0003c630       _strpbrk                   0043d630 f   LIBCMTD:strpbrk.obj
 0001:0003c670       ___crtGetStringTypeA       0043d670 f   LIBCMTD:a_str.obj
 0001:0003c910       ___get_qualified_locale    0043d910 f   LIBCMTD:getqloc.obj
 0001:0003d740       ___libm_error_support      0043e740 f   LIBCMTD:libm_error.obj
 0001:0003e150       _fdiv_main_routine         0043f150 f   LIBCMTD:adj_fdiv.obj
 0001:0003e267       __adj_fdiv_r               0043f267 f   LIBCMTD:adj_fdiv.obj
 0001:0003e706       __fdivp_sti_st             0043f706 f   LIBCMTD:adj_fdiv.obj
 0001:0003e719       __fdivrp_sti_st            0043f719 f   LIBCMTD:adj_fdiv.obj
 0001:0003e72c       __adj_fdiv_m32             0043f72c f   LIBCMTD:adj_fdiv.obj
 0001:0003e778       __adj_fdiv_m64             0043f778 f   LIBCMTD:adj_fdiv.obj
 0001:0003e7c4       __adj_fdiv_m16i            0043f7c4 f   LIBCMTD:adj_fdiv.obj
 0001:0003e7f8       __adj_fdiv_m32i            0043f7f8 f   LIBCMTD:adj_fdiv.obj
 0001:0003e82c       __adj_fdivr_m32            0043f82c f   LIBCMTD:adj_fdiv.obj
 0001:0003e878       __adj_fdivr_m64            0043f878 f   LIBCMTD:adj_fdiv.obj
 0001:0003e8c4       __adj_fdivr_m16i           0043f8c4 f   LIBCMTD:adj_fdiv.obj
 0001:0003e8f8       __adj_fdivr_m32i           0043f8f8 f   LIBCMTD:adj_fdiv.obj
 0001:0003e92c       __safe_fdiv                0043f92c f   LIBCMTD:adj_fdiv.obj
 0001:0003e941       __safe_fdivr               0043f941 f   LIBCMTD:adj_fdiv.obj
 0001:0003e956       __fprem_common             0043f956 f   LIBCMTD:adj_fdiv.obj
 0001:0003eb5c       __adj_fprem                0043fb5c f   LIBCMTD:adj_fdiv.obj
 0001:0003ec0e       __fprem1_common            0043fc0e f   LIBCMTD:adj_fdiv.obj
 0001:0003ee14       __adj_fprem1               0043fe14 f   LIBCMTD:adj_fdiv.obj
 0001:0003eec9       __safe_fprem               0043fec9 f   LIBCMTD:adj_fdiv.obj
 0001:0003eecf       __safe_fprem1              0043fecf f   LIBCMTD:adj_fdiv.obj
 0001:0003eed5       __adj_fpatan               0043fed5 f   LIBCMTD:adj_fdiv.obj
 0001:0003eed8       __adj_fptan                0043fed8 f   LIBCMTD:adj_fdiv.obj
 0001:0003eee0       __frnd                     0043fee0 f   LIBCMTD:frnd.obj
 0001:0003ef00       __ismbbkalnum              0043ff00 f   LIBCMTD:ismbbyte.obj
 0001:0003ef20       __ismbbkprint              0043ff20 f   LIBCMTD:ismbbyte.obj
 0001:0003ef40       __ismbbkpunct              0043ff40 f   LIBCMTD:ismbbyte.obj
 0001:0003ef60       __ismbbalnum               0043ff60 f   LIBCMTD:ismbbyte.obj
 0001:0003ef80       __ismbbalpha               0043ff80 f   LIBCMTD:ismbbyte.obj
 0001:0003efa0       __ismbbgraph               0043ffa0 f   LIBCMTD:ismbbyte.obj
 0001:0003efc0       __ismbbprint               0043ffc0 f   LIBCMTD:ismbbyte.obj
 0001:0003efe0       __ismbbpunct               0043ffe0 f   LIBCMTD:ismbbyte.obj
 0001:0003f000       __ismbblead                00440000 f   LIBCMTD:ismbbyte.obj
 0001:0003f020       __ismbbtrail               00440020 f   LIBCMTD:ismbbyte.obj
 0001:0003f040       __ismbbkana                00440040 f   LIBCMTD:ismbbyte.obj
 0001:0003f0e0       ___crtLCMapStringA         004400e0 f   LIBCMTD:a_map.obj
 0001:0003f6a0       ___addl                    004406a0 f   LIBCMTD:mantold.obj
 0001:0003f6e0       ___add_12                  004406e0 f   LIBCMTD:mantold.obj
 0001:0003f790       ___shl_12                  00440790 f   LIBCMTD:mantold.obj
 0001:0003f7f0       ___shr_12                  004407f0 f   LIBCMTD:mantold.obj
 0001:0003f860       ___mtold12                 00440860 f   LIBCMTD:mantold.obj
 0001:0003f9b0       ___strgtold12              004409b0 f   LIBCMTD:strgtold.obj
 0001:000403b0       ___STRINGTOLD              004413b0 f   LIBCMTD:strgtold.obj
 0001:00040410       _$I10_OUTPUT               00441410 f   LIBCMTD:x10fout.obj
 0001:000408f0       __chsize                   004418f0 f   LIBCMTD:chsize.obj
 0001:000409e0       __chsize_lk                004419e0 f   LIBCMTD:chsize.obj
 0001:00040bc0       ___tzset                   00441bc0 f   LIBCMTD:tzset.obj
 0001:00040c50       __tzset                    00441c50 f   LIBCMTD:tzset.obj
 0001:000410e0       __isindst                  004420e0 f   LIBCMTD:tzset.obj
 0001:000416c0       ___ascii_stricmp           004426c0 f   LIBCMTD:_stricmp.obj
 0001:00041710       __resetstkoflw             00442710 f   LIBCMTD:resetstk.obj
 0001:00041860       ___getlocaleinfo           00442860 f   LIBCMTD:inithelp.obj
 0001:00041ac0       ___ansicp                  00442ac0 f   LIBCMTD:convrtcp.obj
 0001:00041b20       ___convertcp               00442b20 f   LIBCMTD:convrtcp.obj
 0001:00041dc0       __stricmp                  00442dc0 f   LIBCMTD:stricmp.obj
 0001:00041e70       __strnicmp                 00442e70 f   LIBCMTD:strnicmp.obj
 0001:00041f30       _atol                      00442f30 f   LIBCMTD:atox.obj
 0001:00042040       _atoi                      00443040 f   LIBCMTD:atox.obj
 0001:00042060       __atoi64                   00443060 f   LIBCMTD:atox.obj
 0001:000421a0       ___ld12mul                 004431a0 f   LIBCMTD:tenpow.obj
 0001:00042590       ___multtenpow12            00443590 f   LIBCMTD:tenpow.obj
 0001:00042660       __setmode                  00443660 f   LIBCMTD:setmode.obj
 0001:00042750       __setmode_lk               00443750 f   LIBCMTD:setmode.obj
 0001:00042830       _getenv                    00443830 f   LIBCMTD:getenv.obj
 0001:000428a0       __getenv_lk                004438a0 f   LIBCMTD:getenv.obj
 0001:00042970       ___crtGetLocaleInfoW       00443970 f   LIBCMTD:w_loc.obj
 0001:00042b50       ___crtGetLocaleInfoA       00443b50 f   LIBCMTD:a_loc.obj
 0001:00042d40       ___ascii_strnicmp          00443d40 f   LIBCMTD:_strnicm.obj
 0001:00042db0       __allmul                   00443db0 f   LIBCMTD:llmul.obj
 0001:00042df0       __mbsnbicoll               00443df0 f   LIBCMTD:mbsnbico.obj
 0001:00042e60       ___wtomb_environ           00443e60 f   LIBCMTD:wtombenv.obj
 0001:00042f50       ___crtCompareStringA       00443f50 f   LIBCMTD:a_cmp.obj
 0001:00043510       ___crtsetenv               00444510 f   LIBCMTD:setenv.obj
 0001:00043a00       __mbschr                   00444a00 f   LIBCMTD:mbschr.obj
 0001:00043ae0       _strchr                    00444ae0 f   LIBCMTD:strchr.obj
 0001:00043ae6       ___from_strstr_to_strchr   00444ae6     LIBCMTD:strchr.obj
 0001:00043b9e       ?op_new_sc@MemoryManager@Ogre@@AAEPAXII@Z 00444b9e f   OgreMain_d:OgreMain_d.dll
 0001:00043ba4       ?_getProcessID@MemoryManager@Ogre@@AAEIXZ 00444ba4 f   OgreMain_d:OgreMain_d.dll
 0001:00043baa       ?instance@MemoryManager@Ogre@@SAAAV12@XZ 00444baa f   OgreMain_d:OgreMain_d.dll
 0001:00043bb0       ?op_del_sc@MemoryManager@Ogre@@AAEXPAXI@Z 00444bb0 f   OgreMain_d:OgreMain_d.dll
 0001:00043bb6       ?op_del_vc@MemoryManager@Ogre@@AAEXPAXI@Z 00444bb6 f   OgreMain_d:OgreMain_d.dll
 0001:00043bbc       ?getFullDescription@Exception@Ogre@@QBE?AV?$basic_string@DU?$char_traits@D@std@@V?$allocator@D@2@@std@@XZ 00444bbc f   OgreMain_d:OgreMain_d.dll
 0001:00043bc2       ?startRendering@Root@Ogre@@QAEXXZ 00444bc2 f   OgreMain_d:OgreMain_d.dll
 0001:00043bc8       ?getSingleton@TextureManager@Ogre@@SAAAV12@XZ 00444bc8 f   OgreMain_d:OgreMain_d.dll
 0001:00043bce       ??0Root@Ogre@@QAE@ABV?$basic_string@DU?$char_traits@D@std@@V?$allocator@D@2@@std@@00@Z 00444bce f   OgreMain_d:OgreMain_d.dll
 0001:00043bd4       ?initialise@Root@Ogre@@QAEPAVRenderWindow@2@_NABV?$basic_string@DU?$char_traits@D@std@@V?$allocator@D@2@@std@@@Z 00444bd4 f   OgreMain_d:OgreMain_d.dll
 0001:00043bda       ?showConfigDialog@Root@Ogre@@QAE_NXZ 00444bda f   OgreMain_d:OgreMain_d.dll
 0001:00043be0       ?createSceneManager@Root@Ogre@@QAEPAVSceneManager@2@GABV?$basic_string@DU?$char_traits@D@std@@V?$allocator@D@2@@std@@@Z 00444be0 f   OgreMain_d:OgreMain_d.dll
 0001:00043be6       ?lookAt@Camera@Ogre@@QAEXABVVector3@2@@Z 00444be6 f   OgreMain_d:OgreMain_d.dll
 0001:00043bec       ?setPosition@Camera@Ogre@@QAEXABVVector3@2@@Z 00444bec f   OgreMain_d:OgreMain_d.dll
 0001:00043bf2       ??0Vector3@Ogre@@QAE@MMM@Z 00444bf2 f   OgreMain_d:OgreMain_d.dll
 0001:00043bf8       ?addFrameListener@Root@Ogre@@QAEXPAVFrameListener@2@@Z 00444bf8 f   OgreMain_d:OgreMain_d.dll
 0001:00043bfe       ?isKeyEnabled@EventProcessor@Ogre@@UBE_NXZ 00444bfe f   OgreMain_d:OgreMain_d.dll
 0001:00043c04       ?getPositionTargetParent@EventProcessor@Ogre@@UBEPAVPositionTarget@2@XZ 00444c04 f   OgreMain_d:OgreMain_d.dll
 0001:00043c0a       ?getTop@EventProcessor@Ogre@@UBEMXZ 00444c0a f   OgreMain_d:OgreMain_d.dll
 0001:00043c10       ?getLeft@EventProcessor@Ogre@@UBEMXZ 00444c10 f   OgreMain_d:OgreMain_d.dll
 0001:00043c16       ?processEvent@EventProcessor@Ogre@@UAEXPAVInputEvent@2@@Z 00444c16 f   OgreMain_d:OgreMain_d.dll
 0001:00043c1c       ?frameEnded@FrameListener@Ogre@@UAE_NABUFrameEvent@2@@Z 00444c1c f   OgreMain_d:OgreMain_d.dll
 0001:00043c22       ?frameStarted@EventProcessor@Ogre@@UAE_NABUFrameEvent@2@@Z 00444c22 f   OgreMain_d:OgreMain_d.dll
 0001:00043c28       ?keyFocusOut@KeyListener@Ogre@@UAEXPAVKeyEvent@2@@Z 00444c28 f   OgreMain_d:OgreMain_d.dll
 0001:00043c2e       ?keyFocusIn@KeyListener@Ogre@@UAEXPAVKeyEvent@2@@Z 00444c2e f   OgreMain_d:OgreMain_d.dll
 0001:00043c34       ??1KeyListener@Ogre@@UAE@XZ 00444c34 f   OgreMain_d:OgreMain_d.dll
 0001:00043c3a       ??1FrameListener@Ogre@@UAE@XZ 00444c3a f   OgreMain_d:OgreMain_d.dll
 0001:00043c40       ??4Vector3@Ogre@@QAEAAV01@ABV01@@Z 00444c40 f   OgreMain_d:OgreMain_d.dll
 0001:00043c46       ?createInputReader@PlatformManager@Ogre@@QAEPAVInputReader@2@XZ 00444c46 f   OgreMain_d:OgreMain_d.dll
 0001:00043c4c       ?getSingleton@PlatformManager@Ogre@@SAAAV12@XZ 00444c4c f   OgreMain_d:OgreMain_d.dll
 0001:00043c52       ?getInputReader@EventProcessor@Ogre@@QAEPAVInputReader@2@XZ 00444c52 f   OgreMain_d:OgreMain_d.dll
 0001:00043c58       ?addKeyListener@KeyTarget@Ogre@@QAEXPAVKeyListener@2@@Z 00444c58 f   OgreMain_d:OgreMain_d.dll
 0001:00043c5e       ?startProcessingEvents@EventProcessor@Ogre@@QAEX_N@Z 00444c5e f   OgreMain_d:OgreMain_d.dll
 0001:00043c64       ?initialise@EventProcessor@Ogre@@QAEXPAVRenderWindow@2@@Z 00444c64 f   OgreMain_d:OgreMain_d.dll
 0001:00043c6a       ??0EventProcessor@Ogre@@QAE@XZ 00444c6a f   OgreMain_d:OgreMain_d.dll
 0001:00043c70       ?getByName@OverlayManager@Ogre@@QAEPAVOverlay@2@ABV?$basic_string@DU?$char_traits@D@std@@V?$allocator@D@2@@std@@@Z 00444c70 f   OgreMain_d:OgreMain_d.dll
 0001:00043c76       ?getSingleton@OverlayManager@Ogre@@SAAAV12@XZ 00444c76 f   OgreMain_d:OgreMain_d.dll
 0001:00043c7c       ??0Vector3@Ogre@@QAE@XZ    00444c7c f   OgreMain_d:OgreMain_d.dll
 0001:00043c82       ??0KeyListener@Ogre@@QAE@XZ 00444c82 f   OgreMain_d:OgreMain_d.dll
 0001:00043c88       ??0FrameListener@Ogre@@QAE@XZ 00444c88 f   OgreMain_d:OgreMain_d.dll
 0001:00043c8e       ?toString@StringConverter@Ogre@@SA?AV?$basic_string@DU?$char_traits@D@std@@V?$allocator@D@2@@std@@ABVVector3@2@@Z 00444c8e f   OgreMain_d:OgreMain_d.dll
 0001:00043c94       ?getDerivedPosition@Camera@Ogre@@QBEABVVector3@2@XZ 00444c94 f   OgreMain_d:OgreMain_d.dll
 0001:00043c9a       ?toString@StringConverter@Ogre@@SA?AV?$basic_string@DU?$char_traits@D@std@@V?$allocator@D@2@@std@@ABVQuaternion@2@@Z 00444c9a f   OgreMain_d:OgreMain_d.dll
 0001:00043ca0       ?getDerivedOrientation@Camera@Ogre@@QBEABVQuaternion@2@XZ 00444ca0 f   OgreMain_d:OgreMain_d.dll
 0001:00043ca6       ?setPolygonMode@Camera@Ogre@@QAEXW4PolygonMode@2@@Z 00444ca6 f   OgreMain_d:OgreMain_d.dll
 0001:00043cac       ?setDefaultAnisotropy@MaterialManager@Ogre@@QAEXI@Z 00444cac f   OgreMain_d:OgreMain_d.dll
 0001:00043cb2       ?getSingleton@MaterialManager@Ogre@@SAAAV12@XZ 00444cb2 f   OgreMain_d:OgreMain_d.dll
 0001:00043cb8       ?yaw@Camera@Ogre@@QAEXABVRadian@2@@Z 00444cb8 f   OgreMain_d:OgreMain_d.dll
 0001:00043cbe       ?DegreesToRadians@Math@Ogre@@SAMM@Z 00444cbe f   OgreMain_d:OgreMain_d.dll
 0001:00043cc4       ?hide@Overlay@Ogre@@QAEXXZ 00444cc4 f   OgreMain_d:OgreMain_d.dll
 0001:00043cca       ?show@Overlay@Ogre@@QAEXXZ 00444cca f   OgreMain_d:OgreMain_d.dll
 0001:00043cd0       ?moveRelative@Camera@Ogre@@QAEXABVVector3@2@@Z 00444cd0 f   OgreMain_d:OgreMain_d.dll
 0001:00043cd6       ?pitch@Camera@Ogre@@QAEXABVRadian@2@@Z 00444cd6 f   OgreMain_d:OgreMain_d.dll
 0001:00043cdc       ?getDebugText@RenderTarget@Ogre@@QBEABV?$basic_string@DU?$char_traits@D@std@@V?$allocator@D@2@@std@@XZ 00444cdc f   OgreMain_d:OgreMain_d.dll
 0001:00043ce2       ?toString@StringConverter@Ogre@@SA?AV?$basic_string@DU?$char_traits@D@std@@V?$allocator@D@2@@std@@IGDH@Z 00444ce2 f   OgreMain_d:OgreMain_d.dll
 0001:00043ce8       ?toString@StringConverter@Ogre@@SA?AV?$basic_string@DU?$char_traits@D@std@@V?$allocator@D@2@@std@@KGDH@Z 00444ce8 f   OgreMain_d:OgreMain_d.dll
 0001:00043cee       ?toString@StringConverter@Ogre@@SA?AV?$basic_string@DU?$char_traits@D@std@@V?$allocator@D@2@@std@@MGGDH@Z 00444cee f   OgreMain_d:OgreMain_d.dll
 0001:00043cf4       ?getOverlayElement@OverlayManager@Ogre@@QAEPAVOverlayElement@2@ABV?$basic_string@DU?$char_traits@D@std@@V?$allocator@D@2@@std@@_N@Z 00444cf4 f   OgreMain_d:OgreMain_d.dll
 0001:00043cfa       ?getKeyChar@KeyEvent@Ogre@@QAEDXZ 00444cfa f   OgreMain_d:OgreMain_d.dll
 0001:00043d00       ?destroyInputReader@PlatformManager@Ogre@@QAEXPAVInputReader@2@@Z 00444d00 f   OgreMain_d:OgreMain_d.dll
 0001:00043d06       ??1EventProcessor@Ogre@@UAE@XZ 00444d06 f   OgreMain_d:OgreMain_d.dll
 0001:00043d0c       ?getActualHeight@Viewport@Ogre@@QBEHXZ 00444d0c f   OgreMain_d:OgreMain_d.dll
 0001:00043d12       ?getActualWidth@Viewport@Ogre@@QBEHXZ 00444d12 f   OgreMain_d:OgreMain_d.dll
 0001:00043d18       ?setBackgroundColour@Viewport@Ogre@@QAEXABVColourValue@2@@Z 00444d18 f   OgreMain_d:OgreMain_d.dll
 0001:00043d1e       ??0ColourValue@Ogre@@QAE@MMMM@Z 00444d1e f   OgreMain_d:OgreMain_d.dll
 0001:00043d24       ??1ConfigFile@Ogre@@UAE@XZ 00444d24 f   OgreMain_d:OgreMain_d.dll
 0001:00043d2a       ?addResourceLocation@ResourceGroupManager@Ogre@@QAEXABV?$basic_string@DU?$char_traits@D@std@@V?$allocator@D@2@@std@@00_N@Z 00444d2a f   OgreMain_d:OgreMain_d.dll
 0001:00043d30       ?getSingleton@ResourceGroupManager@Ogre@@SAAAV12@XZ 00444d30 f   OgreMain_d:OgreMain_d.dll
 0001:00043d36       ?getSectionIterator@ConfigFile@Ogre@@QAE?AV?$MapIterator@V?$map@V?$basic_string@DU?$char_traits@D@std@@V?$allocator@D@2@@std@@PAV?$multimap@V?$basic_string@DU?$char_traits@D@std@@V?$allocator@D@2@@std@@V12@U?$less@V?$basic_string@DU?$char_traits@D@std@@V?$allocator@D@2@@std@@@2@V?$allocator@U?$pair@$$CBV?$basic_string@DU?$char_traits@D@std@@V?$allocator@D@2@@std@@V12@@std@@@2@@2@U?$less@V?$basic_string@DU?$char_traits@D@std@@V?$allocator@D@2@@std@@@2@V?$allocator@U?$pair@$$CBV?$basic_string@DU?$char_traits@D@std@@V?$allocator@D@2@@std@@PAV?$multimap@V?$basic_string@DU?$char_traits@D@std@@V?$allocator@D@2@@std@@V12@U?$less@V?$basic_string@DU?$char_traits@D@std@@V?$allocator@D@2@@std@@@2@V?$allocator@U?$pair@$$CBV?$basic_string@DU?$char_traits@D@std@@V?$allocator@D@2@@std@@V12@@std@@@2@@2@@std@@@2@@std@@@2@XZ 00444d36 f   OgreMain_d:OgreMain_d.dll
 0001:00043d3c       ?load@ConfigFile@Ogre@@QAEXABV?$basic_string@DU?$char_traits@D@std@@V?$allocator@D@2@@std@@0_N@Z 00444d3c f   OgreMain_d:OgreMain_d.dll
 0001:00043d42       ??0ConfigFile@Ogre@@QAE@XZ 00444d42 f   OgreMain_d:OgreMain_d.dll
 0001:00043d48       ?initialiseAllResourceGroups@ResourceGroupManager@Ogre@@QAEXXZ 00444d48 f   OgreMain_d:OgreMain_d.dll
 0001:00043d4e       ??1Root@Ogre@@QAE@XZ       00444d4e f   OgreMain_d:OgreMain_d.dll
 0001:00043d54       ?setOrientation@Camera@Ogre@@QAEXABVQuaternion@2@@Z 00444d54 f   OgreMain_d:OgreMain_d.dll
 0001:00043d5a       ??0Quaternion@Ogre@@QAE@MMMM@Z 00444d5a f   OgreMain_d:OgreMain_d.dll
 0001:00043d60       ?createLog@LogManager@Ogre@@QAEPAVLog@2@ABV?$basic_string@DU?$char_traits@D@std@@V?$allocator@D@2@@std@@_N11@Z 00444d60 f   OgreMain_d:OgreMain_d.dll
 0001:00043d66       ?getSingleton@LogManager@Ogre@@SAAAV12@XZ 00444d66 f   OgreMain_d:OgreMain_d.dll
 0001:00043d6c       ?mouseDragDropped@MouseListener@Ogre@@UAEXPAVMouseEvent@2@@Z 00444d6c f   OgreMain_d:OgreMain_d.dll
 0001:00043d72       ?mouseDragExited@MouseListener@Ogre@@UAEXPAVMouseEvent@2@@Z 00444d72 f   OgreMain_d:OgreMain_d.dll
 0001:00043d78       ?mouseDragEntered@MouseListener@Ogre@@UAEXPAVMouseEvent@2@@Z 00444d78 f   OgreMain_d:OgreMain_d.dll
 0001:00043d7e       ?mouseDragMoved@MouseMotionListener@Ogre@@UAEXPAVMouseEvent@2@@Z 00444d7e f   OgreMain_d:OgreMain_d.dll
 0001:00043d84       ??1Timer@Ogre@@UAE@XZ      00444d84 f   OgreMain_d:OgreMain_d.dll
 0001:00043d8a       ??1MouseListener@Ogre@@UAE@XZ 00444d8a f   OgreMain_d:OgreMain_d.dll
 0001:00043d90       ??1MouseMotionListener@Ogre@@UAE@XZ 00444d90 f   OgreMain_d:OgreMain_d.dll
 0001:00043d96       ??0Vector3@Ogre@@QAE@ABV01@@Z 00444d96 f   OgreMain_d:OgreMain_d.dll
 0001:00043d9c       ?addMouseMotionListener@MouseMotionTarget@Ogre@@QAEXPAVMouseMotionListener@2@@Z 00444d9c f   OgreMain_d:OgreMain_d.dll
 0001:00043da2       ?addMouseListener@MouseTarget@Ogre@@QAEXPAVMouseListener@2@@Z 00444da2 f   OgreMain_d:OgreMain_d.dll
 0001:00043da8       ?getLog@LogManager@Ogre@@QAEPAVLog@2@ABV?$basic_string@DU?$char_traits@D@std@@V?$allocator@D@2@@std@@@Z 00444da8 f   OgreMain_d:OgreMain_d.dll
 0001:00043dae       ??0Timer@Ogre@@QAE@XZ      00444dae f   OgreMain_d:OgreMain_d.dll
 0001:00043db4       ??0MouseListener@Ogre@@QAE@XZ 00444db4 f   OgreMain_d:OgreMain_d.dll
 0001:00043dba       ??0MouseMotionListener@Ogre@@QAE@XZ 00444dba f   OgreMain_d:OgreMain_d.dll
 0001:00043dc0       ?toString@StringConverter@Ogre@@SA?AV?$basic_string@DU?$char_traits@D@std@@V?$allocator@D@2@@std@@HGDH@Z 00444dc0 f   OgreMain_d:OgreMain_d.dll
 0001:00043dc6       ?Abs@Math@Ogre@@SAMM@Z     00444dc6 f   OgreMain_d:OgreMain_d.dll
 0001:00043dcc       ?op_new_vc@MemoryManager@Ogre@@AAEPAXII@Z 00444dcc f   OgreMain_d:OgreMain_d.dll
 0001:00043dd2       ??4Quaternion@Ogre@@QAEAAV01@ABV01@@Z 00444dd2 f   OgreMain_d:OgreMain_d.dll
 0001:00043dd8       ??0Quaternion@Ogre@@QAE@ABV01@@Z 00444dd8 f   OgreMain_d:OgreMain_d.dll
 0001:00043dde       ?consume@InputEvent@Ogre@@QAEXXZ 00444dde f   OgreMain_d:OgreMain_d.dll
 0001:00043de4       ?getRelX@MouseEvent@Ogre@@QBEMXZ 00444de4 f   OgreMain_d:OgreMain_d.dll
 0001:00043dea       ?getRelY@MouseEvent@Ogre@@QBEMXZ 00444dea f   OgreMain_d:OgreMain_d.dll
 0001:00043df0       ?getButtonID@MouseEvent@Ogre@@QBEHXZ 00444df0 f   OgreMain_d:OgreMain_d.dll
 0001:00043df6       ?getKey@KeyEvent@Ogre@@QAEHXZ 00444df6 f   OgreMain_d:OgreMain_d.dll
 0001:00043dfc       ?setOwner@MemoryManager@Ogre@@QAEXPBDI0@Z 00444dfc f   OgreMain_d:OgreMain_d.dll
 0001:00043e02       ?getCreator@SceneNode@Ogre@@QBEPAVSceneManager@2@XZ 00444e02 f   OgreMain_d:OgreMain_d.dll
 0001:00043e08       ??9Vector3@Ogre@@QBE_NABV01@@Z 00444e08 f   OgreMain_d:OgreMain_d.dll
 0001:00043e0e       ??GVector3@Ogre@@QBE?AV01@ABV01@@Z 00444e0e f   OgreMain_d:OgreMain_d.dll
 0001:00043e14       ?getName@Node@Ogre@@QBEABV?$basic_string@DU?$char_traits@D@std@@V?$allocator@D@2@@std@@XZ 00444e14 f   OgreMain_d:OgreMain_d.dll
 0001:00043e1a       ?setPosition@Camera@Ogre@@QAEXMMM@Z 00444e1a f   OgreMain_d:OgreMain_d.dll
 0001:00043e20       ??KVector3@Ogre@@QBE?AV01@M@Z 00444e20 f   OgreMain_d:OgreMain_d.dll
 0001:00043e26       ?FromAngleAxis@Quaternion@Ogre@@QAEXABVRadian@2@ABVVector3@2@@Z 00444e26 f   OgreMain_d:OgreMain_d.dll
 0001:00043e2c       ?setAmbientLight@SceneManager@Ogre@@QAEXABVColourValue@2@@Z 00444e2c f   OgreMain_d:OgreMain_d.dll
 0001:00043e32       ?logMessage@Log@Ogre@@QAEXABV?$basic_string@DU?$char_traits@D@std@@V?$allocator@D@2@@std@@W4LogMessageLevel@2@_N@Z 00444e32 f   OgreMain_d:OgreMain_d.dll
 0001:00043e38       ?createResourceProvider@OgreCEGUIRenderer@CEGUI@@UAEPAVResourceProvider@2@XZ 00444e38 f   OgreGUIRenderer_d:OgreGUIRenderer_d.dll
 0001:00043e3e       ?getVertScreenDPI@OgreCEGUIRenderer@CEGUI@@UBEIXZ 00444e3e f   OgreGUIRenderer_d:OgreGUIRenderer_d.dll
 0001:00043e44       ?getHorzScreenDPI@OgreCEGUIRenderer@CEGUI@@UBEIXZ 00444e44 f   OgreGUIRenderer_d:OgreGUIRenderer_d.dll
 0001:00043e4a       ?getMaxTextureSize@OgreCEGUIRenderer@CEGUI@@UBEIXZ 00444e4a f   OgreGUIRenderer_d:OgreGUIRenderer_d.dll
 0001:00043e50       ?getRect@OgreCEGUIRenderer@CEGUI@@UBE?AVRect@2@XZ 00444e50 f   OgreGUIRenderer_d:OgreGUIRenderer_d.dll
 0001:00043e56       ?getSize@OgreCEGUIRenderer@CEGUI@@UBE?AVSize@2@XZ 00444e56 f   OgreGUIRenderer_d:OgreGUIRenderer_d.dll
 0001:00043e5c       ?getHeight@OgreCEGUIRenderer@CEGUI@@UBEMXZ 00444e5c f   OgreGUIRenderer_d:OgreGUIRenderer_d.dll
 0001:00043e62       ?getWidth@OgreCEGUIRenderer@CEGUI@@UBEMXZ 00444e62 f   OgreGUIRenderer_d:OgreGUIRenderer_d.dll
 0001:00043e68       ?isQueueingEnabled@OgreCEGUIRenderer@CEGUI@@UBE_NXZ 00444e68 f   OgreGUIRenderer_d:OgreGUIRenderer_d.dll
 0001:00043e6e       ?destroyAllTextures@OgreCEGUIRenderer@CEGUI@@UAEXXZ 00444e6e f   OgreGUIRenderer_d:OgreGUIRenderer_d.dll
 0001:00043e74       ?destroyTexture@OgreCEGUIRenderer@CEGUI@@UAEXPAVTexture@2@@Z 00444e74 f   OgreGUIRenderer_d:OgreGUIRenderer_d.dll
 0001:00043e7a       ?createTexture@OgreCEGUIRenderer@CEGUI@@UAEPAVTexture@2@XZ 00444e7a f   OgreGUIRenderer_d:OgreGUIRenderer_d.dll
 0001:00043e80       ?createTexture@OgreCEGUIRenderer@CEGUI@@UAEPAVTexture@2@ABVString@2@0@Z 00444e80 f   OgreGUIRenderer_d:OgreGUIRenderer_d.dll
 0001:00043e86       ?createTexture@OgreCEGUIRenderer@CEGUI@@UAEPAVTexture@2@M@Z 00444e86 f   OgreGUIRenderer_d:OgreGUIRenderer_d.dll
 0001:00043e8c       ?setQueueingEnabled@OgreCEGUIRenderer@CEGUI@@UAEX_N@Z 00444e8c f   OgreGUIRenderer_d:OgreGUIRenderer_d.dll
 0001:00043e92       ?clearRenderList@OgreCEGUIRenderer@CEGUI@@UAEXXZ 00444e92 f   OgreGUIRenderer_d:OgreGUIRenderer_d.dll
 0001:00043e98       ?doRender@OgreCEGUIRenderer@CEGUI@@UAEXXZ 00444e98 f   OgreGUIRenderer_d:OgreGUIRenderer_d.dll
 0001:00043e9e       ?addQuad@OgreCEGUIRenderer@CEGUI@@UAEXABVRect@2@MPBVTexture@2@0ABVColourRect@2@W4QuadSplitMode@2@@Z 00444e9e f   OgreGUIRenderer_d:OgreGUIRenderer_d.dll
 0001:00043ea4       ??0OgreCEGUIRenderer@CEGUI@@QAE@PAVRenderWindow@Ogre@@E_NIPAVSceneManager@3@@Z 00444ea4 f   OgreGUIRenderer_d:OgreGUIRenderer_d.dll
 0001:00043eaa       ??1OgreCEGUIRenderer@CEGUI@@UAE@XZ 00444eaa f   OgreGUIRenderer_d:OgreGUIRenderer_d.dll
 0001:00043eb0       ?fireEvent@EventSet@CEGUI@@UAEXABVString@2@AAVEventArgs@2@0@Z 00444eb0 f   CEGUIBase_d:CEGUIBase_d.dll
 0001:00043eb6       ?subscribeScriptedEvent@EventSet@CEGUI@@UAE?AV?$RefPtr@VConnectionInterface@Event@CEGUI@@@2@ABVString@2@0@Z 00444eb6 f   CEGUIBase_d:CEGUIBase_d.dll
 0001:00043ebc       ?subscribeScriptedEvent@EventSet@CEGUI@@UAE?AV?$RefPtr@VConnectionInterface@Event@CEGUI@@@2@ABVString@2@H0@Z 00444ebc f   CEGUIBase_d:CEGUIBase_d.dll
 0001:00043ec2       ?subscribeEvent@EventSet@CEGUI@@UAE?AV?$RefPtr@VConnectionInterface@Event@CEGUI@@@2@ABVString@2@V?$SubscriberTemplate@_NABVEventArgs@CEGUI@@@2@@Z 00444ec2 f   CEGUIBase_d:CEGUIBase_d.dll
 0001:00043ec8       ?subscribeEvent@EventSet@CEGUI@@UAE?AV?$RefPtr@VConnectionInterface@Event@CEGUI@@@2@ABVString@2@HV?$SubscriberTemplate@_NABVEventArgs@CEGUI@@@2@@Z 00444ec8 f   CEGUIBase_d:CEGUIBase_d.dll
 0001:00043ece       ?setDefaultFont@System@CEGUI@@QAEXABVString@2@@Z 00444ece f   CEGUIBase_d:CEGUIBase_d.dll
 0001:00043ed4       ?setDefaultMouseCursor@System@CEGUI@@QAEXABVString@2@0@Z 00444ed4 f   CEGUIBase_d:CEGUIBase_d.dll
 0001:00043eda       ??1String@CEGUI@@QAE@XZ    00444eda f   CEGUIBase_d:CEGUIBase_d.dll
 0001:00043ee0       ?loadScheme@SchemeManager@CEGUI@@QAEPAVScheme@2@ABVString@2@0@Z 00444ee0 f   CEGUIBase_d:CEGUIBase_d.dll
 0001:00043ee6       ?getSingleton@SchemeManager@CEGUI@@SAAAV12@XZ 00444ee6 f   CEGUIBase_d:CEGUIBase_d.dll
 0001:00043eec       ??0String@CEGUI@@QAE@PBE@Z 00444eec f   CEGUIBase_d:CEGUIBase_d.dll
 0001:00043ef2       ??0String@CEGUI@@QAE@PBD@Z 00444ef2 f   CEGUIBase_d:CEGUIBase_d.dll
 0001:00043ef8       ?setLoggingLevel@Logger@CEGUI@@QAEXW4LoggingLevel@2@@Z 00444ef8 f   CEGUIBase_d:CEGUIBase_d.dll
 0001:00043efe       ?getSingleton@Logger@CEGUI@@SAAAV12@XZ 00444efe f   CEGUIBase_d:CEGUIBase_d.dll
 0001:00043f04       ??0System@CEGUI@@QAE@PAVRenderer@1@PBE@Z 00444f04 f   CEGUIBase_d:CEGUIBase_d.dll
 0001:00043f0a       ??0String@CEGUI@@QAE@XZ    00444f0a f   CEGUIBase_d:CEGUIBase_d.dll
 0001:00043f10       ?setGUISheet@System@CEGUI@@QAEPAVWindow@2@PAV32@@Z 00444f10 f   CEGUIBase_d:CEGUIBase_d.dll
 0001:00043f16       ?loadWindowLayout@WindowManager@CEGUI@@QAEPAVWindow@2@ABVString@2@00P6A_NPAV32@AAV42@2PAX@Z3@Z 00444f16 f   CEGUIBase_d:CEGUIBase_d.dll
 0001:00043f1c       ?getSingleton@WindowManager@CEGUI@@SAAAV12@XZ 00444f1c f   CEGUIBase_d:CEGUIBase_d.dll
 0001:00043f22       ?destroyWindow@WindowManager@CEGUI@@QAEXPAVWindow@2@@Z 00444f22 f   CEGUIBase_d:CEGUIBase_d.dll
 0001:00043f28       ?getWindow@WindowManager@CEGUI@@QBEPAVWindow@2@ABVString@2@@Z 00444f28 f   CEGUIBase_d:CEGUIBase_d.dll
 0001:00043f2e       ??4String@CEGUI@@QAEAAV01@ABV01@@Z 00444f2e f   CEGUIBase_d:CEGUIBase_d.dll
 0001:00043f34       ?getText@Window@CEGUI@@QBEABVString@2@XZ 00444f34 f   CEGUIBase_d:CEGUIBase_d.dll
 0001:00043f3a       ?hide@Window@CEGUI@@QAEXXZ 00444f3a f   CEGUIBase_d:CEGUIBase_d.dll
 0001:00043f40       ??0String@CEGUI@@QAE@ABV?$basic_string@DU?$char_traits@D@std@@V?$allocator@D@2@@std@@@Z 00444f40 f   CEGUIBase_d:CEGUIBase_d.dll
 0001:00043f46       ?setText@Window@CEGUI@@QAEXABVString@2@@Z 00444f46 f   CEGUIBase_d:CEGUIBase_d.dll
 0001:00043f4c       ?setImage@StaticImage@CEGUI@@QAEXPBVImage@2@@Z 00444f4c f   CEGUIBase_d:CEGUIBase_d.dll
 0001:00043f52       ?getImage@Imageset@CEGUI@@QBEABVImage@2@ABVString@2@@Z 00444f52 f   CEGUIBase_d:CEGUIBase_d.dll
 0001:00043f58       ?setPosition@Window@CEGUI@@QAEXABVVector2@2@@Z 00444f58 f   CEGUIBase_d:CEGUIBase_d.dll
 0001:00043f5e       ??0Vector2@CEGUI@@QAE@MM@Z 00444f5e f   CEGUIBase_d:CEGUIBase_d.dll
 0001:00043f64       ?getImageset@ImagesetManager@CEGUI@@QBEPAVImageset@2@ABVString@2@@Z 00444f64 f   CEGUIBase_d:CEGUIBase_d.dll
 0001:00043f6a       ?getSingleton@ImagesetManager@CEGUI@@SAAAV12@XZ 00444f6a f   CEGUIBase_d:CEGUIBase_d.dll
 0001:00043f70       ?c_str@String@CEGUI@@QBEPBDXZ 00444f70 f   CEGUIBase_d:CEGUIBase_d.dll
 0001:00043f76       ?length@String@CEGUI@@QBEIXZ 00444f76 f   CEGUIBase_d:CEGUIBase_d.dll
 0001:00043f7c       ??4String@CEGUI@@QAEAAV01@PBD@Z 00444f7c f   CEGUIBase_d:CEGUIBase_d.dll
 0001:00043f82       ??8CEGUI@@YA_NABVString@0@PBD@Z 00444f82 f   CEGUIBase_d:CEGUIBase_d.dll
 0001:00043f88       ?injectMouseMove@System@CEGUI@@QAE_NMM@Z 00444f88 f   CEGUIBase_d:CEGUIBase_d.dll
 0001:00043f8e       ?getSingleton@System@CEGUI@@SAAAV12@XZ 00444f8e f   CEGUIBase_d:CEGUIBase_d.dll
 0001:00043f94       ?injectMouseButtonDown@System@CEGUI@@QAE_NW4MouseButton@2@@Z 00444f94 f   CEGUIBase_d:CEGUIBase_d.dll
 0001:00043f9a       ?injectMouseButtonUp@System@CEGUI@@QAE_NW4MouseButton@2@@Z 00444f9a f   CEGUIBase_d:CEGUIBase_d.dll
 0001:00043fa0       ?injectChar@System@CEGUI@@QAE_NI@Z 00444fa0 f   CEGUIBase_d:CEGUIBase_d.dll
 0001:00043fa6       ?injectKeyDown@System@CEGUI@@QAE_NI@Z 00444fa6 f   CEGUIBase_d:CEGUIBase_d.dll
 0001:00043fac       ?show@Window@CEGUI@@QAEXXZ 00444fac f   CEGUIBase_d:CEGUIBase_d.dll
 0001:00043fb2       ?injectKeyUp@System@CEGUI@@QAE_NI@Z 00444fb2 f   CEGUIBase_d:CEGUIBase_d.dll
 0001:00043fb8       ??1System@CEGUI@@UAE@XZ    00444fb8 f   CEGUIBase_d:CEGUIBase_d.dll
 0001:00043fbe       ?release@Referenced@CEGUI@@QBEXXZ 00444fbe f   CEGUIBase_d:CEGUIBase_d.dll
 0001:00043fc4       _NxCreatePhysicsSDK        00444fc4 f   PhysXLoader:PhysXLoader.dll
 0001:00043fca       _NxCookConvexMesh          00444fca f   NxCooking:NxCooking.dll
 0001:00043fd0       _NxInitCooking             00444fd0 f   NxCooking:NxCooking.dll
 0001:00043fd6       _NxCookTriangleMesh        00444fd6 f   NxCooking:NxCooking.dll
 0001:00043fe0       ??0UserStream@@QAE@PBD_N@Z 00444fe0 f   SampleCommonCodeDEBUG:Stream.obj
 0001:00044040       ??0NxStream@@QAE@XZ        00445040 f i SampleCommonCodeDEBUG:Stream.obj
 0001:00044060       ??_GNxStream@@UAEPAXI@Z    00445060 f i SampleCommonCodeDEBUG:Stream.obj
 0001:00044060       ??_ENxStream@@UAEPAXI@Z    00445060 f i SampleCommonCodeDEBUG:Stream.obj
 0001:00044090       ??1NxStream@@UAE@XZ        00445090 f i SampleCommonCodeDEBUG:Stream.obj
 0001:000440b0       ??_GUserStream@@UAEPAXI@Z  004450b0 f i SampleCommonCodeDEBUG:Stream.obj
 0001:000440b0       ??_EUserStream@@UAEPAXI@Z  004450b0 f i SampleCommonCodeDEBUG:Stream.obj
 0001:000440e0       ??1UserStream@@UAE@XZ      004450e0 f   SampleCommonCodeDEBUG:Stream.obj
 0001:00044120       ?readByte@UserStream@@UBEEXZ 00445120 f   SampleCommonCodeDEBUG:Stream.obj
 0001:00044170       ?readWord@UserStream@@UBEGXZ 00445170 f   SampleCommonCodeDEBUG:Stream.obj
 0001:000441c0       ?readDword@UserStream@@UBEIXZ 004451c0 f   SampleCommonCodeDEBUG:Stream.obj
 0001:00044210       ?readFloat@UserStream@@UBEMXZ 00445210 f   SampleCommonCodeDEBUG:Stream.obj
 0001:00044260       ?readDouble@UserStream@@UBENXZ 00445260 f   SampleCommonCodeDEBUG:Stream.obj
 0001:000442b0       ?readBuffer@UserStream@@UBEXPAXI@Z 004452b0 f   SampleCommonCodeDEBUG:Stream.obj
 0001:00044300       ?storeByte@UserStream@@UAEAAVNxStream@@E@Z 00445300 f   SampleCommonCodeDEBUG:Stream.obj
 0001:00044350       ?storeWord@UserStream@@UAEAAVNxStream@@G@Z 00445350 f   SampleCommonCodeDEBUG:Stream.obj
 0001:000443a0       ?storeDword@UserStream@@UAEAAVNxStream@@I@Z 004453a0 f   SampleCommonCodeDEBUG:Stream.obj
 0001:000443f0       ?storeFloat@UserStream@@UAEAAVNxStream@@M@Z 004453f0 f   SampleCommonCodeDEBUG:Stream.obj
 0001:00044440       ?storeDouble@UserStream@@UAEAAVNxStream@@N@Z 00445440 f   SampleCommonCodeDEBUG:Stream.obj
 0001:00044490       ?storeBuffer@UserStream@@UAEAAVNxStream@@PBXI@Z 00445490 f   SampleCommonCodeDEBUG:Stream.obj
 0001:000444e0       ??0MemoryWriteBuffer@@QAE@XZ 004454e0 f   SampleCommonCodeDEBUG:Stream.obj
 0001:00044520       ?readByte@MemoryWriteBuffer@@UBEEXZ 00445520 f i SampleCommonCodeDEBUG:Stream.obj
 0001:00044550       ?readWord@MemoryWriteBuffer@@UBEGXZ 00445550 f i SampleCommonCodeDEBUG:Stream.obj
 0001:00044580       ?readDword@MemoryWriteBuffer@@UBEIXZ 00445580 f i SampleCommonCodeDEBUG:Stream.obj
 0001:000445b0       ?readFloat@MemoryWriteBuffer@@UBEMXZ 004455b0 f i SampleCommonCodeDEBUG:Stream.obj
 0001:000445e0       ?readDouble@MemoryWriteBuffer@@UBENXZ 004455e0 f i SampleCommonCodeDEBUG:Stream.obj
 0001:00044610       ?readBuffer@MemoryWriteBuffer@@UBEXPAXI@Z 00445610 f i SampleCommonCodeDEBUG:Stream.obj
 0001:00044640       ??_GMemoryWriteBuffer@@UAEPAXI@Z 00445640 f i SampleCommonCodeDEBUG:Stream.obj
 0001:00044640       ??_EMemoryWriteBuffer@@UAEPAXI@Z 00445640 f i SampleCommonCodeDEBUG:Stream.obj
 0001:00044670       ??1MemoryWriteBuffer@@UAE@XZ 00445670 f   SampleCommonCodeDEBUG:Stream.obj
 0001:000446f0       ?clear@MemoryWriteBuffer@@QAEXXZ 004456f0 f   SampleCommonCodeDEBUG:Stream.obj
 0001:00044710       ?storeByte@MemoryWriteBuffer@@UAEAAVNxStream@@E@Z 00445710 f   SampleCommonCodeDEBUG:Stream.obj
 0001:00044740       ?storeWord@MemoryWriteBuffer@@UAEAAVNxStream@@G@Z 00445740 f   SampleCommonCodeDEBUG:Stream.obj
 0001:00044770       ?storeDword@MemoryWriteBuffer@@UAEAAVNxStream@@I@Z 00445770 f   SampleCommonCodeDEBUG:Stream.obj
 0001:000447a0       ?storeFloat@MemoryWriteBuffer@@UAEAAVNxStream@@M@Z 004457a0 f   SampleCommonCodeDEBUG:Stream.obj
 0001:000447d0       ?storeDouble@MemoryWriteBuffer@@UAEAAVNxStream@@N@Z 004457d0 f   SampleCommonCodeDEBUG:Stream.obj
 0001:00044800       ?storeBuffer@MemoryWriteBuffer@@UAEAAVNxStream@@PBXI@Z 00445800 f   SampleCommonCodeDEBUG:Stream.obj
 0001:000448f0       ??0MemoryReadBuffer@@QAE@PBE@Z 004458f0 f   SampleCommonCodeDEBUG:Stream.obj
 0001:00044920       ?storeByte@MemoryReadBuffer@@UAEAAVNxStream@@E@Z 00445920 f i SampleCommonCodeDEBUG:Stream.obj
 0001:00044950       ?storeWord@MemoryReadBuffer@@UAEAAVNxStream@@G@Z 00445950 f i SampleCommonCodeDEBUG:Stream.obj
 0001:00044980       ?storeDword@MemoryReadBuffer@@UAEAAVNxStream@@I@Z 00445980 f i SampleCommonCodeDEBUG:Stream.obj
 0001:000449b0       ?storeFloat@MemoryReadBuffer@@UAEAAVNxStream@@M@Z 004459b0 f i SampleCommonCodeDEBUG:Stream.obj
 0001:000449e0       ?storeDouble@MemoryReadBuffer@@UAEAAVNxStream@@N@Z 004459e0 f i SampleCommonCodeDEBUG:Stream.obj
 0001:00044a10       ?storeBuffer@MemoryReadBuffer@@UAEAAVNxStream@@PBXI@Z 00445a10 f i SampleCommonCodeDEBUG:Stream.obj
 0001:00044a40       ??_EMemoryReadBuffer@@UAEPAXI@Z 00445a40 f i SampleCommonCodeDEBUG:Stream.obj
 0001:00044a40       ??_GMemoryReadBuffer@@UAEPAXI@Z 00445a40 f i SampleCommonCodeDEBUG:Stream.obj
 0001:00044a70       ??1MemoryReadBuffer@@UAE@XZ 00445a70 f   SampleCommonCodeDEBUG:Stream.obj
 0001:00044a90       ?readByte@MemoryReadBuffer@@UBEEXZ 00445a90 f   SampleCommonCodeDEBUG:Stream.obj
 0001:00044ac0       ?readWord@MemoryReadBuffer@@UBEGXZ 00445ac0 f   SampleCommonCodeDEBUG:Stream.obj
 0001:00044af0       ?readDword@MemoryReadBuffer@@UBEIXZ 00445af0 f   SampleCommonCodeDEBUG:Stream.obj
 0001:00044b20       ?readFloat@MemoryReadBuffer@@UBEMXZ 00445b20 f   SampleCommonCodeDEBUG:Stream.obj
 0001:00044b50       ?readDouble@MemoryReadBuffer@@UBENXZ 00445b50 f   SampleCommonCodeDEBUG:Stream.obj
 0001:00044b80       ?readBuffer@MemoryReadBuffer@@UBEXPAXI@Z 00445b80 f   SampleCommonCodeDEBUG:Stream.obj
 0001:00044bba       _mmioClose@8               00445bba f   winmm:WINMM.dll
 0001:00044bc0       _mmioOpenA@12              00445bc0 f   winmm:WINMM.dll
 0001:00044bc6       _mmioAscend@12             00445bc6 f   winmm:WINMM.dll
 0001:00044bcc       _mmioRead@12               00445bcc f   winmm:WINMM.dll
 0001:00044bd2       _mmioDescend@16            00445bd2 f   winmm:WINMM.dll
 0001:00044bd8       _mmioGetInfo@12            00445bd8 f   winmm:WINMM.dll
 0001:00044bde       _mmioCreateChunk@12        00445bde f   winmm:WINMM.dll
 0001:00044be4       _mmioSeek@12               00445be4 f   winmm:WINMM.dll
 0001:00044bea       _mmioSetInfo@12            00445bea f   winmm:WINMM.dll
 0001:00044bf0       _mmioAdvance@12            00445bf0 f   winmm:WINMM.dll
 0001:00044bf6       _mmioWrite@12              00445bf6 f   winmm:WINMM.dll
 0001:00044bfc       _DirectSoundCreate8@12     00445bfc f   dsound:DSOUND.dll
 0001:00044c10       ?_Xlen@_String_base@std@@QBEXXZ 00445c10 f   libcpmtd:string.obj
 0001:00044c70       ?_Xran@_String_base@std@@QBEXXZ 00445c70 f   libcpmtd:string.obj
 0001:00044cca       _ExitProcess@4             00445cca f   kernel32:KERNEL32.dll
 0001:00044cd0       _RtlUnwind@16              00445cd0 f   kernel32:KERNEL32.dll
 0001:00044cd6       _RaiseException@16         00445cd6 f   kernel32:KERNEL32.dll
 0001:00044cdc       _IsBadWritePtr@8           00445cdc f   kernel32:KERNEL32.dll
 0001:00044ce2       _IsBadReadPtr@8            00445ce2 f   kernel32:KERNEL32.dll
 0001:00044ce8       _HeapValidate@12           00445ce8 f   kernel32:KERNEL32.dll
 0001:00044cee       _GetModuleFileNameA@12     00445cee f   kernel32:KERNEL32.dll
 0001:00044cf4       _EnterCriticalSection@4    00445cf4 f   kernel32:KERNEL32.dll
 0001:00044cfa       _LeaveCriticalSection@4    00445cfa f   kernel32:KERNEL32.dll
 0001:00044d00       _GetStartupInfoA@4         00445d00 f   kernel32:KERNEL32.dll
 0001:00044d06       _GetCommandLineA@0         00445d06 f   kernel32:KERNEL32.dll
 0001:00044d0c       _GetVersionExA@4           00445d0c f   kernel32:KERNEL32.dll
 0001:00044d12       _QueryPerformanceCounter@4 00445d12 f   kernel32:KERNEL32.dll
 0001:00044d18       _GetTickCount@0            00445d18 f   kernel32:KERNEL32.dll
 0001:00044d1e       _GetCurrentThreadId@0      00445d1e f   kernel32:KERNEL32.dll
 0001:00044d24       _GetCurrentProcessId@0     00445d24 f   kernel32:KERNEL32.dll
 0001:00044d2a       _GetSystemTimeAsFileTime@4 00445d2a f   kernel32:KERNEL32.dll
 0001:00044d30       _GetProcAddress@8          00445d30 f   kernel32:KERNEL32.dll
 0001:00044d36       _TlsAlloc@0                00445d36 f   kernel32:KERNEL32.dll
 0001:00044d3c       _TlsFree@4                 00445d3c f   kernel32:KERNEL32.dll
 0001:00044d42       _TlsSetValue@8             00445d42 f   kernel32:KERNEL32.dll
 0001:00044d48       _TlsGetValue@4             00445d48 f   kernel32:KERNEL32.dll
 0001:00044d4e       _SetLastError@4            00445d4e f   kernel32:KERNEL32.dll
 0001:00044d54       _GetLastError@0            00445d54 f   kernel32:KERNEL32.dll
 0001:00044d5a       _GetCurrentThread@0        00445d5a f   kernel32:KERNEL32.dll
 0001:00044d60       _DeleteCriticalSection@4   00445d60 f   kernel32:KERNEL32.dll
 0001:00044d66       _FatalAppExitA@8           00445d66 f   kernel32:KERNEL32.dll
 0001:00044d6c       _HeapFree@12               00445d6c f   kernel32:KERNEL32.dll
 0001:00044d72       _DebugBreak@0              00445d72 f   kernel32:KERNEL32.dll
 0001:00044d78       _GetStdHandle@4            00445d78 f   kernel32:KERNEL32.dll
 0001:00044d7e       _WriteFile@20              00445d7e f   kernel32:KERNEL32.dll
 0001:00044d84       _InterlockedDecrement@4    00445d84 f   kernel32:KERNEL32.dll
 0001:00044d8a       _OutputDebugStringA@4      00445d8a f   kernel32:KERNEL32.dll
 0001:00044d90       _LoadLibraryA@4            00445d90 f   kernel32:KERNEL32.dll
 0001:00044d96       _InterlockedIncrement@4    00445d96 f   kernel32:KERNEL32.dll
 0001:00044d9c       _TerminateProcess@8        00445d9c f   kernel32:KERNEL32.dll
 0001:00044da2       _GetCurrentProcess@0       00445da2 f   kernel32:KERNEL32.dll
 0001:00044da8       _ReadFile@20               00445da8 f   kernel32:KERNEL32.dll
 0001:00044dae       _SetUnhandledExceptionFilter@4 00445dae f   kernel32:KERNEL32.dll
 0001:00044db4       _HeapAlloc@12              00445db4 f   kernel32:KERNEL32.dll
 0001:00044dba       _HeapReAlloc@16            00445dba f   kernel32:KERNEL32.dll
 0001:00044dc0       _HeapDestroy@4             00445dc0 f   kernel32:KERNEL32.dll
 0001:00044dc6       _HeapCreate@12             00445dc6 f   kernel32:KERNEL32.dll
 0001:00044dcc       _VirtualFree@12            00445dcc f   kernel32:KERNEL32.dll
 0001:00044dd2       _VirtualAlloc@16           00445dd2 f   kernel32:KERNEL32.dll
 0001:00044dd8       _SetConsoleCtrlHandler@8   00445dd8 f   kernel32:KERNEL32.dll
 0001:00044dde       _SetHandleCount@4          00445dde f   kernel32:KERNEL32.dll
 0001:00044de4       _GetFileType@4             00445de4 f   kernel32:KERNEL32.dll
 0001:00044dea       _UnhandledExceptionFilter@4 00445dea f   kernel32:KERNEL32.dll
 0001:00044df0       _FreeEnvironmentStringsA@4 00445df0 f   kernel32:KERNEL32.dll
 0001:00044df6       _GetEnvironmentStrings@0   00445df6 f   kernel32:KERNEL32.dll
 0001:00044dfc       _FreeEnvironmentStringsW@4 00445dfc f   kernel32:KERNEL32.dll
 0001:00044e02       _WideCharToMultiByte@32    00445e02 f   kernel32:KERNEL32.dll
 0001:00044e08       _GetEnvironmentStringsW@0  00445e08 f   kernel32:KERNEL32.dll
 0001:00044e0e       _VirtualQuery@12           00445e0e f   kernel32:KERNEL32.dll
 0001:00044e14       _InterlockedExchange@8     00445e14 f   kernel32:KERNEL32.dll
 0001:00044e1a       _IsBadCodePtr@4            00445e1a f   kernel32:KERNEL32.dll
 0001:00044e20       _GetACP@0                  00445e20 f   kernel32:KERNEL32.dll
 0001:00044e26       _GetOEMCP@0                00445e26 f   kernel32:KERNEL32.dll
 0001:00044e2c       _GetCPInfo@8               00445e2c f   kernel32:KERNEL32.dll
 0001:00044e32       _InitializeCriticalSection@4 00445e32 f   kernel32:KERNEL32.dll
 0001:00044e38       _SetFilePointer@16         00445e38 f   kernel32:KERNEL32.dll
 0001:00044e3e       _SetStdHandle@8            00445e3e f   kernel32:KERNEL32.dll
 0001:00044e44       _FlushFileBuffers@4        00445e44 f   kernel32:KERNEL32.dll
 0001:00044e4a       _GetTimeFormatA@24         00445e4a f   kernel32:KERNEL32.dll
 0001:00044e50       _GetDateFormatA@24         00445e50 f   kernel32:KERNEL32.dll
 0001:00044e56       _MultiByteToWideChar@24    00445e56 f   kernel32:KERNEL32.dll
 0001:00044e5c       _GetStringTypeA@20         00445e5c f   kernel32:KERNEL32.dll
 0001:00044e62       _GetStringTypeW@16         00445e62 f   kernel32:KERNEL32.dll
 0001:00044e68       _IsValidLocale@8           00445e68 f   kernel32:KERNEL32.dll
 0001:00044e6e       _IsValidCodePage@4         00445e6e f   kernel32:KERNEL32.dll
 0001:00044e74       _GetLocaleInfoA@16         00445e74 f   kernel32:KERNEL32.dll
 0001:00044e7a       _EnumSystemLocalesA@8      00445e7a f   kernel32:KERNEL32.dll
 0001:00044e80       _GetUserDefaultLCID@0      00445e80 f   kernel32:KERNEL32.dll
 0001:00044e86       _LCMapStringA@24           00445e86 f   kernel32:KERNEL32.dll
 0001:00044e8c       _LCMapStringW@24           00445e8c f   kernel32:KERNEL32.dll
 0001:00044e92       _SetEndOfFile@4            00445e92 f   kernel32:KERNEL32.dll
 0001:00044e98       _GetTimeZoneInformation@4  00445e98 f   kernel32:KERNEL32.dll
 0001:00044e9e       _VirtualProtect@16         00445e9e f   kernel32:KERNEL32.dll
 0001:00044ea4       _GetSystemInfo@4           00445ea4 f   kernel32:KERNEL32.dll
 0001:00044eaa       _GetLocaleInfoW@16         00445eaa f   kernel32:KERNEL32.dll
 0001:00044eb0       _CompareStringA@24         00445eb0 f   kernel32:KERNEL32.dll
 0001:00044eb6       _CompareStringW@24         00445eb6 f   kernel32:KERNEL32.dll
 0001:00044ebc       _SetEnvironmentVariableA@8 00445ebc f   kernel32:KERNEL32.dll
 0001:000467a0       ?tris@?1??updateStats@ExampleFrameListener@@IAEXXZ@$AV?$basic_string@DU?$char_traits@D@std@@V?$allocator@D@2@@std@@A 004477a0 f i CuteCar.obj
 0001:000467b0       ?worstFps@?1??updateStats@ExampleFrameListener@@IAEXXZ@$AV?$basic_string@DU?$char_traits@D@std@@V?$allocator@D@2@@std@@A 004477b0 f i CuteCar.obj
 0001:000467c0       ?bestFps@?1??updateStats@ExampleFrameListener@@IAEXXZ@$AV?$basic_string@DU?$char_traits@D@std@@V?$allocator@D@2@@std@@A 004477c0 f i CuteCar.obj
 0001:000467d0       ?avgFps@?1??updateStats@ExampleFrameListener@@IAEXXZ@$AV?$basic_string@DU?$char_traits@D@std@@V?$allocator@D@2@@std@@A 004477d0 f i CuteCar.obj
 0001:000467e0       ?currFps@?1??updateStats@ExampleFrameListener@@IAEXXZ@$AV?$basic_string@DU?$char_traits@D@std@@V?$allocator@D@2@@std@@A 004477e0 f i CuteCar.obj
 0002:00000000       __imp_?fireEvent@EventSet@CEGUI@@UAEXABVString@2@AAVEventArgs@2@0@Z 00448000     CEGUIBase_d:CEGUIBase_d.dll
 0002:00000004       __imp_?subscribeScriptedEvent@EventSet@CEGUI@@UAE?AV?$RefPtr@VConnectionInterface@Event@CEGUI@@@2@ABVString@2@H0@Z 00448004     CEGUIBase_d:CEGUIBase_d.dll
 0002:00000008       __imp_?subscribeEvent@EventSet@CEGUI@@UAE?AV?$RefPtr@VConnectionInterface@Event@CEGUI@@@2@ABVString@2@V?$SubscriberTemplate@_NABVEventArgs@CEGUI@@@2@@Z 00448008     CEGUIBase_d:CEGUIBase_d.dll
 0002:0000000c       __imp_?subscribeEvent@EventSet@CEGUI@@UAE?AV?$RefPtr@VConnectionInterface@Event@CEGUI@@@2@ABVString@2@HV?$SubscriberTemplate@_NABVEventArgs@CEGUI@@@2@@Z 0044800c     CEGUIBase_d:CEGUIBase_d.dll
 0002:00000010       __imp_?setDefaultFont@System@CEGUI@@QAEXABVString@2@@Z 00448010     CEGUIBase_d:CEGUIBase_d.dll
 0002:00000014       __imp_?setDefaultMouseCursor@System@CEGUI@@QAEXABVString@2@0@Z 00448014     CEGUIBase_d:CEGUIBase_d.dll
 0002:00000018       __imp_??1String@CEGUI@@QAE@XZ 00448018     CEGUIBase_d:CEGUIBase_d.dll
 0002:0000001c       __imp_?loadScheme@SchemeManager@CEGUI@@QAEPAVScheme@2@ABVString@2@0@Z 0044801c     CEGUIBase_d:CEGUIBase_d.dll
 0002:00000020       __imp_?getSingleton@SchemeManager@CEGUI@@SAAAV12@XZ 00448020     CEGUIBase_d:CEGUIBase_d.dll
 0002:00000024       __imp_??0String@CEGUI@@QAE@PBE@Z 00448024     CEGUIBase_d:CEGUIBase_d.dll
 0002:00000028       __imp_??0String@CEGUI@@QAE@PBD@Z 00448028     CEGUIBase_d:CEGUIBase_d.dll
 0002:0000002c       __imp_?setLoggingLevel@Logger@CEGUI@@QAEXW4LoggingLevel@2@@Z 0044802c     CEGUIBase_d:CEGUIBase_d.dll
 0002:00000030       __imp_?getSingleton@Logger@CEGUI@@SAAAV12@XZ 00448030     CEGUIBase_d:CEGUIBase_d.dll
 0002:00000034       __imp_??0System@CEGUI@@QAE@PAVRenderer@1@PBE@Z 00448034     CEGUIBase_d:CEGUIBase_d.dll
 0002:00000038       __imp_??0String@CEGUI@@QAE@XZ 00448038     CEGUIBase_d:CEGUIBase_d.dll
 0002:0000003c       __imp_?setGUISheet@System@CEGUI@@QAEPAVWindow@2@PAV32@@Z 0044803c     CEGUIBase_d:CEGUIBase_d.dll
 0002:00000040       __imp_?loadWindowLayout@WindowManager@CEGUI@@QAEPAVWindow@2@ABVString@2@00P6A_NPAV32@AAV42@2PAX@Z3@Z 00448040     CEGUIBase_d:CEGUIBase_d.dll
 0002:00000044       __imp_?getSingleton@WindowManager@CEGUI@@SAAAV12@XZ 00448044     CEGUIBase_d:CEGUIBase_d.dll
 0002:00000048       __imp_?destroyWindow@WindowManager@CEGUI@@QAEXPAVWindow@2@@Z 00448048     CEGUIBase_d:CEGUIBase_d.dll
 0002:0000004c       __imp_?EventClicked@PushButton@CEGUI@@2VString@2@B 0044804c     CEGUIBase_d:CEGUIBase_d.dll
 0002:00000050       __imp_?getWindow@WindowManager@CEGUI@@QBEPAVWindow@2@ABVString@2@@Z 00448050     CEGUIBase_d:CEGUIBase_d.dll
 0002:00000054       __imp_??4String@CEGUI@@QAEAAV01@ABV01@@Z 00448054     CEGUIBase_d:CEGUIBase_d.dll
 0002:00000058       __imp_?getText@Window@CEGUI@@QBEABVString@2@XZ 00448058     CEGUIBase_d:CEGUIBase_d.dll
 0002:0000005c       __imp_?hide@Window@CEGUI@@QAEXXZ 0044805c     CEGUIBase_d:CEGUIBase_d.dll
 0002:00000060       __imp_??0String@CEGUI@@QAE@ABV?$basic_string@DU?$char_traits@D@std@@V?$allocator@D@2@@std@@@Z 00448060     CEGUIBase_d:CEGUIBase_d.dll
 0002:00000064       __imp_?setText@Window@CEGUI@@QAEXABVString@2@@Z 00448064     CEGUIBase_d:CEGUIBase_d.dll
 0002:00000068       __imp_?setImage@StaticImage@CEGUI@@QAEXPBVImage@2@@Z 00448068     CEGUIBase_d:CEGUIBase_d.dll
 0002:0000006c       __imp_?getImage@Imageset@CEGUI@@QBEABVImage@2@ABVString@2@@Z 0044806c     CEGUIBase_d:CEGUIBase_d.dll
 0002:00000070       __imp_?setPosition@Window@CEGUI@@QAEXABVVector2@2@@Z 00448070     CEGUIBase_d:CEGUIBase_d.dll
 0002:00000074       __imp_??0Vector2@CEGUI@@QAE@MM@Z 00448074     CEGUIBase_d:CEGUIBase_d.dll
 0002:00000078       __imp_?getImageset@ImagesetManager@CEGUI@@QBEPAVImageset@2@ABVString@2@@Z 00448078     CEGUIBase_d:CEGUIBase_d.dll
 0002:0000007c       __imp_?getSingleton@ImagesetManager@CEGUI@@SAAAV12@XZ 0044807c     CEGUIBase_d:CEGUIBase_d.dll
 0002:00000080       __imp_?c_str@String@CEGUI@@QBEPBDXZ 00448080     CEGUIBase_d:CEGUIBase_d.dll
 0002:00000084       __imp_?length@String@CEGUI@@QBEIXZ 00448084     CEGUIBase_d:CEGUIBase_d.dll
 0002:00000088       __imp_??4String@CEGUI@@QAEAAV01@PBD@Z 00448088     CEGUIBase_d:CEGUIBase_d.dll
 0002:0000008c       __imp_??8CEGUI@@YA_NABVString@0@PBD@Z 0044808c     CEGUIBase_d:CEGUIBase_d.dll
 0002:00000090       __imp_?injectMouseMove@System@CEGUI@@QAE_NMM@Z 00448090     CEGUIBase_d:CEGUIBase_d.dll
 0002:00000094       __imp_?getSingleton@System@CEGUI@@SAAAV12@XZ 00448094     CEGUIBase_d:CEGUIBase_d.dll
 0002:00000098       __imp_?injectMouseButtonDown@System@CEGUI@@QAE_NW4MouseButton@2@@Z 00448098     CEGUIBase_d:CEGUIBase_d.dll
 0002:0000009c       __imp_?injectMouseButtonUp@System@CEGUI@@QAE_NW4MouseButton@2@@Z 0044809c     CEGUIBase_d:CEGUIBase_d.dll
 0002:000000a0       __imp_?injectChar@System@CEGUI@@QAE_NI@Z 004480a0     CEGUIBase_d:CEGUIBase_d.dll
 0002:000000a4       __imp_?injectKeyDown@System@CEGUI@@QAE_NI@Z 004480a4     CEGUIBase_d:CEGUIBase_d.dll
 0002:000000a8       __imp_?show@Window@CEGUI@@QAEXXZ 004480a8     CEGUIBase_d:CEGUIBase_d.dll
 0002:000000ac       __imp_?injectKeyUp@System@CEGUI@@QAE_NI@Z 004480ac     CEGUIBase_d:CEGUIBase_d.dll
 0002:000000b0       __imp_??1System@CEGUI@@UAE@XZ 004480b0     CEGUIBase_d:CEGUIBase_d.dll
 0002:000000b4       __imp_?release@Referenced@CEGUI@@QBEXXZ 004480b4     CEGUIBase_d:CEGUIBase_d.dll
 0002:000000b8       __imp_?subscribeScriptedEvent@EventSet@CEGUI@@UAE?AV?$RefPtr@VConnectionInterface@Event@CEGUI@@@2@ABVString@2@0@Z 004480b8     CEGUIBase_d:CEGUIBase_d.dll
 0002:000000bc       \177CEGUIBase_d_NULL_THUNK_DATA 004480bc     CEGUIBase_d:CEGUIBase_d.dll
 0002:000000c0       __imp__DirectSoundCreate8@12 004480c0     dsound:DSOUND.dll
 0002:000000c4       \177DSOUND_NULL_THUNK_DATA 004480c4     dsound:DSOUND.dll
 0002:000000c8       __imp__HeapCreate@12       004480c8     kernel32:KERNEL32.dll
 0002:000000cc       __imp__HeapDestroy@4       004480cc     kernel32:KERNEL32.dll
 0002:000000d0       __imp__HeapReAlloc@16      004480d0     kernel32:KERNEL32.dll
 0002:000000d4       __imp__HeapAlloc@12        004480d4     kernel32:KERNEL32.dll
 0002:000000d8       __imp__SetUnhandledExceptionFilter@4 004480d8     kernel32:KERNEL32.dll
 0002:000000dc       __imp__ReadFile@20         004480dc     kernel32:KERNEL32.dll
 0002:000000e0       __imp__GetCurrentProcess@0 004480e0     kernel32:KERNEL32.dll
 0002:000000e4       __imp__TerminateProcess@8  004480e4     kernel32:KERNEL32.dll
 0002:000000e8       __imp__InterlockedIncrement@4 004480e8     kernel32:KERNEL32.dll
 0002:000000ec       __imp__LoadLibraryA@4      004480ec     kernel32:KERNEL32.dll
 0002:000000f0       __imp__OutputDebugStringA@4 004480f0     kernel32:KERNEL32.dll
 0002:000000f4       __imp__InterlockedDecrement@4 004480f4     kernel32:KERNEL32.dll
 0002:000000f8       __imp__WriteFile@20        004480f8     kernel32:KERNEL32.dll
 0002:000000fc       __imp__GetStdHandle@4      004480fc     kernel32:KERNEL32.dll
 0002:00000100       __imp__DebugBreak@0        00448100     kernel32:KERNEL32.dll
 0002:00000104       __imp__HeapFree@12         00448104     kernel32:KERNEL32.dll
 0002:00000108       __imp__FatalAppExitA@8     00448108     kernel32:KERNEL32.dll
 0002:0000010c       __imp__DeleteCriticalSection@4 0044810c     kernel32:KERNEL32.dll
 0002:00000110       __imp__GetCurrentThread@0  00448110     kernel32:KERNEL32.dll
 0002:00000114       __imp__GetLastError@0      00448114     kernel32:KERNEL32.dll
 0002:00000118       __imp__SetLastError@4      00448118     kernel32:KERNEL32.dll
 0002:0000011c       __imp__VirtualFree@12      0044811c     kernel32:KERNEL32.dll
 0002:00000120       __imp__TlsSetValue@8       00448120     kernel32:KERNEL32.dll
 0002:00000124       __imp__TlsFree@4           00448124     kernel32:KERNEL32.dll
 0002:00000128       __imp__TlsAlloc@0          00448128     kernel32:KERNEL32.dll
 0002:0000012c       __imp__GetProcAddress@8    0044812c     kernel32:KERNEL32.dll
 0002:00000130       __imp__GetSystemTimeAsFileTime@4 00448130     kernel32:KERNEL32.dll
 0002:00000134       __imp__GetCurrentProcessId@0 00448134     kernel32:KERNEL32.dll
 0002:00000138       __imp__GetCurrentThreadId@0 00448138     kernel32:KERNEL32.dll
 0002:0000013c       __imp__GetTickCount@0      0044813c     kernel32:KERNEL32.dll
 0002:00000140       __imp__QueryPerformanceCounter@4 00448140     kernel32:KERNEL32.dll
 0002:00000144       __imp__GetVersionExA@4     00448144     kernel32:KERNEL32.dll
 0002:00000148       __imp__GetCommandLineA@0   00448148     kernel32:KERNEL32.dll
 0002:0000014c       __imp__GetStartupInfoA@4   0044814c     kernel32:KERNEL32.dll
 0002:00000150       __imp__LeaveCriticalSection@4 00448150     kernel32:KERNEL32.dll
 0002:00000154       __imp__EnterCriticalSection@4 00448154     kernel32:KERNEL32.dll
 0002:00000158       __imp__GetModuleFileNameA@12 00448158     kernel32:KERNEL32.dll
 0002:0000015c       __imp__HeapValidate@12     0044815c     kernel32:KERNEL32.dll
 0002:00000160       __imp__IsBadReadPtr@8      00448160     kernel32:KERNEL32.dll
 0002:00000164       __imp__IsBadWritePtr@8     00448164     kernel32:KERNEL32.dll
 0002:00000168       __imp__RaiseException@16   00448168     kernel32:KERNEL32.dll
 0002:0000016c       __imp__RtlUnwind@16        0044816c     kernel32:KERNEL32.dll
 0002:00000170       __imp__ExitProcess@4       00448170     kernel32:KERNEL32.dll
 0002:00000174       __imp__SetConsoleCtrlHandler@8 00448174     kernel32:KERNEL32.dll
 0002:00000178       __imp__VirtualAlloc@16     00448178     kernel32:KERNEL32.dll
 0002:0000017c       __imp__SetHandleCount@4    0044817c     kernel32:KERNEL32.dll
 0002:00000180       __imp__GetFileType@4       00448180     kernel32:KERNEL32.dll
 0002:00000184       __imp__UnhandledExceptionFilter@4 00448184     kernel32:KERNEL32.dll
 0002:00000188       __imp__FreeEnvironmentStringsA@4 00448188     kernel32:KERNEL32.dll
 0002:0000018c       __imp__GetEnvironmentStrings@0 0044818c     kernel32:KERNEL32.dll
 0002:00000190       __imp__FreeEnvironmentStringsW@4 00448190     kernel32:KERNEL32.dll
 0002:00000194       __imp__WideCharToMultiByte@32 00448194     kernel32:KERNEL32.dll
 0002:00000198       __imp__GetEnvironmentStringsW@0 00448198     kernel32:KERNEL32.dll
 0002:0000019c       __imp__VirtualQuery@12     0044819c     kernel32:KERNEL32.dll
 0002:000001a0       __imp__InterlockedExchange@8 004481a0     kernel32:KERNEL32.dll
 0002:000001a4       __imp__IsBadCodePtr@4      004481a4     kernel32:KERNEL32.dll
 0002:000001a8       __imp__GetACP@0            004481a8     kernel32:KERNEL32.dll
 0002:000001ac       __imp__GetOEMCP@0          004481ac     kernel32:KERNEL32.dll
 0002:000001b0       __imp__GetCPInfo@8         004481b0     kernel32:KERNEL32.dll
 0002:000001b4       __imp__InitializeCriticalSection@4 004481b4     kernel32:KERNEL32.dll
 0002:000001b8       __imp__SetFilePointer@16   004481b8     kernel32:KERNEL32.dll
 0002:000001bc       __imp__SetStdHandle@8      004481bc     kernel32:KERNEL32.dll
 0002:000001c0       __imp__FlushFileBuffers@4  004481c0     kernel32:KERNEL32.dll
 0002:000001c4       __imp__GetTimeFormatA@24   004481c4     kernel32:KERNEL32.dll
 0002:000001c8       __imp__GetDateFormatA@24   004481c8     kernel32:KERNEL32.dll
 0002:000001cc       __imp__MultiByteToWideChar@24 004481cc     kernel32:KERNEL32.dll
 0002:000001d0       __imp__GetStringTypeA@20   004481d0     kernel32:KERNEL32.dll
 0002:000001d4       __imp__GetStringTypeW@16   004481d4     kernel32:KERNEL32.dll
 0002:000001d8       __imp__IsValidLocale@8     004481d8     kernel32:KERNEL32.dll
 0002:000001dc       __imp__IsValidCodePage@4   004481dc     kernel32:KERNEL32.dll
 0002:000001e0       __imp__GetLocaleInfoA@16   004481e0     kernel32:KERNEL32.dll
 0002:000001e4       __imp__EnumSystemLocalesA@8 004481e4     kernel32:KERNEL32.dll
 0002:000001e8       __imp__GetUserDefaultLCID@0 004481e8     kernel32:KERNEL32.dll
 0002:000001ec       __imp__LCMapStringA@24     004481ec     kernel32:KERNEL32.dll
 0002:000001f0       __imp__LCMapStringW@24     004481f0     kernel32:KERNEL32.dll
 0002:000001f4       __imp__SetEndOfFile@4      004481f4     kernel32:KERNEL32.dll
 0002:000001f8       __imp__GetTimeZoneInformation@4 004481f8     kernel32:KERNEL32.dll
 0002:000001fc       __imp__VirtualProtect@16   004481fc     kernel32:KERNEL32.dll
 0002:00000200       __imp__GetSystemInfo@4     00448200     kernel32:KERNEL32.dll
 0002:00000204       __imp__GetLocaleInfoW@16   00448204     kernel32:KERNEL32.dll
 0002:00000208       __imp__CompareStringA@24   00448208     kernel32:KERNEL32.dll
 0002:0000020c       __imp__CompareStringW@24   0044820c     kernel32:KERNEL32.dll
 0002:00000210       __imp__FindResourceA@12    00448210     kernel32:KERNEL32.dll
 0002:00000214       __imp__GetModuleHandleA@4  00448214     kernel32:KERNEL32.dll
 0002:00000218       __imp__LoadResource@8      00448218     kernel32:KERNEL32.dll
 0002:0000021c       __imp__SizeofResource@8    0044821c     kernel32:KERNEL32.dll
 0002:00000220       __imp__LockResource@4      00448220     kernel32:KERNEL32.dll
 0002:00000224       __imp__Sleep@4             00448224     kernel32:KERNEL32.dll
 0002:00000228       __imp__CreateFileA@28      00448228     kernel32:KERNEL32.dll
 0002:0000022c       __imp__GetFileSize@8       0044822c     kernel32:KERNEL32.dll
 0002:00000230       __imp__TlsGetValue@4       00448230     kernel32:KERNEL32.dll
 0002:00000234       __imp__CloseHandle@4       00448234     kernel32:KERNEL32.dll
 0002:00000238       __imp__SetEnvironmentVariableA@8 00448238     kernel32:KERNEL32.dll
 0002:0000023c       \177KERNEL32_NULL_THUNK_DATA 0044823c     kernel32:KERNEL32.dll
 0002:00000240       __imp__NxInitCooking       00448240     NxCooking:NxCooking.dll
 0002:00000244       __imp__NxCookTriangleMesh  00448244     NxCooking:NxCooking.dll
 0002:00000248       __imp__NxCookConvexMesh    00448248     NxCooking:NxCooking.dll
 0002:0000024c       \177NxCooking_NULL_THUNK_DATA 0044824c     NxCooking:NxCooking.dll
 0002:00000250       __imp_??0OgreCEGUIRenderer@CEGUI@@QAE@PAVRenderWindow@Ogre@@E_NIPAVSceneManager@3@@Z 00448250     OgreGUIRenderer_d:OgreGUIRenderer_d.dll
 0002:00000254       __imp_??1OgreCEGUIRenderer@CEGUI@@UAE@XZ 00448254     OgreGUIRenderer_d:OgreGUIRenderer_d.dll
 0002:00000258       __imp_?createTexture@OgreCEGUIRenderer@CEGUI@@UAEPAVTexture@2@ABVString@2@0@Z 00448258     OgreGUIRenderer_d:OgreGUIRenderer_d.dll
 0002:0000025c       __imp_?createTexture@OgreCEGUIRenderer@CEGUI@@UAEPAVTexture@2@XZ 0044825c     OgreGUIRenderer_d:OgreGUIRenderer_d.dll
 0002:00000260       __imp_?destroyTexture@OgreCEGUIRenderer@CEGUI@@UAEXPAVTexture@2@@Z 00448260     OgreGUIRenderer_d:OgreGUIRenderer_d.dll
 0002:00000264       __imp_?destroyAllTextures@OgreCEGUIRenderer@CEGUI@@UAEXXZ 00448264     OgreGUIRenderer_d:OgreGUIRenderer_d.dll
 0002:00000268       __imp_?isQueueingEnabled@OgreCEGUIRenderer@CEGUI@@UBE_NXZ 00448268     OgreGUIRenderer_d:OgreGUIRenderer_d.dll
 0002:0000026c       __imp_?addQuad@OgreCEGUIRenderer@CEGUI@@UAEXABVRect@2@MPBVTexture@2@0ABVColourRect@2@W4QuadSplitMode@2@@Z 0044826c     OgreGUIRenderer_d:OgreGUIRenderer_d.dll
 0002:00000270       __imp_?getHeight@OgreCEGUIRenderer@CEGUI@@UBEMXZ 00448270     OgreGUIRenderer_d:OgreGUIRenderer_d.dll
 0002:00000274       __imp_?getSize@OgreCEGUIRenderer@CEGUI@@UBE?AVSize@2@XZ 00448274     OgreGUIRenderer_d:OgreGUIRenderer_d.dll
 0002:00000278       __imp_?getRect@OgreCEGUIRenderer@CEGUI@@UBE?AVRect@2@XZ 00448278     OgreGUIRenderer_d:OgreGUIRenderer_d.dll
 0002:0000027c       __imp_?getMaxTextureSize@OgreCEGUIRenderer@CEGUI@@UBEIXZ 0044827c     OgreGUIRenderer_d:OgreGUIRenderer_d.dll
 0002:00000280       __imp_?getHorzScreenDPI@OgreCEGUIRenderer@CEGUI@@UBEIXZ 00448280     OgreGUIRenderer_d:OgreGUIRenderer_d.dll
 0002:00000284       __imp_?getVertScreenDPI@OgreCEGUIRenderer@CEGUI@@UBEIXZ 00448284     OgreGUIRenderer_d:OgreGUIRenderer_d.dll
 0002:00000288       __imp_?createResourceProvider@OgreCEGUIRenderer@CEGUI@@UAEPAVResourceProvider@2@XZ 00448288     OgreGUIRenderer_d:OgreGUIRenderer_d.dll
 0002:0000028c       __imp_?createTexture@OgreCEGUIRenderer@CEGUI@@UAEPAVTexture@2@M@Z 0044828c     OgreGUIRenderer_d:OgreGUIRenderer_d.dll
 0002:00000290       __imp_?doRender@OgreCEGUIRenderer@CEGUI@@UAEXXZ 00448290     OgreGUIRenderer_d:OgreGUIRenderer_d.dll
 0002:00000294       __imp_?clearRenderList@OgreCEGUIRenderer@CEGUI@@UAEXXZ 00448294     OgreGUIRenderer_d:OgreGUIRenderer_d.dll
 0002:00000298       __imp_?setQueueingEnabled@OgreCEGUIRenderer@CEGUI@@UAEX_N@Z 00448298     OgreGUIRenderer_d:OgreGUIRenderer_d.dll
 0002:0000029c       __imp_?getWidth@OgreCEGUIRenderer@CEGUI@@UBEMXZ 0044829c     OgreGUIRenderer_d:OgreGUIRenderer_d.dll
 0002:000002a0       \177OgreGUIRenderer_d_NULL_THUNK_DATA 004482a0     OgreGUIRenderer_d:OgreGUIRenderer_d.dll
 0002:000002a4       __imp_?FromAngleAxis@Quaternion@Ogre@@QAEXABVRadian@2@ABVVector3@2@@Z 004482a4     OgreMain_d:OgreMain_d.dll
 0002:000002a8       __imp_??KVector3@Ogre@@QBE?AV01@M@Z 004482a8     OgreMain_d:OgreMain_d.dll
 0002:000002ac       __imp_?setPosition@Camera@Ogre@@QAEXMMM@Z 004482ac     OgreMain_d:OgreMain_d.dll
 0002:000002b0       __imp_?getName@Node@Ogre@@QBEABV?$basic_string@DU?$char_traits@D@std@@V?$allocator@D@2@@std@@XZ 004482b0     OgreMain_d:OgreMain_d.dll
 0002:000002b4       __imp_??GVector3@Ogre@@QBE?AV01@ABV01@@Z 004482b4     OgreMain_d:OgreMain_d.dll
 0002:000002b8       __imp_??9Vector3@Ogre@@QBE_NABV01@@Z 004482b8     OgreMain_d:OgreMain_d.dll
 0002:000002bc       __imp_?getCreator@SceneNode@Ogre@@QBEPAVSceneManager@2@XZ 004482bc     OgreMain_d:OgreMain_d.dll
 0002:000002c0       __imp_?IDENTITY@Quaternion@Ogre@@2V12@B 004482c0     OgreMain_d:OgreMain_d.dll
 0002:000002c4       __imp_?setOwner@MemoryManager@Ogre@@QAEXPBDI0@Z 004482c4     OgreMain_d:OgreMain_d.dll
 0002:000002c8       __imp_?getKey@KeyEvent@Ogre@@QAEHXZ 004482c8     OgreMain_d:OgreMain_d.dll
 0002:000002cc       __imp_?getButtonID@MouseEvent@Ogre@@QBEHXZ 004482cc     OgreMain_d:OgreMain_d.dll
 0002:000002d0       __imp_?getRelY@MouseEvent@Ogre@@QBEMXZ 004482d0     OgreMain_d:OgreMain_d.dll
 0002:000002d4       __imp_?getRelX@MouseEvent@Ogre@@QBEMXZ 004482d4     OgreMain_d:OgreMain_d.dll
 0002:000002d8       __imp_?consume@InputEvent@Ogre@@QAEXXZ 004482d8     OgreMain_d:OgreMain_d.dll
 0002:000002dc       __imp_??0Quaternion@Ogre@@QAE@ABV01@@Z 004482dc     OgreMain_d:OgreMain_d.dll
 0002:000002e0       __imp_??4Quaternion@Ogre@@QAEAAV01@ABV01@@Z 004482e0     OgreMain_d:OgreMain_d.dll
 0002:000002e4       __imp_?op_new_vc@MemoryManager@Ogre@@AAEPAXII@Z 004482e4     OgreMain_d:OgreMain_d.dll
 0002:000002e8       __imp_?Abs@Math@Ogre@@SAMM@Z 004482e8     OgreMain_d:OgreMain_d.dll
 0002:000002ec       __imp_?toString@StringConverter@Ogre@@SA?AV?$basic_string@DU?$char_traits@D@std@@V?$allocator@D@2@@std@@HGDH@Z 004482ec     OgreMain_d:OgreMain_d.dll
 0002:000002f0       __imp_??0MouseMotionListener@Ogre@@QAE@XZ 004482f0     OgreMain_d:OgreMain_d.dll
 0002:000002f4       __imp_??0MouseListener@Ogre@@QAE@XZ 004482f4     OgreMain_d:OgreMain_d.dll
 0002:000002f8       __imp_??0Timer@Ogre@@QAE@XZ 004482f8     OgreMain_d:OgreMain_d.dll
 0002:000002fc       __imp_?getLog@LogManager@Ogre@@QAEPAVLog@2@ABV?$basic_string@DU?$char_traits@D@std@@V?$allocator@D@2@@std@@@Z 004482fc     OgreMain_d:OgreMain_d.dll
 0002:00000300       __imp_?addMouseListener@MouseTarget@Ogre@@QAEXPAVMouseListener@2@@Z 00448300     OgreMain_d:OgreMain_d.dll
 0002:00000304       __imp_?addMouseMotionListener@MouseMotionTarget@Ogre@@QAEXPAVMouseMotionListener@2@@Z 00448304     OgreMain_d:OgreMain_d.dll
 0002:00000308       __imp_??0Vector3@Ogre@@QAE@ABV01@@Z 00448308     OgreMain_d:OgreMain_d.dll
 0002:0000030c       __imp_??1MouseMotionListener@Ogre@@UAE@XZ 0044830c     OgreMain_d:OgreMain_d.dll
 0002:00000310       __imp_??1MouseListener@Ogre@@UAE@XZ 00448310     OgreMain_d:OgreMain_d.dll
 0002:00000314       __imp_??1Timer@Ogre@@UAE@XZ 00448314     OgreMain_d:OgreMain_d.dll
 0002:00000318       __imp_?mouseDragMoved@MouseMotionListener@Ogre@@UAEXPAVMouseEvent@2@@Z 00448318     OgreMain_d:OgreMain_d.dll
 0002:0000031c       __imp_?op_new_sc@MemoryManager@Ogre@@AAEPAXII@Z 0044831c     OgreMain_d:OgreMain_d.dll
 0002:00000320       __imp_?_getProcessID@MemoryManager@Ogre@@AAEIXZ 00448320     OgreMain_d:OgreMain_d.dll
 0002:00000324       __imp_?DEFAULT_RESOURCE_GROUP_NAME@ResourceGroupManager@Ogre@@2V?$basic_string@DU?$char_traits@D@std@@V?$allocator@D@2@@std@@A 00448324     OgreMain_d:OgreMain_d.dll
 0002:00000328       __imp_?setAmbientLight@SceneManager@Ogre@@QAEXABVColourValue@2@@Z 00448328     OgreMain_d:OgreMain_d.dll
 0002:0000032c       __imp_?logMessage@Log@Ogre@@QAEXABV?$basic_string@DU?$char_traits@D@std@@V?$allocator@D@2@@std@@W4LogMessageLevel@2@_N@Z 0044832c     OgreMain_d:OgreMain_d.dll
 0002:00000330       __imp_?PI@Math@Ogre@@2MB   00448330     OgreMain_d:OgreMain_d.dll
 0002:00000334       __imp_?instance@MemoryManager@Ogre@@SAAAV12@XZ 00448334     OgreMain_d:OgreMain_d.dll
 0002:00000338       __imp_?op_del_sc@MemoryManager@Ogre@@AAEXPAXI@Z 00448338     OgreMain_d:OgreMain_d.dll
 0002:0000033c       __imp_?op_del_vc@MemoryManager@Ogre@@AAEXPAXI@Z 0044833c     OgreMain_d:OgreMain_d.dll
 0002:00000340       __imp_?getFullDescription@Exception@Ogre@@QBE?AV?$basic_string@DU?$char_traits@D@std@@V?$allocator@D@2@@std@@XZ 00448340     OgreMain_d:OgreMain_d.dll
 0002:00000344       __imp_?startRendering@Root@Ogre@@QAEXXZ 00448344     OgreMain_d:OgreMain_d.dll
 0002:00000348       __imp_?getSingleton@TextureManager@Ogre@@SAAAV12@XZ 00448348     OgreMain_d:OgreMain_d.dll
 0002:0000034c       __imp_??0Root@Ogre@@QAE@ABV?$basic_string@DU?$char_traits@D@std@@V?$allocator@D@2@@std@@00@Z 0044834c     OgreMain_d:OgreMain_d.dll
 0002:00000350       __imp_?initialise@Root@Ogre@@QAEPAVRenderWindow@2@_NABV?$basic_string@DU?$char_traits@D@std@@V?$allocator@D@2@@std@@@Z 00448350     OgreMain_d:OgreMain_d.dll
 0002:00000354       __imp_?showConfigDialog@Root@Ogre@@QAE_NXZ 00448354     OgreMain_d:OgreMain_d.dll
 0002:00000358       __imp_?createSceneManager@Root@Ogre@@QAEPAVSceneManager@2@GABV?$basic_string@DU?$char_traits@D@std@@V?$allocator@D@2@@std@@@Z 00448358     OgreMain_d:OgreMain_d.dll
 0002:0000035c       __imp_?lookAt@Camera@Ogre@@QAEXABVVector3@2@@Z 0044835c     OgreMain_d:OgreMain_d.dll
 0002:00000360       __imp_?setPosition@Camera@Ogre@@QAEXABVVector3@2@@Z 00448360     OgreMain_d:OgreMain_d.dll
 0002:00000364       __imp_?mouseDragEntered@MouseListener@Ogre@@UAEXPAVMouseEvent@2@@Z 00448364     OgreMain_d:OgreMain_d.dll
 0002:00000368       __imp_?mouseDragExited@MouseListener@Ogre@@UAEXPAVMouseEvent@2@@Z 00448368     OgreMain_d:OgreMain_d.dll
 0002:0000036c       __imp_?mouseDragDropped@MouseListener@Ogre@@UAEXPAVMouseEvent@2@@Z 0044836c     OgreMain_d:OgreMain_d.dll
 0002:00000370       __imp_?getSingleton@LogManager@Ogre@@SAAAV12@XZ 00448370     OgreMain_d:OgreMain_d.dll
 0002:00000374       __imp_?createLog@LogManager@Ogre@@QAEPAVLog@2@ABV?$basic_string@DU?$char_traits@D@std@@V?$allocator@D@2@@std@@_N11@Z 00448374     OgreMain_d:OgreMain_d.dll
 0002:00000378       __imp_??0Quaternion@Ogre@@QAE@MMMM@Z 00448378     OgreMain_d:OgreMain_d.dll
 0002:0000037c       __imp_?BLANK@StringUtil@Ogre@@2V?$basic_string@DU?$char_traits@D@std@@V?$allocator@D@2@@std@@B 0044837c     OgreMain_d:OgreMain_d.dll
 0002:00000380       __imp_??1Root@Ogre@@QAE@XZ 00448380     OgreMain_d:OgreMain_d.dll
 0002:00000384       __imp_?initialiseAllResourceGroups@ResourceGroupManager@Ogre@@QAEXXZ 00448384     OgreMain_d:OgreMain_d.dll
 0002:00000388       __imp_??0ConfigFile@Ogre@@QAE@XZ 00448388     OgreMain_d:OgreMain_d.dll
 0002:0000038c       __imp_?load@ConfigFile@Ogre@@QAEXABV?$basic_string@DU?$char_traits@D@std@@V?$allocator@D@2@@std@@0_N@Z 0044838c     OgreMain_d:OgreMain_d.dll
 0002:00000390       __imp_?getSectionIterator@ConfigFile@Ogre@@QAE?AV?$MapIterator@V?$map@V?$basic_string@DU?$char_traits@D@std@@V?$allocator@D@2@@std@@PAV?$multimap@V?$basic_string@DU?$char_traits@D@std@@V?$allocator@D@2@@std@@V12@U?$less@V?$basic_string@DU?$char_traits@D@std@@V?$allocator@D@2@@std@@@2@V?$allocator@U?$pair@$$CBV?$basic_string@DU?$char_traits@D@std@@V?$allocator@D@2@@std@@V12@@std@@@2@@2@U?$less@V?$basic_string@DU?$char_traits@D@std@@V?$allocator@D@2@@std@@@2@V?$allocator@U?$pair@$$CBV?$basic_string@DU?$char_traits@D@std@@V?$allocator@D@2@@std@@PAV?$multimap@V?$basic_string@DU?$char_traits@D@std@@V?$allocator@D@2@@std@@V12@U?$less@V?$basic_string@DU?$char_traits@D@std@@V?$allocator@D@2@@std@@@2@V?$allocator@U?$pair@$$CBV?$basic_string@DU?$char_traits@D@std@@V?$allocator@D@2@@std@@V12@@std@@@2@@2@@std@@@2@@std@@@2@XZ 00448390     OgreMain_d:OgreMain_d.dll
 0002:00000394       __imp_?getSingleton@ResourceGroupManager@Ogre@@SAAAV12@XZ 00448394     OgreMain_d:OgreMain_d.dll
 0002:00000398       __imp_?addResourceLocation@ResourceGroupManager@Ogre@@QAEXABV?$basic_string@DU?$char_traits@D@std@@V?$allocator@D@2@@std@@00_N@Z 00448398     OgreMain_d:OgreMain_d.dll
 0002:0000039c       __imp_??1ConfigFile@Ogre@@UAE@XZ 0044839c     OgreMain_d:OgreMain_d.dll
 0002:000003a0       __imp_??0ColourValue@Ogre@@QAE@MMMM@Z 004483a0     OgreMain_d:OgreMain_d.dll
 0002:000003a4       __imp_?setBackgroundColour@Viewport@Ogre@@QAEXABVColourValue@2@@Z 004483a4     OgreMain_d:OgreMain_d.dll
 0002:000003a8       __imp_?getActualWidth@Viewport@Ogre@@QBEHXZ 004483a8     OgreMain_d:OgreMain_d.dll
 0002:000003ac       __imp_?getActualHeight@Viewport@Ogre@@QBEHXZ 004483ac     OgreMain_d:OgreMain_d.dll
 0002:000003b0       __imp_??1EventProcessor@Ogre@@UAE@XZ 004483b0     OgreMain_d:OgreMain_d.dll
 0002:000003b4       __imp_?destroyInputReader@PlatformManager@Ogre@@QAEXPAVInputReader@2@@Z 004483b4     OgreMain_d:OgreMain_d.dll
 0002:000003b8       __imp_?getKeyChar@KeyEvent@Ogre@@QAEDXZ 004483b8     OgreMain_d:OgreMain_d.dll
 0002:000003bc       __imp_?getOverlayElement@OverlayManager@Ogre@@QAEPAVOverlayElement@2@ABV?$basic_string@DU?$char_traits@D@std@@V?$allocator@D@2@@std@@_N@Z 004483bc     OgreMain_d:OgreMain_d.dll
 0002:000003c0       __imp_?toString@StringConverter@Ogre@@SA?AV?$basic_string@DU?$char_traits@D@std@@V?$allocator@D@2@@std@@MGGDH@Z 004483c0     OgreMain_d:OgreMain_d.dll
 0002:000003c4       __imp_?toString@StringConverter@Ogre@@SA?AV?$basic_string@DU?$char_traits@D@std@@V?$allocator@D@2@@std@@KGDH@Z 004483c4     OgreMain_d:OgreMain_d.dll
 0002:000003c8       __imp_?toString@StringConverter@Ogre@@SA?AV?$basic_string@DU?$char_traits@D@std@@V?$allocator@D@2@@std@@IGDH@Z 004483c8     OgreMain_d:OgreMain_d.dll
 0002:000003cc       __imp_?getDebugText@RenderTarget@Ogre@@QBEABV?$basic_string@DU?$char_traits@D@std@@V?$allocator@D@2@@std@@XZ 004483cc     OgreMain_d:OgreMain_d.dll
 0002:000003d0       __imp_?pitch@Camera@Ogre@@QAEXABVRadian@2@@Z 004483d0     OgreMain_d:OgreMain_d.dll
 0002:000003d4       __imp_?moveRelative@Camera@Ogre@@QAEXABVVector3@2@@Z 004483d4     OgreMain_d:OgreMain_d.dll
 0002:000003d8       __imp_?show@Overlay@Ogre@@QAEXXZ 004483d8     OgreMain_d:OgreMain_d.dll
 0002:000003dc       __imp_?hide@Overlay@Ogre@@QAEXXZ 004483dc     OgreMain_d:OgreMain_d.dll
 0002:000003e0       __imp_?DegreesToRadians@Math@Ogre@@SAMM@Z 004483e0     OgreMain_d:OgreMain_d.dll
 0002:000003e4       __imp_?yaw@Camera@Ogre@@QAEXABVRadian@2@@Z 004483e4     OgreMain_d:OgreMain_d.dll
 0002:000003e8       __imp_?getSingleton@MaterialManager@Ogre@@SAAAV12@XZ 004483e8     OgreMain_d:OgreMain_d.dll
 0002:000003ec       __imp_?setDefaultAnisotropy@MaterialManager@Ogre@@QAEXI@Z 004483ec     OgreMain_d:OgreMain_d.dll
 0002:000003f0       __imp_?setPolygonMode@Camera@Ogre@@QAEXW4PolygonMode@2@@Z 004483f0     OgreMain_d:OgreMain_d.dll
 0002:000003f4       __imp_?getDerivedOrientation@Camera@Ogre@@QBEABVQuaternion@2@XZ 004483f4     OgreMain_d:OgreMain_d.dll
 0002:000003f8       __imp_?toString@StringConverter@Ogre@@SA?AV?$basic_string@DU?$char_traits@D@std@@V?$allocator@D@2@@std@@ABVQuaternion@2@@Z 004483f8     OgreMain_d:OgreMain_d.dll
 0002:000003fc       __imp_?getDerivedPosition@Camera@Ogre@@QBEABVVector3@2@XZ 004483fc     OgreMain_d:OgreMain_d.dll
 0002:00000400       __imp_?toString@StringConverter@Ogre@@SA?AV?$basic_string@DU?$char_traits@D@std@@V?$allocator@D@2@@std@@ABVVector3@2@@Z 00448400     OgreMain_d:OgreMain_d.dll
 0002:00000404       __imp_??0FrameListener@Ogre@@QAE@XZ 00448404     OgreMain_d:OgreMain_d.dll
 0002:00000408       __imp_??0KeyListener@Ogre@@QAE@XZ 00448408     OgreMain_d:OgreMain_d.dll
 0002:0000040c       __imp_??0Vector3@Ogre@@QAE@XZ 0044840c     OgreMain_d:OgreMain_d.dll
 0002:00000410       __imp_?getSingleton@OverlayManager@Ogre@@SAAAV12@XZ 00448410     OgreMain_d:OgreMain_d.dll
 0002:00000414       __imp_?getByName@OverlayManager@Ogre@@QAEPAVOverlay@2@ABV?$basic_string@DU?$char_traits@D@std@@V?$allocator@D@2@@std@@@Z 00448414     OgreMain_d:OgreMain_d.dll
 0002:00000418       __imp_??0EventProcessor@Ogre@@QAE@XZ 00448418     OgreMain_d:OgreMain_d.dll
 0002:0000041c       __imp_?initialise@EventProcessor@Ogre@@QAEXPAVRenderWindow@2@@Z 0044841c     OgreMain_d:OgreMain_d.dll
 0002:00000420       __imp_?startProcessingEvents@EventProcessor@Ogre@@QAEX_N@Z 00448420     OgreMain_d:OgreMain_d.dll
 0002:00000424       __imp_?addKeyListener@KeyTarget@Ogre@@QAEXPAVKeyListener@2@@Z 00448424     OgreMain_d:OgreMain_d.dll
 0002:00000428       __imp_?getInputReader@EventProcessor@Ogre@@QAEPAVInputReader@2@XZ 00448428     OgreMain_d:OgreMain_d.dll
 0002:0000042c       __imp_?getSingleton@PlatformManager@Ogre@@SAAAV12@XZ 0044842c     OgreMain_d:OgreMain_d.dll
 0002:00000430       __imp_?createInputReader@PlatformManager@Ogre@@QAEPAVInputReader@2@XZ 00448430     OgreMain_d:OgreMain_d.dll
 0002:00000434       __imp_?ZERO@Vector3@Ogre@@2V12@B 00448434     OgreMain_d:OgreMain_d.dll
 0002:00000438       __imp_??4Vector3@Ogre@@QAEAAV01@ABV01@@Z 00448438     OgreMain_d:OgreMain_d.dll
 0002:0000043c       __imp_??1FrameListener@Ogre@@UAE@XZ 0044843c     OgreMain_d:OgreMain_d.dll
 0002:00000440       __imp_??1KeyListener@Ogre@@UAE@XZ 00448440     OgreMain_d:OgreMain_d.dll
 0002:00000444       __imp_?keyFocusIn@KeyListener@Ogre@@UAEXPAVKeyEvent@2@@Z 00448444     OgreMain_d:OgreMain_d.dll
 0002:00000448       __imp_?keyFocusOut@KeyListener@Ogre@@UAEXPAVKeyEvent@2@@Z 00448448     OgreMain_d:OgreMain_d.dll
 0002:0000044c       __imp_?frameStarted@EventProcessor@Ogre@@UAE_NABUFrameEvent@2@@Z 0044844c     OgreMain_d:OgreMain_d.dll
 0002:00000450       __imp_?frameEnded@FrameListener@Ogre@@UAE_NABUFrameEvent@2@@Z 00448450     OgreMain_d:OgreMain_d.dll
 0002:00000454       __imp_?processEvent@EventProcessor@Ogre@@UAEXPAVInputEvent@2@@Z 00448454     OgreMain_d:OgreMain_d.dll
 0002:00000458       __imp_?getLeft@EventProcessor@Ogre@@UBEMXZ 00448458     OgreMain_d:OgreMain_d.dll
 0002:0000045c       __imp_?getTop@EventProcessor@Ogre@@UBEMXZ 0044845c     OgreMain_d:OgreMain_d.dll
 0002:00000460       __imp_?getPositionTargetParent@EventProcessor@Ogre@@UBEPAVPositionTarget@2@XZ 00448460     OgreMain_d:OgreMain_d.dll
 0002:00000464       __imp_?isKeyEnabled@EventProcessor@Ogre@@UBE_NXZ 00448464     OgreMain_d:OgreMain_d.dll
 0002:00000468       __imp_?addFrameListener@Root@Ogre@@QAEXPAVFrameListener@2@@Z 00448468     OgreMain_d:OgreMain_d.dll
 0002:0000046c       __imp_??0Vector3@Ogre@@QAE@MMM@Z 0044846c     OgreMain_d:OgreMain_d.dll
 0002:00000470       __imp_?setOrientation@Camera@Ogre@@QAEXABVQuaternion@2@@Z 00448470     OgreMain_d:OgreMain_d.dll
 0002:00000474       \177OgreMain_d_NULL_THUNK_DATA 00448474     OgreMain_d:OgreMain_d.dll
 0002:00000478       __imp__NxCreatePhysicsSDK  00448478     PhysXLoader:PhysXLoader.dll
 0002:0000047c       \177PhysXLoader_NULL_THUNK_DATA 0044847c     PhysXLoader:PhysXLoader.dll
 0002:00000480       __imp__GetForegroundWindow@0 00448480     user32:USER32.dll
 0002:00000484       __imp__MessageBoxA@16      00448484     user32:USER32.dll
 0002:00000488       \177USER32_NULL_THUNK_DATA 00448488     user32:USER32.dll
 0002:0000048c       __imp__mmioGetInfo@12      0044848c     winmm:WINMM.dll
 0002:00000490       __imp__mmioDescend@16      00448490     winmm:WINMM.dll
 0002:00000494       __imp__mmioCreateChunk@12  00448494     winmm:WINMM.dll
 0002:00000498       __imp__mmioAscend@12       00448498     winmm:WINMM.dll
 0002:0000049c       __imp__mmioOpenA@12        0044849c     winmm:WINMM.dll
 0002:000004a0       __imp__mmioClose@8         004484a0     winmm:WINMM.dll
 0002:000004a4       __imp__mmioSeek@12         004484a4     winmm:WINMM.dll
 0002:000004a8       __imp__mmioSetInfo@12      004484a8     winmm:WINMM.dll
 0002:000004ac       __imp__mmioAdvance@12      004484ac     winmm:WINMM.dll
 0002:000004b0       __imp__mmioWrite@12        004484b0     winmm:WINMM.dll
 0002:000004b4       __imp__mmioRead@12         004484b4     winmm:WINMM.dll
 0002:000004b8       \177WINMM_NULL_THUNK_DATA  004484b8     winmm:WINMM.dll
 0002:000004ec       __real@00000000            004484ec     AudioClass.obj
 0002:000004f0       ??_7SoundClass@@6B@        004484f0     AudioClass.obj
 0002:00000584       ?min_exponent10@?$numeric_limits@O@std@@2HB 00448584     CuteCar.obj
 0002:00000588       ?min_exponent@?$numeric_limits@O@std@@2HB 00448588     CuteCar.obj
 0002:0000058c       ?max_exponent10@?$numeric_limits@O@std@@2HB 0044858c     CuteCar.obj
 0002:00000590       ?max_exponent@?$numeric_limits@O@std@@2HB 00448590     CuteCar.obj
 0002:00000594       ?digits10@?$numeric_limits@O@std@@2HB 00448594     CuteCar.obj
 0002:00000598       ?digits@?$numeric_limits@O@std@@2HB 00448598     CuteCar.obj
 0002:0000059c       ?min_exponent10@?$numeric_limits@N@std@@2HB 0044859c     CuteCar.obj
 0002:000005a0       ?min_exponent@?$numeric_limits@N@std@@2HB 004485a0     CuteCar.obj
 0002:000005a4       ?max_exponent10@?$numeric_limits@N@std@@2HB 004485a4     CuteCar.obj
 0002:000005a8       ?max_exponent@?$numeric_limits@N@std@@2HB 004485a8     CuteCar.obj
 0002:000005ac       ?digits10@?$numeric_limits@N@std@@2HB 004485ac     CuteCar.obj
 0002:000005b0       ?digits@?$numeric_limits@N@std@@2HB 004485b0     CuteCar.obj
 0002:000005b4       ?min_exponent10@?$numeric_limits@M@std@@2HB 004485b4     CuteCar.obj
 0002:000005b8       ?min_exponent@?$numeric_limits@M@std@@2HB 004485b8     CuteCar.obj
 0002:000005bc       ?max_exponent10@?$numeric_limits@M@std@@2HB 004485bc     CuteCar.obj
 0002:000005c0       ?max_exponent@?$numeric_limits@M@std@@2HB 004485c0     CuteCar.obj
 0002:000005c4       ?digits10@?$numeric_limits@M@std@@2HB 004485c4     CuteCar.obj
 0002:000005c8       ?digits@?$numeric_limits@M@std@@2HB 004485c8     CuteCar.obj
 0002:000005cc       ?digits10@?$numeric_limits@_K@std@@2HB 004485cc     CuteCar.obj
 0002:000005d0       ?digits@?$numeric_limits@_K@std@@2HB 004485d0     CuteCar.obj
 0002:000005d4       ?is_signed@?$numeric_limits@_K@std@@2_NB 004485d4     CuteCar.obj
 0002:000005d8       ?digits10@?$numeric_limits@_J@std@@2HB 004485d8     CuteCar.obj
 0002:000005dc       ?digits@?$numeric_limits@_J@std@@2HB 004485dc     CuteCar.obj
 0002:000005e0       ?is_signed@?$numeric_limits@_J@std@@2_NB 004485e0     CuteCar.obj
 0002:000005e4       ?digits10@?$numeric_limits@K@std@@2HB 004485e4     CuteCar.obj
 0002:000005e8       ?digits@?$numeric_limits@K@std@@2HB 004485e8     CuteCar.obj
 0002:000005ec       ?is_signed@?$numeric_limits@K@std@@2_NB 004485ec     CuteCar.obj
 0002:000005f0       ?digits10@?$numeric_limits@J@std@@2HB 004485f0     CuteCar.obj
 0002:000005f4       ?digits@?$numeric_limits@J@std@@2HB 004485f4     CuteCar.obj
 0002:000005f8       ?is_signed@?$numeric_limits@J@std@@2_NB 004485f8     CuteCar.obj
 0002:000005fc       ?digits10@?$numeric_limits@I@std@@2HB 004485fc     CuteCar.obj
 0002:00000600       ?digits@?$numeric_limits@I@std@@2HB 00448600     CuteCar.obj
 0002:00000604       ?is_signed@?$numeric_limits@I@std@@2_NB 00448604     CuteCar.obj
 0002:00000608       ?digits10@?$numeric_limits@H@std@@2HB 00448608     CuteCar.obj
 0002:0000060c       ?digits@?$numeric_limits@H@std@@2HB 0044860c     CuteCar.obj
 0002:00000610       ?is_signed@?$numeric_limits@H@std@@2_NB 00448610     CuteCar.obj
 0002:00000614       ?digits10@?$numeric_limits@G@std@@2HB 00448614     CuteCar.obj
 0002:00000618       ?digits@?$numeric_limits@G@std@@2HB 00448618     CuteCar.obj
 0002:0000061c       ?is_signed@?$numeric_limits@G@std@@2_NB 0044861c     CuteCar.obj
 0002:00000620       ?digits10@?$numeric_limits@F@std@@2HB 00448620     CuteCar.obj
 0002:00000624       ?digits@?$numeric_limits@F@std@@2HB 00448624     CuteCar.obj
 0002:00000628       ?is_signed@?$numeric_limits@F@std@@2_NB 00448628     CuteCar.obj
 0002:0000062c       ?digits10@?$numeric_limits@E@std@@2HB 0044862c     CuteCar.obj
 0002:00000630       ?digits@?$numeric_limits@E@std@@2HB 00448630     CuteCar.obj
 0002:00000634       ?is_signed@?$numeric_limits@E@std@@2_NB 00448634     CuteCar.obj
 0002:00000638       ?digits10@?$numeric_limits@C@std@@2HB 00448638     CuteCar.obj
 0002:0000063c       ?digits@?$numeric_limits@C@std@@2HB 0044863c     CuteCar.obj
 0002:00000640       ?is_signed@?$numeric_limits@C@std@@2_NB 00448640     CuteCar.obj
 0002:00000644       ?digits10@?$numeric_limits@_N@std@@2HB 00448644     CuteCar.obj
 0002:00000648       ?digits@?$numeric_limits@_N@std@@2HB 00448648     CuteCar.obj
 0002:0000064c       ?is_signed@?$numeric_limits@_N@std@@2_NB 0044864c     CuteCar.obj
 0002:0000064d       ?is_modulo@?$numeric_limits@_N@std@@2_NB 0044864d     CuteCar.obj
 0002:00000650       ?digits10@?$numeric_limits@D@std@@2HB 00448650     CuteCar.obj
 0002:00000654       ?digits@?$numeric_limits@D@std@@2HB 00448654     CuteCar.obj
 0002:00000658       ?is_signed@?$numeric_limits@D@std@@2_NB 00448658     CuteCar.obj
 0002:0000065c       ?radix@_Num_float_base@std@@2HB 0044865c     CuteCar.obj
 0002:00000660       ?round_style@_Num_float_base@std@@2W4float_round_style@2@B 00448660     CuteCar.obj
 0002:00000664       ?traps@_Num_float_base@std@@2_NB 00448664     CuteCar.obj
 0002:00000665       ?tinyness_before@_Num_float_base@std@@2_NB 00448665     CuteCar.obj
 0002:00000666       ?is_specialized@_Num_float_base@std@@2_NB 00448666     CuteCar.obj
 0002:00000667       ?is_signed@_Num_float_base@std@@2_NB 00448667     CuteCar.obj
 0002:00000668       ?is_modulo@_Num_float_base@std@@2_NB 00448668     CuteCar.obj
 0002:00000669       ?is_integer@_Num_float_base@std@@2_NB 00448669     CuteCar.obj
 0002:0000066a       ?is_iec559@_Num_float_base@std@@2_NB 0044866a     CuteCar.obj
 0002:0000066b       ?is_exact@_Num_float_base@std@@2_NB 0044866b     CuteCar.obj
 0002:0000066c       ?is_bounded@_Num_float_base@std@@2_NB 0044866c     CuteCar.obj
 0002:0000066d       ?has_signaling_NaN@_Num_float_base@std@@2_NB 0044866d     CuteCar.obj
 0002:0000066e       ?has_quiet_NaN@_Num_float_base@std@@2_NB 0044866e     CuteCar.obj
 0002:0000066f       ?has_infinity@_Num_float_base@std@@2_NB 0044866f     CuteCar.obj
 0002:00000670       ?has_denorm_loss@_Num_float_base@std@@2_NB 00448670     CuteCar.obj
 0002:00000674       ?has_denorm@_Num_float_base@std@@2W4float_denorm_style@2@B 00448674     CuteCar.obj
 0002:00000678       ?radix@_Num_int_base@std@@2HB 00448678     CuteCar.obj
 0002:0000067c       ?is_specialized@_Num_int_base@std@@2_NB 0044867c     CuteCar.obj
 0002:0000067d       ?is_modulo@_Num_int_base@std@@2_NB 0044867d     CuteCar.obj
 0002:0000067e       ?is_integer@_Num_int_base@std@@2_NB 0044867e     CuteCar.obj
 0002:0000067f       ?is_exact@_Num_int_base@std@@2_NB 0044867f     CuteCar.obj
 0002:00000680       ?is_bounded@_Num_int_base@std@@2_NB 00448680     CuteCar.obj
 0002:00000684       ?radix@_Num_base@std@@2HB  00448684     CuteCar.obj
 0002:00000688       ?min_exponent10@_Num_base@std@@2HB 00448688     CuteCar.obj
 0002:0000068c       ?min_exponent@_Num_base@std@@2HB 0044868c     CuteCar.obj
 0002:00000690       ?max_exponent10@_Num_base@std@@2HB 00448690     CuteCar.obj
 0002:00000694       ?max_exponent@_Num_base@std@@2HB 00448694     CuteCar.obj
 0002:00000698       ?digits10@_Num_base@std@@2HB 00448698     CuteCar.obj
 0002:0000069c       ?digits@_Num_base@std@@2HB 0044869c     CuteCar.obj
 0002:000006a0       ?round_style@_Num_base@std@@2W4float_round_style@2@B 004486a0     CuteCar.obj
 0002:000006a4       ?traps@_Num_base@std@@2_NB 004486a4     CuteCar.obj
 0002:000006a5       ?tinyness_before@_Num_base@std@@2_NB 004486a5     CuteCar.obj
 0002:000006a6       ?is_specialized@_Num_base@std@@2_NB 004486a6     CuteCar.obj
 0002:000006a7       ?is_signed@_Num_base@std@@2_NB 004486a7     CuteCar.obj
 0002:000006a8       ?is_modulo@_Num_base@std@@2_NB 004486a8     CuteCar.obj
 0002:000006a9       ?is_integer@_Num_base@std@@2_NB 004486a9     CuteCar.obj
 0002:000006aa       ?is_iec559@_Num_base@std@@2_NB 004486aa     CuteCar.obj
 0002:000006ab       ?is_exact@_Num_base@std@@2_NB 004486ab     CuteCar.obj
 0002:000006ac       ?is_bounded@_Num_base@std@@2_NB 004486ac     CuteCar.obj
 0002:000006ad       ?has_signaling_NaN@_Num_base@std@@2_NB 004486ad     CuteCar.obj
 0002:000006ae       ?has_quiet_NaN@_Num_base@std@@2_NB 004486ae     CuteCar.obj
 0002:000006af       ?has_infinity@_Num_base@std@@2_NB 004486af     CuteCar.obj
 0002:000006b0       ?has_denorm_loss@_Num_base@std@@2_NB 004486b0     CuteCar.obj
 0002:000006b4       ?has_denorm@_Num_base@std@@2W4float_denorm_style@2@B 004486b4     CuteCar.obj
 0002:000006b8       ?end@?$_Iosb@H@std@@2W4_Seekdir@12@B 004486b8     CuteCar.obj
 0002:000006bc       ?cur@?$_Iosb@H@std@@2W4_Seekdir@12@B 004486bc     CuteCar.obj
 0002:000006c0       ?beg@?$_Iosb@H@std@@2W4_Seekdir@12@B 004486c0     CuteCar.obj
 0002:000006c4       ?binary@?$_Iosb@H@std@@2W4_Openmode@12@B 004486c4     CuteCar.obj
 0002:000006c8       ?_Noreplace@?$_Iosb@H@std@@2W4_Openmode@12@B 004486c8     CuteCar.obj
 0002:000006cc       ?_Nocreate@?$_Iosb@H@std@@2W4_Openmode@12@B 004486cc     CuteCar.obj
 0002:000006d0       ?trunc@?$_Iosb@H@std@@2W4_Openmode@12@B 004486d0     CuteCar.obj
 0002:000006d4       ?app@?$_Iosb@H@std@@2W4_Openmode@12@B 004486d4     CuteCar.obj
 0002:000006d8       ?ate@?$_Iosb@H@std@@2W4_Openmode@12@B 004486d8     CuteCar.obj
 0002:000006dc       ?out@?$_Iosb@H@std@@2W4_Openmode@12@B 004486dc     CuteCar.obj
 0002:000006e0       ?in@?$_Iosb@H@std@@2W4_Openmode@12@B 004486e0     CuteCar.obj
 0002:000006e4       ?_Hardfail@?$_Iosb@H@std@@2W4_Iostate@12@B 004486e4     CuteCar.obj
 0002:000006e8       ?badbit@?$_Iosb@H@std@@2W4_Iostate@12@B 004486e8     CuteCar.obj
 0002:000006ec       ?failbit@?$_Iosb@H@std@@2W4_Iostate@12@B 004486ec     CuteCar.obj
 0002:000006f0       ?eofbit@?$_Iosb@H@std@@2W4_Iostate@12@B 004486f0     CuteCar.obj
 0002:000006f4       ?goodbit@?$_Iosb@H@std@@2W4_Iostate@12@B 004486f4     CuteCar.obj
 0002:000006f8       ?floatfield@?$_Iosb@H@std@@2W4_Fmtflags@12@B 004486f8     CuteCar.obj
 0002:000006fc       ?basefield@?$_Iosb@H@std@@2W4_Fmtflags@12@B 004486fc     CuteCar.obj
 0002:00000700       ?adjustfield@?$_Iosb@H@std@@2W4_Fmtflags@12@B 00448700     CuteCar.obj
 0002:00000704       ?_Stdio@?$_Iosb@H@std@@2W4_Fmtflags@12@B 00448704     CuteCar.obj
 0002:00000708       ?boolalpha@?$_Iosb@H@std@@2W4_Fmtflags@12@B 00448708     CuteCar.obj
 0002:0000070c       ?fixed@?$_Iosb@H@std@@2W4_Fmtflags@12@B 0044870c     CuteCar.obj
 0002:00000710       ?scientific@?$_Iosb@H@std@@2W4_Fmtflags@12@B 00448710     CuteCar.obj
 0002:00000714       ?hex@?$_Iosb@H@std@@2W4_Fmtflags@12@B 00448714     CuteCar.obj
 0002:00000718       ?oct@?$_Iosb@H@std@@2W4_Fmtflags@12@B 00448718     CuteCar.obj
 0002:0000071c       ?dec@?$_Iosb@H@std@@2W4_Fmtflags@12@B 0044871c     CuteCar.obj
 0002:00000720       ?internal@?$_Iosb@H@std@@2W4_Fmtflags@12@B 00448720     CuteCar.obj
 0002:00000724       ?right@?$_Iosb@H@std@@2W4_Fmtflags@12@B 00448724     CuteCar.obj
 0002:00000728       ?left@?$_Iosb@H@std@@2W4_Fmtflags@12@B 00448728     CuteCar.obj
 0002:0000072c       ?showpos@?$_Iosb@H@std@@2W4_Fmtflags@12@B 0044872c     CuteCar.obj
 0002:00000730       ?showpoint@?$_Iosb@H@std@@2W4_Fmtflags@12@B 00448730     CuteCar.obj
 0002:00000734       ?showbase@?$_Iosb@H@std@@2W4_Fmtflags@12@B 00448734     CuteCar.obj
 0002:00000738       ?uppercase@?$_Iosb@H@std@@2W4_Fmtflags@12@B 00448738     CuteCar.obj
 0002:0000073c       ?unitbuf@?$_Iosb@H@std@@2W4_Fmtflags@12@B 0044873c     CuteCar.obj
 0002:00000740       ?skipws@?$_Iosb@H@std@@2W4_Fmtflags@12@B 00448740     CuteCar.obj
 0002:00000744       ?none@?$_Locbase@H@std@@2HB 00448744     CuteCar.obj
 0002:00000748       ?all@?$_Locbase@H@std@@2HB 00448748     CuteCar.obj
 0002:0000074c       ?messages@?$_Locbase@H@std@@2HB 0044874c     CuteCar.obj
 0002:00000750       ?time@?$_Locbase@H@std@@2HB 00448750     CuteCar.obj
 0002:00000754       ?numeric@?$_Locbase@H@std@@2HB 00448754     CuteCar.obj
 0002:00000758       ?monetary@?$_Locbase@H@std@@2HB 00448758     CuteCar.obj
 0002:0000075c       ?ctype@?$_Locbase@H@std@@2HB 0044875c     CuteCar.obj
 0002:00000760       ?collate@?$_Locbase@H@std@@2HB 00448760     CuteCar.obj
 0002:00000764       ??_7CuteCarApplication@@6B@ 00448764     CuteCar.obj
 0002:00000798       ??_7ExampleApplication@@6B@ 00448798     CuteCar.obj
 0002:000007cc       ??_C@_0M@HKNDGOBH@plugins?4cfg?$AA@ 004487cc     CuteCar.obj
 0002:000007d8       ??_C@_08FCEINABH@ogre?4cfg?$AA@ 004487d8     CuteCar.obj
 0002:000007e4       ??_C@_08IHALHJGN@Ogre?4log?$AA@ 004487e4     CuteCar.obj
 0002:000007f0       ??_C@_0BD@KOAKHGFB@OGRE?5Render?5Window?$AA@ 004487f0     CuteCar.obj
 0002:00000804       ??_C@_0BC@PODCMBAO@ExampleSMInstance?$AA@ 00448804     CuteCar.obj
 0002:00000818       ??_C@_09LBELDIME@PlayerCam?$AA@ 00448818     CuteCar.obj
 0002:00000824       ??_SEventProcessor@Ogre@@6BKeyTarget@1@@ 00448824     CuteCar.obj
 0002:0000082c       ??_SEventProcessor@Ogre@@6BMouseMotionTarget@1@@ 0044882c     CuteCar.obj
 0002:00000844       ??_SEventProcessor@Ogre@@6BMouseTarget@1@@ 00448844     CuteCar.obj
 0002:0000085c       ??_SEventProcessor@Ogre@@6BFrameListener@1@@ 0044885c     CuteCar.obj
 0002:00000868       ??_C@_0BC@EACOAGDP@Core?1DebugOverlay?$AA@ 00448868     CuteCar.obj
 0002:0000087c       ??_7ExampleFrameListener@@6BKeyListener@Ogre@@@ 0044887c     CuteCar.obj
 0002:00000894       ??_7ExampleFrameListener@@6BFrameListener@Ogre@@@ 00448894     CuteCar.obj
 0002:000008a4       ??_C@_03KBLECMGM@O?3?5?$AA@ 004488a4     CuteCar.obj
 0002:000008a8       ??_C@_01CLKCMJKC@?5?$AA@   004488a8     CuteCar.obj
 0002:000008ac       ??_C@_03KJMOGLKF@P?3?5?$AA@ 004488ac     CuteCar.obj
 0002:000008b0       ??_C@_00CNPNBAHC@?$AA@     004488b0     CuteCar.obj
 0002:000008b4       ??_C@_06OGKMKBEM@Wrote?5?$AA@ 004488b4     CuteCar.obj
 0002:000008bc       ??_C@_0BC@IFNMFGFJ@screenshot_?$CFd?4png?$AA@ 004488bc     CuteCar.obj
 0002:000008d0       __real@3fc0a3d70a3d70a4    004488d0     CuteCar.obj
 0002:000008d8       ??_C@_0P@DOMOJALM@Core?1DebugText?$AA@ 004488d8     CuteCar.obj
 0002:000008e8       ??_C@_0N@BPFODGEE@Core?1NumTris?$AA@ 004488e8     CuteCar.obj
 0002:000008f8       ??_C@_03DKJEPNJL@?5ms?$AA@ 004488f8     CuteCar.obj
 0002:000008fc       ??_C@_0O@GGMMAFHL@Core?1WorstFps?$AA@ 004488fc     CuteCar.obj
 0002:0000090c       ??_C@_0N@LLIMAECD@Core?1BestFps?$AA@ 0044890c     CuteCar.obj
 0002:0000091c       ??_C@_0N@FEOELOHG@Core?1CurrFps?$AA@ 0044891c     CuteCar.obj
 0002:0000092c       ??_C@_0BA@ODFCIOAM@Core?1AverageFps?$AA@ 0044892c     CuteCar.obj
 0002:0000093c       ??_C@_0BB@MKFNLKNP@Triangle?5Count?3?5?$AA@ 0044893c     CuteCar.obj
 0002:00000950       ??_C@_0M@FHACCGLM@Worst?5FPS?3?5?$AA@ 00448950     CuteCar.obj
 0002:0000095c       ??_C@_0L@IHMJLKPN@Best?5FPS?3?5?$AA@ 0044895c     CuteCar.obj
 0002:00000968       ??_C@_0O@CLBPBFLO@Average?5FPS?3?5?$AA@ 00448968     CuteCar.obj
 0002:00000978       ??_C@_0O@BKGCJODK@Current?5FPS?3?5?$AA@ 00448978     CuteCar.obj
 0002:00000988       ??_C@_0O@FDIMDEOH@resources?4cfg?$AA@ 00448988     CuteCar.obj
 0002:00000998       ??_C@_03OAKHEHJB@?7?3?$DN?$AA@ 00448998     CuteCar.obj
 0002:0000099c       ??_C@_05BJNOIGHO@MyCam?$AA@ 0044899c     CuteCar.obj
 0002:000009a4       ??_C@_0M@PPLMFBO@CuteCar?4log?$AA@ 004489a4     CuteCar.obj
 0002:000009b0       ??_C@_0BF@MHCJLEHJ@?4?4?2resources?2end?4wav?$AA@ 004489b0     CuteCar.obj
 0002:000009c8       ??_C@_0BH@CLONDPHK@?4?4?2resources?2begin?4wav?$AA@ 004489c8     CuteCar.obj
 0002:000009e0       ??_C@_0BJ@PGBJHJAL@?4?4?2resources?2GetItem?4wav?$AA@ 004489e0     CuteCar.obj
 0002:000009fc       ??_C@_0BJ@JIBFOODG@?4?4?2resources?2UseItem?4wav?$AA@ 004489fc     CuteCar.obj
 0002:00000a18       __real@3fe0000000000000    00448a18     CuteCar.obj
 0002:00000a20       ??_C@_0BL@JFDGCHJM@?4?4?2resources?2CarTravel?4wav?$AA@ 00448a20     CuteCar.obj
 0002:00000a3c       ??_C@_04OKHOINCN@tony?$AA@ 00448a3c     CuteCar.obj
 0002:00000a44       ??_C@_09BDNLENBC@Tahoma?912?$AA@ 00448a44     CuteCar.obj
 0002:00000a50       ??_C@_09LHLAOIPI@GUIConfig?$AA@ 00448a50     CuteCar.obj
 0002:00000a5c       ??_C@_0L@ENPIFHPA@MouseArrow?$AA@ 00448a5c     CuteCar.obj
 0002:00000a68       ??_C@_0BF@EAACADIJ@GUIConfigSkin?4scheme?$AA@ 00448a68     CuteCar.obj
 0002:00000a80       ??_SSystem@CEGUI@@6B@      00448a80     CuteCar.obj
 0002:00000a98       ??_C@_09OBCJJDIB@CEGUI?4log?$AA@ 00448a98     CuteCar.obj
 0002:00000aa8       ??_SOgreCEGUIRenderer@CEGUI@@6B@ 00448aa8     CuteCar.obj
 0002:00000b08       ??_7CuteCarFrameListener@@6BMouseListener@Ogre@@@ 00448b08     CuteCar.obj
 0002:00000b2c       ??_7CuteCarFrameListener@@6BMouseMotionListener@Ogre@@@ 00448b2c     CuteCar.obj
 0002:00000b3c       ??_7CuteCarFrameListener@@6BKeyListener@Ogre@@@ 00448b3c     CuteCar.obj
 0002:00000b54       ??_7CuteCarFrameListener@@6BFrameListener@Ogre@@@ 00448b54     CuteCar.obj
 0002:00000b64       ??_C@_0N@BDBECGDO@login?4layout?$AA@ 00448b64     CuteCar.obj
 0002:00000b74       ??_C@_05DHEMANOL@Login?$AA@ 00448b74     CuteCar.obj
 0002:00000b7c       ??_C@_04GMBKPCGK@Quit?$AA@ 00448b7c     CuteCar.obj
 0002:00000b84       ??_C@_05MPPALGBK@Place?$AA@ 00448b84     CuteCar.obj
 0002:00000b8c       ??_C@_04DDFEFHOJ@Help?$AA@ 00448b8c     CuteCar.obj
 0002:00000b94       ??_C@_09OJGDKKCB@DeathMode?$AA@ 00448b94     CuteCar.obj
 0002:00000ba0       ??_C@_09PIGHGOHF@SpeedMode?$AA@ 00448ba0     CuteCar.obj
 0002:00000bac       ??_C@_07CAKNAKJH@UsrName?$AA@ 00448bac     CuteCar.obj
 0002:00000bb4       ??_C@_08PAEGHBBF@CheckEsc?$AA@ 00448bb4     CuteCar.obj
 0002:00000bc0       ??_C@_01KMDKNFGN@?1?$AA@   00448bc0     CuteCar.obj
 0002:00000bc4       ??_C@_04OKOFBOPB@Time?$AA@ 00448bc4     CuteCar.obj
 0002:00000bcc       ??_C@_04KLCPKPBE@Loop?$AA@ 00448bcc     CuteCar.obj
 0002:00000bd4       ??_C@_05HOIAGEJD@Speed?$AA@ 00448bd4     CuteCar.obj
 0002:00000bdc       ??_C@_03PCONDBEP@Tip?$AA@  00448bdc     CuteCar.obj
 0002:00000be0       ??_C@_01HIHLOKLC@1?$AA@    00448be0     CuteCar.obj
 0002:00000be4       ??_C@_05BLGBJKKH@Meter?$AA@ 00448be4     CuteCar.obj
 0002:00000bec       ??_C@_04BNMICOAK@Tool?$AA@ 00448bec     CuteCar.obj
 0002:00000bf4       ??_C@_07FMOFDADP@infolap?$AA@ 00448bf4     CuteCar.obj
 0002:00000bfc       ??_C@_07KGDEJDDE@infooil?$AA@ 00448bfc     CuteCar.obj
 0002:00000c04       ??_C@_04PJDNGLKJ@self?$AA@ 00448c04     CuteCar.obj
 0002:00000c0c       ??_C@_04BJPIHCBA@Info?$AA@ 00448c0c     CuteCar.obj
 0002:00000c14       ??_C@_08DIGDHHDM@elements?$AA@ 00448c14     CuteCar.obj
 0002:00000c20       ??_C@_05BMMNJPJB@meter?$AA@ 00448c20     CuteCar.obj
 0002:00000c28       ??_C@_0BB@NAEIGKMO@GUIConfig?4layout?$AA@ 00448c28     CuteCar.obj
 0002:00000c3c       ??_C@_0M@FNCDMHJP@help?4layout?$AA@ 00448c3c     CuteCar.obj
 0002:00000c48       ??_C@_08GPBPALIL@DeadTime?$AA@ 00448c48     CuteCar.obj
 0002:00000c54       ??_C@_04NANCPOOO@Dead?$AA@ 00448c54     CuteCar.obj
 0002:00000c5c       ??_C@_08GIEMPMAG@RaceTime?$AA@ 00448c5c     CuteCar.obj
 0002:00000c68       ??_C@_04KKIPOOLE@Race?$AA@ 00448c68     CuteCar.obj
 0002:00000c70       ??_C@_0BD@CIJMAPFP@?4?4?2resources?2grade?$AA@ 00448c70     CuteCar.obj
 0002:00000c84       ??_C@_02JDPG@rb?$AA@       00448c84     CuteCar.obj
 0002:00000c88       ??_C@_0N@DHPFCPLI@place?4layout?$AA@ 00448c88     CuteCar.obj
 0002:00000c98       ??_C@_0P@INIBCIN@?$CFd?$CFd?3?$CFd?$CFd?3?$CFd?$CFd?$AA@ 00448c98     CuteCar.obj
 0002:00000ca8       ??_C@_08BLBMJMBD@?$CF3d?5km?1h?$AA@ 00448ca8     CuteCar.obj
 0002:00000cb4       ??_C@_0CC@MKPDGPGB@The?5speed?5effect?5has?5disappeared@ 00448cb4     CuteCar.obj
 0002:00000cd8       ??_C@_0CB@CJCFHLJD@The?5slip?5effect?5has?5disappeared?4@ 00448cd8     CuteCar.obj
 0002:00000d00       __real@4004000000000000    00448d00     CuteCar.obj
 0002:00000d08       ??_C@_04MLLLIHIP@null?$AA@ 00448d08     CuteCar.obj
 0002:00000d10       ??_C@_03FJGAPNJI@acc?$AA@  00448d10     CuteCar.obj
 0002:00000d14       ??_C@_04PFAPHHFJ@oilm?$AA@ 00448d14     CuteCar.obj
 0002:00000d1c       ??_C@_04CBEOEIIG@oils?$AA@ 00448d1c     CuteCar.obj
 0002:00000d24       ??_C@_04OMBEEGBI@oill?$AA@ 00448d24     CuteCar.obj
 0002:00000d2c       ??_C@_0CL@KHJDHPDO@Come?5into?5a?5ill?5item?0?5oil?5decrea@ 00448d2c     CuteCar.obj
 0002:00000d58       ??_C@_0DE@PGJANIDP@Come?5into?5a?5block?5item?0?5car?5spee@ 00448d58     CuteCar.obj
 0002:00000d8c       ??_C@_0BH@DADCCBBJ@Picked?5a?5speedup?5item?4?$AA@ 00448d8c     CuteCar.obj
 0002:00000da4       ??_C@_0BJ@NMPMOFFF@Picked?5a?5small?5fix?5item?4?$AA@ 00448da4     CuteCar.obj
 0002:00000dc0       ??_C@_0BK@EMDNKPEI@Picked?5a?5middle?5fix?5item?4?$AA@ 00448dc0     CuteCar.obj
 0002:00000ddc       ??_C@_0BH@CONNABOO@Picked?5a?5big?5fix?5item?4?$AA@ 00448ddc     CuteCar.obj
 0002:00000df4       ??_C@_0DA@IPJADIKL@Come?5into?5a?5slip?5item?0?5car?5to?5sl@ 00448df4     CuteCar.obj
 0002:00000e24       ??_C@_0CN@IBCBGPCN@Used?5a?5speed?5item?0?5car?5speed?5up?5@ 00448e24     CuteCar.obj
 0002:00000e54       ??_C@_0CK@LLAJCDEB@Used?5a?5big?5fix?5item?0?5oil?5increas@ 00448e54     CuteCar.obj
 0002:00000e80       ??_C@_0CK@KJLMIMKP@Used?5a?5big?5fix?5item?0?5oil?5increas@ 00448e80     CuteCar.obj
 0002:00000eac       ??_C@_0CL@JDJPAKND@Used?5a?5big?5fix?5item?0?5oil?5increas@ 00448eac     CuteCar.obj
 0002:00000ed8       __real@4078800000000000    00448ed8     CuteCar.obj
 0002:00000ee0       __real@bf800000            00448ee0     CuteCar.obj
 0002:00000ee4       ??_C@_05LLMLLFP@Grade?$AA@ 00448ee4     CuteCar.obj
 0002:00000eec       ??_C@_0M@MMEMIPJG@over?4layout?$AA@ 00448eec     CuteCar.obj
 0002:00000ef8       ??_C@_03JKGCGCNJ@God?$AA@  00448ef8     CuteCar.obj
 0002:00000efc       ??_C@_02GMLFBBN@wb?$AA@    00448efc     CuteCar.obj
 0002:00000f00       ??_C@_06HCFIKKEA@Return?$AA@ 00448f00     CuteCar.obj
 0002:00000f08       ??_C@_09MMGIDAMP@ShowGrade?$AA@ 00448f08     CuteCar.obj
 0002:00000f14       ??_C@_02DPKJAMEF@?$CFd?$AA@ 00448f14     CuteCar.obj
 0002:00000f18       ??_C@_02JINPPBEP@No?$AA@   00448f18     CuteCar.obj
 0002:00000f1c       ??_C@_03CCLAEDDF@Yes?$AA@  00448f1c     CuteCar.obj
 0002:00000f20       ?npos@?$basic_string@DU?$char_traits@D@std@@V?$allocator@D@2@@std@@2IB 00448f20     CuteCar.obj
 0002:00000f24       ??_7?$_memberBinder@VCuteCarFrameListener@@_NABVEventArgs@CEGUI@@@CEGUI@@6B@ 00448f24     CuteCar.obj
 0002:00000f2c       ??_7?$SubscriberInterface@_NABVEventArgs@CEGUI@@@CEGUI@@6B@ 00448f2c     CuteCar.obj
 0002:00001044       ??_7NxAllVehicle@@6B@      00449044     NxAllVehicle.obj
 0002:00001048       __real@40800000            00449048     NxAllVehicle.obj
 0002:00001050       __real@bfe6666666666666    00449050     NxAllVehicle.obj
 0002:00001058       __real@bfe0000000000000    00449058     NxAllVehicle.obj
 0002:00001060       __real@3f4a3d71            00449060     NxAllVehicle.obj
 0002:00001064       __real@3e800000            00449064     NxAllVehicle.obj
 0002:00001068       __real@3f4ccccd            00449068     NxAllVehicle.obj
 0002:00001070       __real@bfe999999999999a    00449070     NxAllVehicle.obj
 0002:00001078       __real@3fb999999999999a    00449078     NxAllVehicle.obj
 0002:00001080       __real@3f666666            00449080     NxAllVehicle.obj
 0002:00001084       __real@3e4ccccd            00449084     NxAllVehicle.obj
 0002:00001088       __real@3f333333            00449088     NxAllVehicle.obj
 0002:0000108c       __real@3dcccccd            0044908c     NxAllVehicle.obj
 0002:00001090       __real@40000000            00449090     NxAllVehicle.obj
 0002:00001094       __real@3f000000            00449094     NxAllVehicle.obj
 0002:00001098       __real@3f800000            00449098     NxAllVehicle.obj
 0002:0000109c       __real@3c8efa35            0044909c     NxAllVehicle.obj
 0002:000010a0       ??_7NxBoxShapeDesc@@6B@    004490a0     NxAllVehicle.obj
 0002:000010ac       ??_7NxShapeDesc@@6B@       004490ac     NxAllVehicle.obj
 0002:000010b8       ??_7NxConvexShapeDesc@@6B@ 004490b8     NxAllVehicle.obj
 0002:000010c4       ??_C@_0BM@PAPJHAGI@invalid?5map?1set?$DMT?$DO?5iterator?$AA@ 004490c4     NxAllVehicle.obj
 0002:000010e0       ??_C@_0BE@JONHPENG@map?1set?$DMT?$DO?5too?5long?$AA@ 004490e0     NxAllVehicle.obj
 0002:000010f8       ??_C@_0FN@MHNPNPA@C?3?2Program?5Files?2AGEIA?5Technolog@ 004490f8     NxAllVehicle.obj
 0002:00001158       ??_C@_08PAIMBGIE@ElemType?$AA@ 00449158     NxAllVehicle.obj
 0002:00001284       ??_7NxTerrain@@6B@         00449284     NxTerrain.obj
 0002:00001288       ??_7NxTriangleMeshShapeDesc@@6B@ 00449288     NxTerrain.obj
 0002:00001294       __real@3ccccccd            00449294     NxTerrain.obj
 0002:00001298       __real@3c23d70a            00449298     NxTerrain.obj
 0002:000012f8       ??_7NxTerrainItem@@6B@     004492f8     NxTerrainItem.obj
 0002:00001300       ??_C@_0FN@LMCCFOPP@c?3?2program?5files?2ageia?5technolog@ 00449300     NxTerrainItem.obj
 0002:00001360       ??_7ItemTrigger@NxTerrainItem@@6B@ 00449360     NxTerrainItem.obj
 0002:00001364       ??_7NxUserTriggerReport@@6B@ 00449364     NxTerrainItem.obj
 0002:000013e0       ??_C@_0FB@JOKHHDEP@NxVehilceGearDesc?3?3isValid?$CI?$CJ?3?5fo@ 004493e0     NxVehicle.obj
 0002:00001438       ??_C@_0FL@MPHAMJGC@NxVehilceGearDesc?3?3isValid?$CI?$CJ?3?5ba@ 00449438     NxVehicle.obj
 0002:00001498       ??_C@_0EF@MACDDONF@NxVehicleGearDesc?3?3isValid?$CI?$CJ?3?5nb@ 00449498     NxVehicle.obj
 0002:000014e0       ??_C@_0EK@DDFNBEOK@NxVehicleGearDesc?3?3isValid?$CI?$CJ?3?5nb@ 004494e0     NxVehicle.obj
 0002:00001530       ??_C@_0GA@LPJFLBOA@NxVehicleMotorDesc?3?3isValid?$CI?$CJ?3?5m@ 00449530     NxVehicle.obj
 0002:00001590       ??_C@_0DC@LENHBHAF@NxVehicleMotorDesc?3?3isValid?$CI?$CJ?3?5E@ 00449590     NxVehicle.obj
 0002:000015c4       __real@41f00000            004495c4     NxVehicle.obj
 0002:000015c8       __real@42652ee1            004495c8     NxVehicle.obj
 0002:000015cc       __real@40a00000            004495cc     NxVehicle.obj
 0002:000015d0       __real@38d1b717            004495d0     NxVehicle.obj
 0002:000015d8       __real@3fceb851eb851eb8    004495d8     NxVehicle.obj
 0002:000015e0       __real@40400000            004495e0     NxVehicle.obj
 0002:000015e4       __real@41200000            004495e4     NxVehicle.obj
 0002:000015e8       __real@42c80000            004495e8     NxVehicle.obj
 0002:000015ec       __real@47000000            004495ec     NxVehicle.obj
 0002:000015f0       ??_7NxTireFunctionDesc@@6B@ 004495f0     NxVehicle.obj
 0002:00001614       ??_7NxWheel@@6B@           00449614     NxWheel.obj
 0002:00001638       ??_7NxWheelShapeDesc@@6B@  00449638     NxWheel.obj
 0002:00001648       __real@42700000            00449648     NxWheel.obj
 0002:00001860       ??_7OgreAllVehicle@@6B@    00449860     OgreAllVehicle.obj
 0002:00001864       ??_7OgreVehicle@@6B@       00449864     OgreAllVehicle.obj
 0002:00001868       ??_7OgreWheel@@6B@         00449868     OgreAllVehicle.obj
 0002:0000186c       ??_7OgreTerrainItem@@6B@   0044986c     OgreAllVehicle.obj
 0002:00001870       ??_C@_0BD@OLBABOEK@vector?$DMT?$DO?5too?5long?$AA@ 00449870     OgreAllVehicle.obj
 0002:00001948       ??_7OgreTerrain@@6B@       00449948     OgreTerrain.obj
 0002:00001980       ??_7type_info@@6B@         00449980     LIBCMTD:typinfo.obj
 0002:00001994       ??_C@_0P@NFGNABCI@string?5?$CB?$DN?5NULL?$AA@ 00449994     LIBCMTD:sprintf.obj
 0002:000019a4       ??_C@_09FNBBCGGI@sprintf?4c?$AA@ 004499a4     LIBCMTD:sprintf.obj
 0002:000019b0       ??_C@_0P@NHGFNCDP@format?5?$CB?$DN?5NULL?$AA@ 004499b0     LIBCMTD:sprintf.obj
 0002:000019cc       ??_C@_08GNMOIKDK@onexit?4c?$AA@ 004499cc     LIBCMTD:onexit.obj
 0002:000019d8       ??_C@_08BDNGOBJJ@fclose?4c?$AA@ 004499d8     LIBCMTD:fclose.obj
 0002:000019e4       ??_C@_0P@FELNCIKG@stream?5?$CB?$DN?5NULL?$AA@ 004499e4     LIBCMTD:fclose.obj
 0002:00001a04       ??_C@_0M@CMNAFCJK@str?5?$CB?$DN?5NULL?$AA@ 00449a04     LIBCMTD:fclose.obj
 0002:00001a1c       ??_C@_0BC@LDFCGPMK@?$CKmode?5?$CB?$DN?5_T?$CI?8?20?8?$CJ?$AA@ 00449a1c     LIBCMTD:fopen.obj
 0002:00001a30       ??_C@_0N@HDDIJGHA@mode?5?$CB?$DN?5NULL?$AA@ 00449a30     LIBCMTD:fopen.obj
 0002:00001a40       ??_C@_0BC@JKMANOLD@?$CKfile?5?$CB?$DN?5_T?$CI?8?20?8?$CJ?$AA@ 00449a40     LIBCMTD:fopen.obj
 0002:00001a54       ??_C@_07MKNJDOE@fopen?4c?$AA@ 00449a54     LIBCMTD:fopen.obj
 0002:00001a5c       ??_C@_0N@MBAPGNHG@file?5?$CB?$DN?5NULL?$AA@ 00449a5c     LIBCMTD:fopen.obj
 0002:00001ac0       __real@0000000000000000    00449ac0     LIBCMTD:ieeemisc.obj
 0002:00001ac8       __real@3ff0000000000000    00449ac8     LIBCMTD:ieeemisc.obj
 0002:00001ad0       ??_C@_06PJIGMIJB@Client?$AA@ 00449ad0     LIBCMTD:dbgheap.obj
 0002:00001ad8       ??_C@_06KMEJCCGM@Ignore?$AA@ 00449ad8     LIBCMTD:dbgheap.obj
 0002:00001ae0       ??_C@_03OGPFLFLO@CRT?$AA@  00449ae0     LIBCMTD:dbgheap.obj
 0002:00001ae4       ??_C@_06EFAGIKOH@Normal?$AA@ 00449ae4     LIBCMTD:dbgheap.obj
 0002:00001aec       ??_C@_04HJMOFLDF@Free?$AA@ 00449aec     LIBCMTD:dbgheap.obj
 0002:00001b04       ??_C@_0DC@JEMAGEKG@Error?3?5memory?5allocation?3?5bad?5me@ 00449b04     LIBCMTD:dbgheap.obj
 0002:00001b38       ??_C@_0CF@BICKFLAF@Invalid?5allocation?5size?3?5?$CFIu?5byt@ 00449b38     LIBCMTD:dbgheap.obj
 0002:00001b60       ??_C@_02DKCKIIND@?$CFs?$AA@ 00449b60     LIBCMTD:dbgheap.obj
 0002:00001b64       ??_C@_0CB@CCLOLAHO@Client?5hook?5allocation?5failure?4?6@ 00449b64     LIBCMTD:dbgheap.obj
 0002:00001b88       ??_C@_0DF@BBEGIFEK@Client?5hook?5allocation?5failure?5a@ 00449b88     LIBCMTD:dbgheap.obj
 0002:00001bc0       ??_C@_09DPMMACIH@dbgheap?4c?$AA@ 00449bc0     LIBCMTD:dbgheap.obj
 0002:00001bcc       ??_C@_0BC@FKEPGOPH@_CrtCheckMemory?$CI?$CJ?$AA@ 00449bcc     LIBCMTD:dbgheap.obj
 0002:00001bec       ??_C@_0BK@DJDKJKNJ@_pFirstBlock?5?$DN?$DN?5pOldBlock?$AA@ 00449bec     LIBCMTD:dbgheap.obj
 0002:00001c08       ??_C@_0BJ@PGMLBCKP@_pLastBlock?5?$DN?$DN?5pOldBlock?$AA@ 00449c08     LIBCMTD:dbgheap.obj
 0002:00001c24       ??_C@_0DC@LIEEBBFH@fRealloc?5?$HM?$HM?5?$CI?$CBfRealloc?5?$CG?$CG?5pNewBl@ 00449c24     LIBCMTD:dbgheap.obj
 0002:00001c58       ??_C@_0EF@BKJNHFDP@pOldBlock?9?$DOnLine?5?$DN?$DN?5IGNORE_LINE?5@ 00449c58     LIBCMTD:dbgheap.obj
 0002:00001ca0       ??_C@_0CC@MCCNOMLK@_CrtIsValidHeapPointer?$CIpUserData@ 00449ca0     LIBCMTD:dbgheap.obj
 0002:00001cc8       ??_C@_0EM@LGFLMAGJ@The?5Block?5at?50x?$CFp?5was?5allocated?5@ 00449cc8     LIBCMTD:dbgheap.obj
 0002:00001d14       ??_C@_0CO@KPNFNEPA@Allocation?5too?5large?5or?5negative@ 00449d14     LIBCMTD:dbgheap.obj
 0002:00001d44       ??_C@_0CE@DOFMDOL@Client?5hook?5re?9allocation?5failur@ 00449d44     LIBCMTD:dbgheap.obj
 0002:00001d68       ??_C@_0DI@KKJPDPGM@Client?5hook?5re?9allocation?5failur@ 00449d68     LIBCMTD:dbgheap.obj
 0002:00001dbc       ??_C@_0BG@JDINNDDC@_pFirstBlock?5?$DN?$DN?5pHead?$AA@ 00449dbc     LIBCMTD:dbgheap.obj
 0002:00001dd4       ??_C@_0BF@LMGMGAEG@_pLastBlock?5?$DN?$DN?5pHead?$AA@ 00449dd4     LIBCMTD:dbgheap.obj
 0002:00001dec       ??_C@_0BO@LGCGBMOH@pHead?9?$DOnBlockUse?5?$DN?$DN?5nBlockUse?$AA@ 00449dec     LIBCMTD:dbgheap.obj
 0002:00001e0c       ??_C@_0DN@GKKPDMLN@pHead?9?$DOnLine?5?$DN?$DN?5IGNORE_LINE?5?$CG?$CG?5p@ 00449e0c     LIBCMTD:dbgheap.obj
 0002:00001e4c       ??_C@_0CI@CMGHMNIC@DAMAGE?3?5after?5?$CFhs?5block?5?$CI?$CD?$CFd?$CJ?5at@ 00449e4c     LIBCMTD:dbgheap.obj
 0002:00001e74       ??_C@_0CJ@OHOOBLKI@DAMAGE?3?5before?5?$CFhs?5block?5?$CI?$CD?$CFd?$CJ?5a@ 00449e74     LIBCMTD:dbgheap.obj
 0002:00001ea0       ??_C@_0CH@IAGMNLOM@_BLOCK_TYPE_IS_VALID?$CIpHead?9?$DOnBlo@ 00449ea0     LIBCMTD:dbgheap.obj
 0002:00001ec8       ??_C@_0BL@KEIPLFAC@Client?5hook?5free?5failure?4?6?$AA@ 00449ec8     LIBCMTD:dbgheap.obj
 0002:00001ee8       ??_C@_0EJ@HEIBCIMJ@The?5Block?5at?50x?$CFp?5was?5allocated?5@ 00449ee8     LIBCMTD:dbgheap.obj
 0002:00001f54       ??_C@_0CI@JMLBEDHJ@?$CFhs?5located?5at?50x?$CFp?5is?5?$CFIu?5bytes@ 00449f54     LIBCMTD:dbgheap.obj
 0002:00001f7c       ??_C@_0CA@FGFAGAOM@?$CFhs?5allocated?5at?5file?5?$CFhs?$CI?$CFd?$CJ?4?6?$AA@ 00449f7c     LIBCMTD:dbgheap.obj
 0002:00001f9c       ??_C@_0CH@JKKAOBEK@DAMAGE?3?5on?5top?5of?5Free?5block?5at?5@ 00449f9c     LIBCMTD:dbgheap.obj
 0002:00001fc4       ??_C@_07OHKEFPKJ@DAMAGED?$AA@ 00449fc4     LIBCMTD:dbgheap.obj
 0002:00001fcc       ??_C@_0CL@HNNNMKMJ@_heapchk?5fails?5with?5unknown?5retu@ 00449fcc     LIBCMTD:dbgheap.obj
 0002:00001ff8       ??_C@_0CC@MFFCHFHO@_heapchk?5fails?5with?5_HEAPBADPTR?4@ 00449ff8     LIBCMTD:dbgheap.obj
 0002:0000201c       ??_C@_0CC@MJGLGBDG@_heapchk?5fails?5with?5_HEAPBADEND?4@ 0044a01c     LIBCMTD:dbgheap.obj
 0002:00002040       ??_C@_0CD@CPKEAPBD@_heapchk?5fails?5with?5_HEAPBADNODE@ 0044a040     LIBCMTD:dbgheap.obj
 0002:00002064       ??_C@_0CE@MKKHMBMK@_heapchk?5fails?5with?5_HEAPBADBEGI@ 0044a064     LIBCMTD:dbgheap.obj
 0002:000020c4       ??_C@_0CB@EAAIGELO@Bad?5memory?5block?5found?5at?50x?$CFp?4?6@ 0044a0c4     LIBCMTD:dbgheap.obj
 0002:000020e8       ??_C@_0CI@KDKEAJEJ@_CrtMemCheckPoint?3?5NULL?5state?5po@ 0044a0e8     LIBCMTD:dbgheap.obj
 0002:0000211c       ??_C@_0CI@ENCLCMLG@_CrtMemDifference?3?5NULL?5state?5po@ 0044a11c     LIBCMTD:dbgheap.obj
 0002:00002144       ??_C@_0BH@GFGKJDCO@Object?5dump?5complete?4?6?$AA@ 0044a144     LIBCMTD:dbgheap.obj
 0002:0000215c       ??_C@_0DA@MDLBNIBM@crt?5block?5at?50x?$CFp?0?5subtype?5?$CFx?0?5?$CF@ 0044a15c     LIBCMTD:dbgheap.obj
 0002:0000218c       ??_C@_0CH@FAGDDGPN@normal?5block?5at?50x?$CFp?0?5?$CFIu?5bytes?5@ 0044a18c     LIBCMTD:dbgheap.obj
 0002:000021b4       ??_C@_0DD@GHNAAKBB@client?5block?5at?50x?$CFp?0?5subtype?5?$CFx@ 0044a1b4     LIBCMTD:dbgheap.obj
 0002:000021e8       ??_C@_06PKLGBFGM@?$HL?$CFld?$HN?5?$AA@ 0044a1e8     LIBCMTD:dbgheap.obj
 0002:000021f0       ??_C@_0L@JMEFFCCJ@?$CFhs?$CI?$CFd?$CJ?5?3?5?$AA@ 0044a1f0     LIBCMTD:dbgheap.obj
 0002:000021fc       ??_C@_0BE@OIEFNFL@?$CDFile?5Error?$CD?$CI?$CFd?$CJ?5?3?5?$AA@ 0044a1fc     LIBCMTD:dbgheap.obj
 0002:00002210       ??_C@_0BE@KCIPKCIA@Dumping?5objects?5?9?$DO?6?$AA@ 0044a210     LIBCMTD:dbgheap.obj
 0002:00002234       ??_C@_0BA@HJBKCELP@?5Data?3?5?$DM?$CFs?$DO?5?$CFs?6?$AA@ 0044a234     LIBCMTD:dbgheap.obj
 0002:00002244       ??_C@_05MKKEDADM@?$CF?42X?5?$AA@ 0044a244     LIBCMTD:dbgheap.obj
 0002:0000224c       ??_C@_0BI@JBFPOEJA@Detected?5memory?5leaks?$CB?6?$AA@ 0044a24c     LIBCMTD:dbgheap.obj
 0002:00002264       ??_C@_0BP@DEDHGGGI@Total?5allocations?3?5?$CFId?5bytes?4?6?$AA@ 0044a264     LIBCMTD:dbgheap.obj
 0002:00002284       ??_C@_0CB@BLHDAFNE@Largest?5number?5used?3?5?$CFId?5bytes?4?6@ 0044a284     LIBCMTD:dbgheap.obj
 0002:000022a8       ??_C@_0BO@DACNIABB@?$CFId?5bytes?5in?5?$CFId?5?$CFhs?5Blocks?4?6?$AA@ 0044a2a8     LIBCMTD:dbgheap.obj
 0002:000022c8       ??_C@_0CC@GFBJAAAH@?$CI?$CCoffset?5must?5be?5within?5size?$CC?0?50@ 0044a2c8     LIBCMTD:dbgheap.obj
 0002:000022ec       ??_C@_0CF@PGBEDOC@?$CI?$CCalignment?5must?5be?5a?5power?5of?52@ 0044a2ec     LIBCMTD:dbgheap.obj
 0002:00002314       ??_C@_0DL@PGHMMKNE@Damage?5before?50x?$CFp?5which?5was?5all@ 0044a314     LIBCMTD:dbgheap.obj
 0002:00002350       ??_C@_0EI@NDNJMAJK@The?5block?5at?50x?$CFp?5was?5not?5alloca@ 0044a350     LIBCMTD:dbgheap.obj
 0002:00002398       ??_C@_0EF@PGELACII@The?5block?5at?50x?$CFp?5was?5not?5alloca@ 0044a398     LIBCMTD:dbgheap.obj
 0002:000023e4       ??_7exception@@6B@         0044a3e4     LIBCMTD:stdexcpt.obj
 0002:000023ec       ??_C@_0BC@EOODALEL@Unknown?5exception?$AA@ 0044a3ec     LIBCMTD:stdexcpt.obj
 0002:00002404       ??_7bad_cast@@6B@          0044a404     LIBCMTD:stdexcpt.obj
 0002:00002410       ??_7bad_typeid@@6B@        0044a410     LIBCMTD:stdexcpt.obj
 0002:0000241c       ??_7__non_rtti_object@@6B@ 0044a41c     LIBCMTD:stdexcpt.obj
 0002:00002424       ??_C@_02PHMGELLB@?6?6?$AA@ 0044a424     LIBCMTD:assert.obj
 0002:00002428       ??_C@_01EEMJAFIK@?6?$AA@   0044a428     LIBCMTD:assert.obj
 0002:0000242c       ??_C@_03KHICJKCI@?4?4?4?$AA@ 0044a42c     LIBCMTD:assert.obj
 0002:00002430       ??_C@_0CF@GOGNBNAK@Microsoft?5Visual?5C?$CL?$CL?5Runtime?5Lib@ 0044a430     LIBCMTD:assert.obj
 0002:00002458       ??_C@_0DN@EBBNMLME@?$CIPress?5Retry?5to?5debug?5the?5applic@ 0044a458     LIBCMTD:assert.obj
 0002:00002498       ??_C@_0HA@OJHAGA@For?5information?5on?5how?5your?5prog@ 0044a498     LIBCMTD:assert.obj
 0002:00002508       ??_C@_0N@MEECIJGN@Expression?3?5?$AA@ 0044a508     LIBCMTD:assert.obj
 0002:00002518       ??_C@_06FIEBOLOH@Line?3?5?$AA@ 0044a518     LIBCMTD:assert.obj
 0002:00002520       ??_C@_06IGPBOHMJ@File?3?5?$AA@ 0044a520     LIBCMTD:assert.obj
 0002:00002528       ??_C@_0BH@DNAGHKFM@?$DMprogram?5name?5unknown?$DO?$AA@ 0044a528     LIBCMTD:assert.obj
 0002:00002540       ??_C@_09KLGCKDOD@Program?3?5?$AA@ 0044a540     LIBCMTD:assert.obj
 0002:0000254c       ??_C@_0BC@LAIDCHCH@Assertion?5failed?$CB?$AA@ 0044a54c     LIBCMTD:assert.obj
 0002:00002560       ??_C@_09JMJGGMME@fprintf?4c?$AA@ 0044a560     LIBCMTD:fprintf.obj
 0002:0000257c       ??_C@_07PNHPCIEC@_file?4c?$AA@ 0044a57c     LIBCMTD:_file.obj
 0002:00002598       ??_C@_0KA@JEHFIFGP@A?5buffer?5overrun?5has?5been?5detect@ 0044a598     LIBCMTD:secfail.obj
 0002:00002638       ??_C@_0BJ@MDEKIEOJ@Buffer?5overrun?5detected?$CB?$AA@ 0044a638     LIBCMTD:secfail.obj
 0002:00002658       ??_C@_0LB@BPLHHLFD@A?5security?5error?5of?5unknown?5caus@ 0044a658     LIBCMTD:secfail.obj
 0002:0000270c       ??_C@_0CD@GMKACBEK@Unknown?5security?5failure?5detecte@ 0044a70c     LIBCMTD:secfail.obj
 0002:00002740       __real@4150017ec0000000    0044a740     LIBCMTD:testfdiv.obj
 0002:00002748       __real@4147ffff80000000    0044a748     LIBCMTD:testfdiv.obj
 0002:00002750       ??_C@_0BK@NHEOCAHP@IsProcessorFeaturePresent?$AA@ 0044a750     LIBCMTD:testfdiv.obj
 0002:0000276c       ??_C@_08CPNIBGIE@KERNEL32?$AA@ 0044a76c     LIBCMTD:testfdiv.obj
 0002:00002778       ??_C@_05KLBDPFGC@e?$CL000?$AA@ 0044a778     LIBCMTD:cvt.obj
 0002:000027ec       ??_C@_0L@JKCACIOJ@tidtable?4c?$AA@ 0044a7ec     LIBCMTD:tidtable.obj
 0002:000027f8       ??_C@_07PEJMOBNF@FlsFree?$AA@ 0044a7f8     LIBCMTD:tidtable.obj
 0002:00002800       ??_C@_0M@JCPCPOEF@FlsSetValue?$AA@ 0044a800     LIBCMTD:tidtable.obj
 0002:0000280c       ??_C@_0M@GDNOONDI@FlsGetValue?$AA@ 0044a80c     LIBCMTD:tidtable.obj
 0002:00002818       ??_C@_08KNHFBNJ@FlsAlloc?$AA@ 0044a818     LIBCMTD:tidtable.obj
 0002:00002824       ??_C@_0N@MDJJJHMB@kernel32?4dll?$AA@ 0044a824     LIBCMTD:tidtable.obj
 0002:0000286c       ??_C@_07CKDBCAPD@mlock?4c?$AA@ 0044a86c     LIBCMTD:mlock.obj
 0002:00002894       ??_C@_0DP@FICHPIPH@?$CI?$CCinconsistent?5IOB?5fields?$CC?0?5stre@ 0044a894     LIBCMTD:_flsbuf.obj
 0002:000028d4       ??_C@_09DHJHPHJP@_flsbuf?4c?$AA@ 0044a8d4     LIBCMTD:_flsbuf.obj
 0002:000028e0       ___lookuptable             0044a8e0     LIBCMTD:output.obj
 0002:0000293c       ??_C@_1O@CEDCILHN@?$AA?$CI?$AAn?$AAu?$AAl?$AAl?$AA?$CJ?$AA?$AA@ 0044a93c     LIBCMTD:output.obj
 0002:0000294c       ??_C@_06OJHGLDPL@?$CInull?$CJ?$AA@ 0044a94c     LIBCMTD:output.obj
 0002:00002954       ??_C@_08MEPFMIND@output?4c?$AA@ 0044a954     LIBCMTD:output.obj
 0002:00002960       ??_C@_0P@LGFCLPDP@ch?5?$CB?$DN?5_T?$CI?8?20?8?$CJ?$AA@ 0044a960     LIBCMTD:output.obj
 0002:00002970       ??_C@_0BB@NAGLCMLI@Assertion?5Failed?$AA@ 0044a970     LIBCMTD:dbgrpt.obj
 0002:00002984       ??_C@_05NAOIJFC@Error?$AA@ 0044a984     LIBCMTD:dbgrpt.obj
 0002:0000298c       ??_C@_07KGMMFLDN@Warning?$AA@ 0044a98c     LIBCMTD:dbgrpt.obj
 0002:00002994       ??_C@_08ODMAMGBE@dbgrpt?4c?$AA@ 0044a994     LIBCMTD:dbgrpt.obj
 0002:000029ac       ??_C@_0M@IPILFDFN@?$CFs?$CI?$CFd?$CJ?5?3?5?$CFs?$AA@ 0044a9ac     LIBCMTD:dbgrpt.obj
 0002:000029b8       ??_C@_01LIIJDEN@?$AN?$AA@  0044a9b8     LIBCMTD:dbgrpt.obj
 0002:000029bc       ??_C@_0BD@CAENFOHP@Assertion?5failed?3?5?$AA@ 0044a9bc     LIBCMTD:dbgrpt.obj
 0002:000029d0       ??_C@_0CL@EACFGMNB@_CrtDbgReport?3?5String?5too?5long?5o@ 0044a9d0     LIBCMTD:dbgrpt.obj
 0002:000029fc       ??_C@_0DC@HLHDIIKH@Second?5Chance?5Assertion?5Failed?3?5@ 0044a9fc     LIBCMTD:dbgrpt.obj
 0002:00002a30       ??_C@_09FOPFMPEJ@wsprintfA?$AA@ 0044aa30     LIBCMTD:dbgrpt.obj
 0002:00002a3c       ??_C@_0L@GMPLCCII@user32?4dll?$AA@ 0044aa3c     LIBCMTD:dbgrpt.obj
 0002:00002a54       ??_C@_0CD@EBCGLDDL@Microsoft?5Visual?5C?$CL?$CL?5Debug?5Libra@ 0044aa54     LIBCMTD:dbgrpt.obj
 0002:00002a78       ??_C@_0FD@IIKNDPHJ@Debug?5?$CFs?$CB?6?6Program?3?5?$CFs?$CFs?$CFs?$CFs?$CFs?$CFs@ 0044aa78     LIBCMTD:dbgrpt.obj
 0002:00002acc       ??_C@_09OFBFHMBK@?6Module?3?5?$AA@ 0044aacc     LIBCMTD:dbgrpt.obj
 0002:00002ad8       ??_C@_07OPHPPLBG@?6File?3?5?$AA@ 0044aad8     LIBCMTD:dbgrpt.obj
 0002:00002ae0       ??_C@_07DBMPPHDI@?6Line?3?5?$AA@ 0044aae0     LIBCMTD:dbgrpt.obj
 0002:00002ae8       ??_C@_0HD@GNBNFCCL@?6?6For?5information?5on?5how?5your?5pr@ 0044aae8     LIBCMTD:dbgrpt.obj
 0002:00002b5c       ??_C@_0BG@IHOEIIEJ@szUserMessage?5?$CB?$DN?5NULL?$AA@ 0044ab5c     LIBCMTD:dbgrpt.obj
 0002:00002b84       ??_C@_0P@MIGLKIOC@CorExitProcess?$AA@ 0044ab84     LIBCMTD:crt0dat.obj
 0002:00002b94       ??_C@_0M@MBOPBNBK@mscoree?4dll?$AA@ 0044ab94     LIBCMTD:crt0dat.obj
 0002:00002bac       ??_C@_0L@CKFHAPLH@_freebuf?4c?$AA@ 0044abac     LIBCMTD:_freebuf.obj
 0002:00002be0       ??_C@_09OOOBBFNM@_filbuf?4c?$AA@ 0044abe0     LIBCMTD:_filbuf.obj
 0002:00002bfc       ??_C@_07JGCPNLLC@_open?4c?$AA@ 0044abfc     LIBCMTD:_open.obj
 0002:00002c04       ??_C@_0BB@KFELMOAG@filename?5?$CB?$DN?5NULL?$AA@ 0044ac04     LIBCMTD:_open.obj
 0002:00002c18       ??_C@_08MKBBPGGN@stream?4c?$AA@ 0044ac18     LIBCMTD:stream.obj
 0002:00002c58       __DEFAULT_CW_in_mem        0044ac58     LIBCMTD:common.obj
 0002:00002c5a       __pi_by_2_to_61            0044ac5a     LIBCMTD:common.obj
 0002:00002c94       ??_C@_0L@KDOEJCKC@_nextafter?$AA@ 0044ac94     LIBCMTD:fpexcept.obj
 0002:00002ca0       ??_C@_05JGDBENOH@_logb?$AA@ 0044aca0     LIBCMTD:fpexcept.obj
 0002:00002ca8       ??_C@_03ONILCKOB@_yn?$AA@  0044aca8     LIBCMTD:fpexcept.obj
 0002:00002cac       ??_C@_03NAKIGLHK@_y1?$AA@  0044acac     LIBCMTD:fpexcept.obj
 0002:00002cb0       ??_C@_03MJLDFKDL@_y0?$AA@  0044acb0     LIBCMTD:fpexcept.obj
 0002:00002cb4       ??_C@_05GKKHEGJL@frexp?$AA@ 0044acb4     LIBCMTD:fpexcept.obj
 0002:00002cbc       ??_C@_04KEPJIHGP@fmod?$AA@ 0044acbc     LIBCMTD:fpexcept.obj
 0002:00002cc4       ??_C@_06MEIMCGCF@_hypot?$AA@ 0044acc4     LIBCMTD:fpexcept.obj
 0002:00002ccc       ??_C@_05KBKMEMPO@_cabs?$AA@ 0044accc     LIBCMTD:fpexcept.obj
 0002:00002cd4       ??_C@_05CEJMAHNP@ldexp?$AA@ 0044acd4     LIBCMTD:fpexcept.obj
 0002:00002cdc       ??_C@_04EHEDPDJG@modf?$AA@ 0044acdc     LIBCMTD:fpexcept.obj
 0002:00002ce4       ??_C@_04ODHECPBC@fabs?$AA@ 0044ace4     LIBCMTD:fpexcept.obj
 0002:00002cec       ??_C@_05PBJFFIGL@floor?$AA@ 0044acec     LIBCMTD:fpexcept.obj
 0002:00002cf4       ??_C@_04GFPJNGEK@ceil?$AA@ 0044acf4     LIBCMTD:fpexcept.obj
 0002:00002cfc       ??_C@_03IIINPABG@tan?$AA@  0044acfc     LIBCMTD:fpexcept.obj
 0002:00002d00       ??_C@_03LALBNOCG@cos?$AA@  0044ad00     LIBCMTD:fpexcept.obj
 0002:00002d04       ??_C@_03BLEJJJBH@sin?$AA@  0044ad04     LIBCMTD:fpexcept.obj
 0002:00002d08       ??_C@_04EIAKFFMI@sqrt?$AA@ 0044ad08     LIBCMTD:fpexcept.obj
 0002:00002d10       ??_C@_05KNGEOGJB@atan2?$AA@ 0044ad10     LIBCMTD:fpexcept.obj
 0002:00002d18       ??_C@_04MLLJIGOK@atan?$AA@ 0044ad18     LIBCMTD:fpexcept.obj
 0002:00002d20       ??_C@_04PDIFKINK@acos?$AA@ 0044ad20     LIBCMTD:fpexcept.obj
 0002:00002d28       ??_C@_04FIHNOPOL@asin?$AA@ 0044ad28     LIBCMTD:fpexcept.obj
 0002:00002d30       ??_C@_04FJHINJAO@tanh?$AA@ 0044ad30     LIBCMTD:fpexcept.obj
 0002:00002d38       ??_C@_04HPJJNFIM@cosh?$AA@ 0044ad38     LIBCMTD:fpexcept.obj
 0002:00002d40       ??_C@_04COOMCNPB@sinh?$AA@ 0044ad40     LIBCMTD:fpexcept.obj
 0002:00002d48       ??_C@_05HGHHAHAP@log10?$AA@ 0044ad48     LIBCMTD:fpexcept.obj
 0002:00002d50       ??_C@_03MGHMBJCF@log?$AA@  0044ad50     LIBCMTD:fpexcept.obj
 0002:00002d54       ??_C@_03JGHBODFD@pow?$AA@  0044ad54     LIBCMTD:fpexcept.obj
 0002:00002d58       ??_C@_03KHJOGHMM@exp?$AA@  0044ad58     LIBCMTD:fpexcept.obj
 0002:00002f20       ??_C@_07LCBHPJJN@LC_TIME?$AA@ 0044af20     LIBCMTD:setlocal.obj
 0002:00002f28       ??_C@_0L@DLHIECNL@LC_NUMERIC?$AA@ 0044af28     LIBCMTD:setlocal.obj
 0002:00002f34       ??_C@_0M@MIENIKLA@LC_MONETARY?$AA@ 0044af34     LIBCMTD:setlocal.obj
 0002:00002f40       ??_C@_08EADHIDAD@LC_CTYPE?$AA@ 0044af40     LIBCMTD:setlocal.obj
 0002:00002f4c       ??_C@_0L@KFJHEKIK@LC_COLLATE?$AA@ 0044af4c     LIBCMTD:setlocal.obj
 0002:00002f58       ??_C@_06NEFDFEKB@LC_ALL?$AA@ 0044af58     LIBCMTD:setlocal.obj
 0002:00002f6c       ??_C@_0L@LEECJGMI@setlocal?4c?$AA@ 0044af6c     LIBCMTD:setlocal.obj
 0002:00002f84       ??_C@_01ICJEACDI@?$DL?$AA@ 0044af84     LIBCMTD:setlocal.obj
 0002:00002f88       ??_C@_02BALPLPBG@?$DN?$DL?$AA@ 0044af88     LIBCMTD:setlocal.obj
 0002:00002f8c       ??_C@_01NEMOKFLO@?$DN?$AA@ 0044af8c     LIBCMTD:setlocal.obj
 0002:00002f90       ??_C@_03EGDHDPFD@_?4?0?$AA@ 0044af90     LIBCMTD:setlocal.obj
 0002:00002f94       ??_C@_01LFCBOECM@?4?$AA@   0044af94     LIBCMTD:setlocal.obj
 0002:00002f98       ??_C@_01IDAFKMJL@_?$AA@    0044af98     LIBCMTD:setlocal.obj
 0002:00002f9c       ??_C@_09BLOOPMDK@isctype?4c?$AA@ 0044af9c     LIBCMTD:isctype.obj
 0002:00002fa8       ??_C@_0BJ@IAKBGELC@?$CIunsigned?$CJ?$CIc?5?$CL?51?$CJ?5?$DM?$DN?5256?$AA@ 0044afa8     LIBCMTD:isctype.obj
 0002:00002fc4       ??_C@_08FKHPDPAC@winsig?4c?$AA@ 0044afc4     LIBCMTD:winsig.obj
 0002:00002ffc       ??_C@_0BI@DFKBFLJE@GetProcessWindowStation?$AA@ 0044affc     LIBCMTD:crtmbox.obj
 0002:00003014       ??_C@_0BK@CIDNPOGP@GetUserObjectInformationA?$AA@ 0044b014     LIBCMTD:crtmbox.obj
 0002:00003030       ??_C@_0BD@HHGDFDBJ@GetLastActivePopup?$AA@ 0044b030     LIBCMTD:crtmbox.obj
 0002:00003044       ??_C@_0BA@HNOPNCHB@GetActiveWindow?$AA@ 0044b044     LIBCMTD:crtmbox.obj
 0002:00003054       ??_C@_0M@CHKKJDAI@MessageBoxA?$AA@ 0044b054     LIBCMTD:crtmbox.obj
 0002:00003060       ??_C@_09KGBNCNDN@setvbuf?4c?$AA@ 0044b060     LIBCMTD:setvbuf.obj
 0002:0000307c       ??_C@_09IFKHNCOH@_sftbuf?4c?$AA@ 0044b07c     LIBCMTD:_sftbuf.obj
 0002:00003088       ??_C@_0BH@HIGALIFJ@flag?5?$DN?$DN?50?5?$HM?$HM?5flag?5?$DN?$DN?51?$AA@ 0044b088     LIBCMTD:_sftbuf.obj
 0002:000030a0       ??_C@_08MAFBHINM@ioinit?4c?$AA@ 0044b0a0     LIBCMTD:ioinit.obj
 0002:000030bc       ??_C@_0N@FFJGBINN@AuthenticAMD?$AA@ 0044b0bc     LIBCMTD:cpu_disp.obj
 0002:00006bc0       __real@4000000000000000    0044ebc0     LIBCMTD:powhlp.obj
 0002:00006bc8       ??_C@_09HCDLHOJP@stdenvp?4c?$AA@ 0044ebc8     LIBCMTD:stdenvp.obj
 0002:00006bd4       ??_C@_09IKILHJIC@stdargv?4c?$AA@ 0044ebd4     LIBCMTD:stdargv.obj
 0002:00006be0       ??_C@_07BPGNOCOG@a_env?4c?$AA@ 0044ebe0     LIBCMTD:a_env.obj
 0002:00006c04       ??_C@_0P@GGKDKEEG@runtime?5error?5?$AA@ 0044ec04     LIBCMTD:crt0msg.obj
 0002:00006c14       ??_C@_02PCIJFNDE@?$AN?6?$AA@ 0044ec14     LIBCMTD:crt0msg.obj
 0002:00006c18       ??_C@_0O@MJNIPGOH@TLOSS?5error?$AN?6?$AA@ 0044ec18     LIBCMTD:crt0msg.obj
 0002:00006c28       ??_C@_0N@BONNPDHF@SING?5error?$AN?6?$AA@ 0044ec28     LIBCMTD:crt0msg.obj
 0002:00006c38       ??_C@_0P@MBDAJNE@DOMAIN?5error?$AN?6?$AA@ 0044ec38     LIBCMTD:crt0msg.obj
 0002:00006c48       ??_C@_0KC@BDDGGBEJ@R6029?$AN?6?9?5This?5application?5cannot@ 0044ec48     LIBCMTD:crt0msg.obj
 0002:00006cec       ??_C@_0CF@KJDAIALP@R6028?$AN?6?9?5unable?5to?5initialize?5he@ 0044ecec     LIBCMTD:crt0msg.obj
 0002:00006d14       ??_C@_0DF@GAKBPDFP@R6027?$AN?6?9?5not?5enough?5space?5for?5lo@ 0044ed14     LIBCMTD:crt0msg.obj
 0002:00006d4c       ??_C@_0DF@IBLNNAIG@R6026?$AN?6?9?5not?5enough?5space?5for?5st@ 0044ed4c     LIBCMTD:crt0msg.obj
 0002:00006d84       ??_C@_0CG@IOHKGFNJ@R6025?$AN?6?9?5pure?5virtual?5function?5c@ 0044ed84     LIBCMTD:crt0msg.obj
 0002:00006dac       ??_C@_0DF@JIJJFJDC@R6024?$AN?6?9?5not?5enough?5space?5for?5_o@ 0044edac     LIBCMTD:crt0msg.obj
 0002:00006de4       ??_C@_0CJ@EGEJHFME@R6019?$AN?6?9?5unable?5to?5open?5console?5@ 0044ede4     LIBCMTD:crt0msg.obj
 0002:00006e10       ??_C@_0CB@GNHNIELH@R6018?$AN?6?9?5unexpected?5heap?5error?$AN?6@ 0044ee10     LIBCMTD:crt0msg.obj
 0002:00006e34       ??_C@_0CN@FOLDKNG@R6017?$AN?6?9?5unexpected?5multithread?5@ 0044ee34     LIBCMTD:crt0msg.obj
 0002:00006e64       ??_C@_0CM@FAHFJNHO@R6016?$AN?6?9?5not?5enough?5space?5for?5th@ 0044ee64     LIBCMTD:crt0msg.obj
 0002:00006e90       ??_C@_0JG@LBKMGKLD@?$AN?6This?5application?5has?5requested@ 0044ee90     LIBCMTD:crt0msg.obj
 0002:00006f28       ??_C@_0CM@FLCNIPKK@R6009?$AN?6?9?5not?5enough?5space?5for?5en@ 0044ef28     LIBCMTD:crt0msg.obj
 0002:00006f54       ??_C@_0CK@KMMJOAPP@R6008?$AN?6?9?5not?5enough?5space?5for?5ar@ 0044ef54     LIBCMTD:crt0msg.obj
 0002:00006f80       ??_C@_0CF@HOHMHDEK@R6002?$AN?6?9?5floating?5point?5not?5load@ 0044ef80     LIBCMTD:crt0msg.obj
 0002:00006fa8       ??_C@_0BK@OFGJDLJJ@Runtime?5Error?$CB?6?6Program?3?5?$AA@ 0044efa8     LIBCMTD:crt0msg.obj
 0002:00006fd4       ??_C@_09KJLOAKHC@mbctype?4c?$AA@ 0044efd4     LIBCMTD:mbctype.obj
 0002:00006fec       ??_C@_0CG@PKBDLMEO@InitializeCriticalSectionAndSpin@ 0044efec     LIBCMTD:initcrit.obj
 0002:00007034       ??_C@_09PKAEMGHJ@_getbuf?4c?$AA@ 0044f034     LIBCMTD:_getbuf.obj
 0002:00007040       ___newctype                0044f040     LIBCMTD:ctype.obj
 0002:00007340       __wctype                   0044f340     LIBCMTD:ctype.obj
 0002:00007544       ??_C@_0CP@PEILCOHB@f?3?2vs70builds?23077?2vc?2crtbld?2crt@ 0044f544     LIBCMTD:snprintf.obj
 0002:00007574       ??_C@_0DA@KHEJFFIK@f?3?2vs70builds?23077?2vc?2crtbld?2crt@ 0044f574     LIBCMTD:vsnprint.obj
 0002:000075a4       ??_C@_09MGNHMPHC@osfinfo?4c?$AA@ 0044f5a4     LIBCMTD:osfinfo.obj
 0002:00007624       ??_C@_08JCCMCCIL@HH?3mm?3ss?$AA@ 0044f624     LIBCMTD:strftime.obj
 0002:00007630       ??_C@_0BE@CKGJFCPC@dddd?0?5MMMM?5dd?0?5yyyy?$AA@ 0044f630     LIBCMTD:strftime.obj
 0002:00007644       ??_C@_08BPBNCDIB@MM?1dd?1yy?$AA@ 0044f644     LIBCMTD:strftime.obj
 0002:00007650       ??_C@_02CJNFDJBF@PM?$AA@   0044f650     LIBCMTD:strftime.obj
 0002:00007654       ??_C@_02DEDBPAFC@AM?$AA@   0044f654     LIBCMTD:strftime.obj
 0002:00007658       ??_C@_08EDHMEBNP@December?$AA@ 0044f658     LIBCMTD:strftime.obj
 0002:00007664       ??_C@_08HCHEGEOA@November?$AA@ 0044f664     LIBCMTD:strftime.obj
 0002:00007670       ??_C@_07JJNFCEND@October?$AA@ 0044f670     LIBCMTD:strftime.obj
 0002:00007678       ??_C@_09BHHEALKD@September?$AA@ 0044f678     LIBCMTD:strftime.obj
 0002:00007684       ??_C@_06LBBHFDDG@August?$AA@ 0044f684     LIBCMTD:strftime.obj
 0002:0000768c       ??_C@_04MIEPOIFP@July?$AA@ 0044f68c     LIBCMTD:strftime.obj
 0002:00007694       ??_C@_04CNLMGBGM@June?$AA@ 0044f694     LIBCMTD:strftime.obj
 0002:0000769c       ??_C@_05DMJDNLEJ@April?$AA@ 0044f69c     LIBCMTD:strftime.obj
 0002:000076a4       ??_C@_05HPCKOFNC@March?$AA@ 0044f6a4     LIBCMTD:strftime.obj
 0002:000076ac       ??_C@_08GNJGEPFN@February?$AA@ 0044f6ac     LIBCMTD:strftime.obj
 0002:000076b8       ??_C@_07CGJPFGJA@January?$AA@ 0044f6b8     LIBCMTD:strftime.obj
 0002:000076c0       ??_C@_03MKABNOCG@Dec?$AA@  0044f6c0     LIBCMTD:strftime.obj
 0002:000076c4       ??_C@_03JPJOFNIA@Nov?$AA@  0044f6c4     LIBCMTD:strftime.obj
 0002:000076c8       ??_C@_03BMAOKBAD@Oct?$AA@  0044f6c8     LIBCMTD:strftime.obj
 0002:000076cc       ??_C@_03GGCAPAJC@Sep?$AA@  0044f6cc     LIBCMTD:strftime.obj
 0002:000076d0       ??_C@_03IFJFEIGA@Aug?$AA@  0044f6d0     LIBCMTD:strftime.obj
 0002:000076d4       ??_C@_03LBGABGKK@Jul?$AA@  0044f6d4     LIBCMTD:strftime.obj
 0002:000076d8       ??_C@_03IDFGHECI@Jun?$AA@  0044f6d8     LIBCMTD:strftime.obj
 0002:000076dc       ??_C@_03CNMDKL@May?$AA@    0044f6dc     LIBCMTD:strftime.obj
 0002:000076e0       ??_C@_03LEOLGMJP@Apr?$AA@  0044f6e0     LIBCMTD:strftime.obj
 0002:000076e4       ??_C@_03ODNJBKGA@Mar?$AA@  0044f6e4     LIBCMTD:strftime.obj
 0002:000076e8       ??_C@_03HJBDCHOM@Feb?$AA@  0044f6e8     LIBCMTD:strftime.obj
 0002:000076ec       ??_C@_03JIHJHPIE@Jan?$AA@  0044f6ec     LIBCMTD:strftime.obj
 0002:000076f0       ??_C@_08INBOOONO@Saturday?$AA@ 0044f6f0     LIBCMTD:strftime.obj
 0002:000076fc       ??_C@_06JECMNKMI@Friday?$AA@ 0044f6fc     LIBCMTD:strftime.obj
 0002:00007704       ??_C@_08HACCIKIA@Thursday?$AA@ 0044f704     LIBCMTD:strftime.obj
 0002:00007710       ??_C@_09DLIGFAKA@Wednesday?$AA@ 0044f710     LIBCMTD:strftime.obj
 0002:0000771c       ??_C@_07BAAGCFCM@Tuesday?$AA@ 0044f71c     LIBCMTD:strftime.obj
 0002:00007724       ??_C@_06JLEDEDGH@Monday?$AA@ 0044f724     LIBCMTD:strftime.obj
 0002:0000772c       ??_C@_06OOPIFAJ@Sunday?$AA@ 0044f72c     LIBCMTD:strftime.obj
 0002:00007734       ??_C@_03FEFJNEK@Sat?$AA@   0044f734     LIBCMTD:strftime.obj
 0002:00007738       ??_C@_03IDIOELNC@Fri?$AA@  0044f738     LIBCMTD:strftime.obj
 0002:0000773c       ??_C@_03IOFIKPDN@Thu?$AA@  0044f73c     LIBCMTD:strftime.obj
 0002:00007740       ??_C@_03MHOMLAJA@Wed?$AA@  0044f740     LIBCMTD:strftime.obj
 0002:00007744       ??_C@_03NAGEINEP@Tue?$AA@  0044f744     LIBCMTD:strftime.obj
 0002:00007748       ??_C@_03PDAGKDH@Mon?$AA@   0044f748     LIBCMTD:strftime.obj
 0002:0000774c       ??_C@_03KOEHGMDN@Sun?$AA@  0044f74c     LIBCMTD:strftime.obj
 0002:00007750       ??_C@_0L@OCEOFAIF@strftime?4c?$AA@ 0044f750     LIBCMTD:strftime.obj
 0002:0000775c       ??_C@_0DJ@BLPIACFC@?$CI?$CCInvalid?5MBCS?5character?5sequenc@ 0044f75c     LIBCMTD:strftime.obj
 0002:00007798       ??_C@_0DD@GLPHLKIC@?$CI?$CCZero?5length?5output?5buffer?5pass@ 0044f798     LIBCMTD:strftime.obj
 0002:000077cc       ??_C@_0DL@LLHFCBKO@?$CI?$CCInvalid?5MBCS?5character?5sequenc@ 0044f7cc     LIBCMTD:strftime.obj
 0002:00007808       ??_C@_0EC@CJNAOFBG@?$CI?$CCInvalid?5MBCS?5character?5sequenc@ 0044f808     LIBCMTD:strftime.obj
 0002:0000784c       ??_C@_03EBAPMIKO@a?1p?$AA@ 0044f84c     LIBCMTD:strftime.obj
 0002:00007850       ??_C@_05JAMEPDIN@am?1pm?$AA@ 0044f850     LIBCMTD:strftime.obj
 0002:00007864       ??_C@_0L@IOJADHBB@inittime?4c?$AA@ 0044f864     LIBCMTD:inittime.obj
 0002:00007870       ??_C@_09MECGNAGI@initnum?4c?$AA@ 0044f870     LIBCMTD:initnum.obj
 0002:0000787c       ??_C@_09HKFHICAL@initmon?4c?$AA@ 0044f87c     LIBCMTD:initmon.obj
 0002:00007888       ??_C@_0L@GBAGBCPL@initctyp?4c?$AA@ 0044f888     LIBCMTD:initctyp.obj
 0002:00007894       ??_C@_07GPNABLBE@a_str?4c?$AA@ 0044f894     LIBCMTD:a_str.obj
 0002:0000789c       ??_C@_13NOLLCAOD@?$AA?$AA?$AA?$AA@ 0044f89c     LIBCMTD:a_str.obj
 0002:000078b0       ___rgLocInfo               0044f8b0     LIBCMTD:getqloc.obj
 0002:00007d54       ??_C@_08PKBIPKE@Paraguay?$AA@ 0044fd54     LIBCMTD:getqloc.obj
 0002:00007d60       ??_C@_07GHBIBIBP@Uruguay?$AA@ 0044fd60     LIBCMTD:getqloc.obj
 0002:00007d68       ??_C@_05HBNKAPDN@Chile?$AA@ 0044fd68     LIBCMTD:getqloc.obj
 0002:00007d70       ??_C@_07FEIFIPNF@Ecuador?$AA@ 0044fd70     LIBCMTD:getqloc.obj
 0002:00007d78       ??_C@_09PGNFPGME@Argentina?$AA@ 0044fd78     LIBCMTD:getqloc.obj
 0002:00007d84       ??_C@_04IALPBJF@Peru?$AA@  0044fd84     LIBCMTD:getqloc.obj
 0002:00007d8c       ??_C@_08IJPLNLKH@Colombia?$AA@ 0044fd8c     LIBCMTD:getqloc.obj
 0002:00007d98       ??_C@_09IDMFKCN@Venezuela?$AA@ 0044fd98     LIBCMTD:getqloc.obj
 0002:00007da4       ??_C@_0BD@DNEJOGOK@Dominican?5Republic?$AA@ 0044fda4     LIBCMTD:getqloc.obj
 0002:00007db8       ??_C@_0N@LPINDNDB@South?5Africa?$AA@ 0044fdb8     LIBCMTD:getqloc.obj
 0002:00007dc8       ??_C@_06BLJPEOBG@Panama?$AA@ 0044fdc8     LIBCMTD:getqloc.obj
 0002:00007dd0       ??_C@_0L@BOCNDGON@Luxembourg?$AA@ 0044fdd0     LIBCMTD:getqloc.obj
 0002:00007ddc       ??_C@_0L@CONEHKA@Costa?5Rica?$AA@ 0044fddc     LIBCMTD:getqloc.obj
 0002:00007de8       ??_C@_0M@KGBPELAM@Switzerland?$AA@ 0044fde8     LIBCMTD:getqloc.obj
 0002:00007df4       ??_C@_09FJGLIMAG@Guatemala?$AA@ 0044fdf4     LIBCMTD:getqloc.obj
 0002:00007e00       ??_C@_06ECHIPDMK@Canada?$AA@ 0044fe00     LIBCMTD:getqloc.obj
 0002:00007e08       ??_C@_0BG@CCEBNPGH@Spanish?5?9?5Modern?5Sort?$AA@ 0044fe08     LIBCMTD:getqloc.obj
 0002:00007e20       ??_C@_09EFGJAPAD@Australia?$AA@ 0044fe20     LIBCMTD:getqloc.obj
 0002:00007e2c       ??_C@_07NEKHPBCG@English?$AA@ 0044fe2c     LIBCMTD:getqloc.obj
 0002:00007e34       ??_C@_07LKIIOGFH@Austria?$AA@ 0044fe34     LIBCMTD:getqloc.obj
 0002:00007e3c       ??_C@_06EDDDIONA@German?$AA@ 0044fe3c     LIBCMTD:getqloc.obj
 0002:00007e44       ??_C@_07LIIIOFOA@Belgium?$AA@ 0044fe44     LIBCMTD:getqloc.obj
 0002:00007e4c       ??_C@_06DIAOLLEH@Mexico?$AA@ 0044fe4c     LIBCMTD:getqloc.obj
 0002:00007e54       ??_C@_07PFALJOGE@Spanish?$AA@ 0044fe54     LIBCMTD:getqloc.obj
 0002:00007e5c       ??_C@_06FFOOPAJB@Basque?$AA@ 0044fe5c     LIBCMTD:getqloc.obj
 0002:00007e64       ??_C@_06DGHNDJFJ@Sweden?$AA@ 0044fe64     LIBCMTD:getqloc.obj
 0002:00007e6c       ??_C@_07OBINPKFN@Swedish?$AA@ 0044fe6c     LIBCMTD:getqloc.obj
 0002:00007e74       ??_C@_07NCOIHDGC@Iceland?$AA@ 0044fe74     LIBCMTD:getqloc.obj
 0002:00007e7c       ??_C@_09JHBBDDIA@Icelandic?$AA@ 0044fe7c     LIBCMTD:getqloc.obj
 0002:00007e88       ??_C@_06COBCPIFO@France?$AA@ 0044fe88     LIBCMTD:getqloc.obj
 0002:00007e90       ??_C@_06GODMCAND@French?$AA@ 0044fe90     LIBCMTD:getqloc.obj
 0002:00007e98       ??_C@_07MFHPMOED@Finland?$AA@ 0044fe98     LIBCMTD:getqloc.obj
 0002:00007ea0       ??_C@_07MCEAMKOD@Finnish?$AA@ 0044fea0     LIBCMTD:getqloc.obj
 0002:00007ea8       ??_C@_05CBHOCCK@Spain?$AA@ 0044fea8     LIBCMTD:getqloc.obj
 0002:00007eb0       ??_C@_0BL@GIOEGDHB@Spanish?5?9?5Traditional?5Sort?$AA@ 0044feb0     LIBCMTD:getqloc.obj
 0002:00007ecc       ___rglangidNotDefault      0044fecc     LIBCMTD:getqloc.obj
 0002:00007ee0       ___rg_country              0044fee0     LIBCMTD:getqloc.obj
 0002:00007f98       ??_C@_0O@FMJNFNKE@united?9states?$AA@ 0044ff98     LIBCMTD:getqloc.obj
 0002:00007fa8       ??_C@_0P@NDHFFKCA@united?9kingdom?$AA@ 0044ffa8     LIBCMTD:getqloc.obj
 0002:00007fb8       ??_C@_0BC@HHDADLGF@trinidad?5?$CG?5tobago?$AA@ 0044ffb8     LIBCMTD:getqloc.obj
 0002:00007fcc       ??_C@_0M@IOAEBDAC@south?9korea?$AA@ 0044ffcc     LIBCMTD:getqloc.obj
 0002:00007fd8       ??_C@_0N@FIELFKIJ@south?9africa?$AA@ 0044ffd8     LIBCMTD:getqloc.obj
 0002:00007fe8       ??_C@_0M@OPNDHCMC@south?5korea?$AA@ 0044ffe8     LIBCMTD:getqloc.obj
 0002:00007ff4       ??_C@_0N@MDEOEPFI@south?5africa?$AA@ 0044fff4     LIBCMTD:getqloc.obj
 0002:00008004       ??_C@_06FKAPCJLB@slovak?$AA@ 00450004     LIBCMTD:getqloc.obj
 0002:0000800c       ??_C@_0M@EFJANOAL@puerto?9rico?$AA@ 0045000c     LIBCMTD:getqloc.obj
 0002:00008018       ??_C@_08PGOJKDAI@pr?9china?$AA@ 00450018     LIBCMTD:getqloc.obj
 0002:00008024       ??_C@_08JHDOMCMI@pr?5china?$AA@ 00450024     LIBCMTD:getqloc.obj
 0002:00008030       ??_C@_02JHCHFBLL@nz?$AA@   00450030     LIBCMTD:getqloc.obj
 0002:00008034       ??_C@_0M@LINHDHKP@new?9zealand?$AA@ 00450034     LIBCMTD:getqloc.obj
 0002:00008040       ??_C@_09IIIPPBDB@hong?9kong?$AA@ 00450040     LIBCMTD:getqloc.obj
 0002:0000804c       ??_C@_07HJLCKBG@holland?$AA@ 0045004c     LIBCMTD:getqloc.obj
 0002:00008054       ??_C@_0O@LEHGMHAG@great?5britain?$AA@ 00450054     LIBCMTD:getqloc.obj
 0002:00008064       ??_C@_07FACOMELA@england?$AA@ 00450064     LIBCMTD:getqloc.obj
 0002:0000806c       ??_C@_05JIHCEICB@czech?$AA@ 0045006c     LIBCMTD:getqloc.obj
 0002:00008074       ??_C@_05BBJOBLGB@china?$AA@ 00450074     LIBCMTD:getqloc.obj
 0002:0000807c       ??_C@_07GPKPHICP@britain?$AA@ 0045007c     LIBCMTD:getqloc.obj
 0002:00008084       ??_C@_07MHIPBHMG@america?$AA@ 00450084     LIBCMTD:getqloc.obj
 0002:00008090       ___rg_language             00450090     LIBCMTD:getqloc.obj
 0002:00008298       ??_C@_03KIALPMKC@usa?$AA@  00450298     LIBCMTD:getqloc.obj
 0002:0000829c       ??_C@_02FGJGKGGD@us?$AA@   0045029c     LIBCMTD:getqloc.obj
 0002:000082a0       ??_C@_02NEINDODK@uk?$AA@   004502a0     LIBCMTD:getqloc.obj
 0002:000082a4       ??_C@_05JMPCFJFJ@swiss?$AA@ 004502a4     LIBCMTD:getqloc.obj
 0002:000082ac       ??_C@_0BA@HLOCPIOD@swedish?9finland?$AA@ 004502ac     LIBCMTD:getqloc.obj
 0002:000082bc       ??_C@_0BC@PKCNIABK@spanish?9venezuela?$AA@ 004502bc     LIBCMTD:getqloc.obj
 0002:000082d0       ??_C@_0BA@GBHHMIJI@spanish?9uruguay?$AA@ 004502d0     LIBCMTD:getqloc.obj
 0002:000082e0       ??_C@_0BE@BHDOHPMC@spanish?9puerto?5rico?$AA@ 004502e0     LIBCMTD:getqloc.obj
 0002:000082f4       ??_C@_0N@KMOIDGGN@spanish?9peru?$AA@ 004502f4     LIBCMTD:getqloc.obj
 0002:00008304       ??_C@_0BB@HMHLPGPH@spanish?9paraguay?$AA@ 00450304     LIBCMTD:getqloc.obj
 0002:00008318       ??_C@_0P@MCPKNGFD@spanish?9panama?$AA@ 00450318     LIBCMTD:getqloc.obj
 0002:00008328       ??_C@_0BC@IHOHGAIL@spanish?9nicaragua?$AA@ 00450328     LIBCMTD:getqloc.obj
 0002:0000833c       ??_C@_0P@KLMJDNFJ@spanish?9modern?$AA@ 0045033c     LIBCMTD:getqloc.obj
 0002:0000834c       ??_C@_0BA@BPAPGBCM@spanish?9mexican?$AA@ 0045034c     LIBCMTD:getqloc.obj
 0002:0000835c       ??_C@_0BB@PDECHHHE@spanish?9honduras?$AA@ 0045035c     LIBCMTD:getqloc.obj
 0002:00008370       ??_C@_0BC@KLHKFGDB@spanish?9guatemala?$AA@ 00450370     LIBCMTD:getqloc.obj
 0002:00008384       ??_C@_0BE@MFOOKJAI@spanish?9el?5salvador?$AA@ 00450384     LIBCMTD:getqloc.obj
 0002:00008398       ??_C@_0BA@FCOKFPFC@spanish?9ecuador?$AA@ 00450398     LIBCMTD:getqloc.obj
 0002:000083a8       ??_C@_0BL@PLMGIMOO@spanish?9dominican?5republic?$AA@ 004503a8     LIBCMTD:getqloc.obj
 0002:000083c4       ??_C@_0BD@HLGDNMHB@spanish?9costa?5rica?$AA@ 004503c4     LIBCMTD:getqloc.obj
 0002:000083d8       ??_C@_0BB@PKCBKCPE@spanish?9colombia?$AA@ 004503d8     LIBCMTD:getqloc.obj
 0002:000083ec       ??_C@_0O@MCBIJGNE@spanish?9chile?$AA@ 004503ec     LIBCMTD:getqloc.obj
 0002:000083fc       ??_C@_0BA@BEFEIGJJ@spanish?9bolivia?$AA@ 004503fc     LIBCMTD:getqloc.obj
 0002:0000840c       ??_C@_0BC@EMECMPD@spanish?9argentina?$AA@ 0045040c     LIBCMTD:getqloc.obj
 0002:00008420       ??_C@_0BF@EALFLENP@portuguese?9brazilian?$AA@ 00450420     LIBCMTD:getqloc.obj
 0002:00008438       ??_C@_0BC@HBLEBLNN@norwegian?9nynorsk?$AA@ 00450438     LIBCMTD:getqloc.obj
 0002:0000844c       ??_C@_0BB@HMACDDCK@norwegian?9bokmal?$AA@ 0045044c     LIBCMTD:getqloc.obj
 0002:00008460       ??_C@_09BAFFPPHE@norwegian?$AA@ 00450460     LIBCMTD:getqloc.obj
 0002:0000846c       ??_C@_0O@EAJFJDFG@italian?9swiss?$AA@ 0045046c     LIBCMTD:getqloc.obj
 0002:0000847c       ??_C@_0O@CNOMPGD@irish?9english?$AA@ 0045047c     LIBCMTD:getqloc.obj
 0002:0000848c       ??_C@_0N@EDHBGCKG@german?9swiss?$AA@ 0045048c     LIBCMTD:getqloc.obj
 0002:0000849c       ??_C@_0BC@JACMHNBP@german?9luxembourg?$AA@ 0045049c     LIBCMTD:getqloc.obj
 0002:000084b0       ??_C@_0BE@HBGMGFEG@german?9lichtenstein?$AA@ 004504b0     LIBCMTD:getqloc.obj
 0002:000084c4       ??_C@_0BA@HKKBIBKL@german?9austrian?$AA@ 004504c4     LIBCMTD:getqloc.obj
 0002:000084d4       ??_C@_0N@GCAEPEBK@french?9swiss?$AA@ 004504d4     LIBCMTD:getqloc.obj
 0002:000084e4       ??_C@_0BC@DJFJJCK@french?9luxembourg?$AA@ 004504e4     LIBCMTD:getqloc.obj
 0002:000084f8       ??_C@_0BA@NNCEDFIC@french?9canadian?$AA@ 004504f8     LIBCMTD:getqloc.obj
 0002:00008508       ??_C@_0P@CMPOCLM@french?9belgian?$AA@ 00450508     LIBCMTD:getqloc.obj
 0002:00008518       ??_C@_0M@GHHDJOK@english?9usa?$AA@ 00450518     LIBCMTD:getqloc.obj
 0002:00008524       ??_C@_0L@PLDJKEIL@english?9us?$AA@ 00450524     LIBCMTD:getqloc.obj
 0002:00008530       ??_C@_0L@HJCCDMNC@english?9uk?$AA@ 00450530     LIBCMTD:getqloc.obj
 0002:0000853c       ??_C@_0BK@CKLIAGJB@english?9trinidad?5y?5tobago?$AA@ 0045053c     LIBCMTD:getqloc.obj
 0002:00008558       ??_C@_0BF@JMJMGNNF@english?9south?5africa?$AA@ 00450558     LIBCMTD:getqloc.obj
 0002:00008570       ??_C@_0L@DKIIFDFD@english?9nz?$AA@ 00450570     LIBCMTD:getqloc.obj
 0002:0000857c       ??_C@_0BA@ONHGJCLH@english?9jamaica?$AA@ 0045057c     LIBCMTD:getqloc.obj
 0002:0000858c       ??_C@_0M@HJBGHOPO@english?9ire?$AA@ 0045058c     LIBCMTD:getqloc.obj
 0002:00008598       ??_C@_0BC@LFEKMIFB@english?9caribbean?$AA@ 00450598     LIBCMTD:getqloc.obj
 0002:000085ac       ??_C@_0M@OLDPFKHI@english?9can?$AA@ 004505ac     LIBCMTD:getqloc.obj
 0002:000085b8       ??_C@_0P@OMDEHBMP@english?9belize?$AA@ 004505b8     LIBCMTD:getqloc.obj
 0002:000085c8       ??_C@_0M@KFHFPFED@english?9aus?$AA@ 004505c8     LIBCMTD:getqloc.obj
 0002:000085d4       ??_C@_0BB@MNMBKDFE@english?9american?$AA@ 004505d4     LIBCMTD:getqloc.obj
 0002:000085e8       ??_C@_0O@KIDLNNBA@dutch?9belgian?$AA@ 004505e8     LIBCMTD:getqloc.obj
 0002:000085f8       ??_C@_0BE@JBKABBMH@chinese?9traditional?$AA@ 004505f8     LIBCMTD:getqloc.obj
 0002:0000860c       ??_C@_0BC@MJJMPKCG@chinese?9singapore?$AA@ 0045060c     LIBCMTD:getqloc.obj
 0002:00008620       ??_C@_0BD@FDKADDCP@chinese?9simplified?$AA@ 00450620     LIBCMTD:getqloc.obj
 0002:00008634       ??_C@_0BB@DBEFDDME@chinese?9hongkong?$AA@ 00450634     LIBCMTD:getqloc.obj
 0002:00008648       ??_C@_07DHNMFMCI@chinese?$AA@ 00450648     LIBCMTD:getqloc.obj
 0002:00008650       ??_C@_03FNDDCHI@chi?$AA@   00450650     LIBCMTD:getqloc.obj
 0002:00008654       ??_C@_03BMMIADDJ@chh?$AA@  00450654     LIBCMTD:getqloc.obj
 0002:00008658       ??_C@_08OAIPJDGI@canadian?$AA@ 00450658     LIBCMTD:getqloc.obj
 0002:00008664       ??_C@_07HBPMNPNJ@belgian?$AA@ 00450664     LIBCMTD:getqloc.obj
 0002:0000866c       ??_C@_0L@OEKOPBEL@australian?$AA@ 0045066c     LIBCMTD:getqloc.obj
 0002:00008678       ??_C@_0BB@MEIMBEDG@american?9english?$AA@ 00450678     LIBCMTD:getqloc.obj
 0002:0000868c       ??_C@_0BB@DFMDPDGB@american?5english?$AA@ 0045068c     LIBCMTD:getqloc.obj
 0002:000086a0       ??_C@_08IJLOKOLL@american?$AA@ 004506a0     LIBCMTD:getqloc.obj
 0002:000086ac       ??_C@_0BC@NFIEMBLL@Norwegian?9Nynorsk?$AA@ 004506ac     LIBCMTD:getqloc.obj
 0002:000086c0       ??_C@_03NFKLAGEF@OCP?$AA@  004506c0     LIBCMTD:getqloc.obj
 0002:000086c4       ??_C@_03DFHEHBHG@ACP?$AA@  004506c4     LIBCMTD:getqloc.obj
 0002:00008730       ??_C@_05EOHGHCHD@exp10?$AA@ 00450730     LIBCMTD:libm_error.obj
 0002:00008738       ??_C@_04HPAFEEIN@exp2?$AA@ 00450738     LIBCMTD:libm_error.obj
 0002:00008740       ??_C@_04KGLCPMCP@log2?$AA@ 00450740     LIBCMTD:libm_error.obj
 0002:00008748       __atan_table               00450748     LIBCMTD:atan_table.obj
 0002:00009f58       ??_C@_07FEAFKIIG@a_map?4c?$AA@ 00451f58     LIBCMTD:a_map.obj
 0002:00009f84       ??_C@_06IMKFLFPG@1?$CDQNAN?$AA@ 00451f84     LIBCMTD:x10fout.obj
 0002:00009f8c       ??_C@_05DNEBIAHO@1?$CDINF?$AA@ 00451f8c     LIBCMTD:x10fout.obj
 0002:00009f94       ??_C@_05PHHOCPM@1?$CDIND?$AA@ 00451f94     LIBCMTD:x10fout.obj
 0002:00009f9c       ??_C@_06PGGFOGJG@1?$CDSNAN?$AA@ 00451f9c     LIBCMTD:x10fout.obj
 0002:00009fb4       ??_C@_08EOPENFML@chsize?4c?$AA@ 00451fb4     LIBCMTD:chsize.obj
 0002:00009fc0       ??_C@_09OJCCCDEJ@size?5?$DO?$DN?50?$AA@ 00451fc0     LIBCMTD:chsize.obj
 0002:00009fcc       ___dnames                  00451fcc     LIBCMTD:timeset.obj
 0002:00009fe4       ___mnames                  00451fe4     LIBCMTD:timeset.obj
 0002:0000a02c       ??_C@_07LOOFNDIO@tzset?4c?$AA@ 0045202c     LIBCMTD:tzset.obj
 0002:0000a034       ??_C@_02CLFPBFFP@TZ?$AA@   00452034     LIBCMTD:tzset.obj
 0002:0000a054       ??_C@_0L@DILIPMN@inithelp?4c?$AA@ 00452054     LIBCMTD:inithelp.obj
 0002:0000a060       ??_C@_0L@KBNGFDKM@convrtcp?4c?$AA@ 00452060     LIBCMTD:convrtcp.obj
 0002:0000a09c       ??_C@_07NIBBAFJP@w_loc?4c?$AA@ 0045209c     LIBCMTD:w_loc.obj
 0002:0000a0b4       ??_C@_07GCMFDNDD@a_loc?4c?$AA@ 004520b4     LIBCMTD:a_loc.obj
 0002:0000a0cc       ??_C@_0L@CELCHBFJ@wtombenv?4c?$AA@ 004520cc     LIBCMTD:wtombenv.obj
 0002:0000a0d8       ??_C@_07KLPPCEPH@a_cmp?4c?$AA@ 004520d8     LIBCMTD:a_cmp.obj
 0002:0000a0e0       ??_C@_0DN@NFIMOOFE@cchCount1?$DN?$DN0?5?$CG?$CG?5cchCount2?$DN?$DN1?5?$HM?$HM?5@ 004520e0     LIBCMTD:a_cmp.obj
 0002:0000a138       ??_C@_08BMJILFKN@setenv?4c?$AA@ 00452138     LIBCMTD:setenv.obj
 0002:0000a144       ??_C@_05MAJJAKPI@FALSE?$AA@ 00452144     LIBCMTD:setenv.obj
 0002:0000a168       ??_7UserStream@@6B@        00452168     SampleCommonCodeDEBUG:Stream.obj
 0002:0000a19c       ??_7NxStream@@6B@          0045219c     SampleCommonCodeDEBUG:Stream.obj
 0002:0000a1d0       ??_C@_01KDCPPGHE@r?$AA@    004521d0     SampleCommonCodeDEBUG:Stream.obj
 0002:0000a1d8       ??_C@_0GB@KHGECHOM@?2Program?5Files?2AGEIA?5Technologie@ 004521d8     SampleCommonCodeDEBUG:Stream.obj
 0002:0000a23c       ??_C@_01NOFIACDB@w?$AA@    0045223c     SampleCommonCodeDEBUG:Stream.obj
 0002:0000a240       ??_C@_02DBHOLHAJ@ww?$AA@   00452240     SampleCommonCodeDEBUG:Stream.obj
 0002:0000a244       ??_7MemoryWriteBuffer@@6B@ 00452244     SampleCommonCodeDEBUG:Stream.obj
 0002:0000a278       ??_C@_01GBGANLPD@0?$AA@    00452278     SampleCommonCodeDEBUG:Stream.obj
 0002:0000a280       ??_C@_0GB@FNGGMJAM@c?3?2program?5files?2ageia?5technolog@ 00452280     SampleCommonCodeDEBUG:Stream.obj
 0002:0000a2e4       ??_C@_0L@GKFKIAAC@newData?$CB?$DN0?$AA@ 004522e4     SampleCommonCodeDEBUG:Stream.obj
 0002:0000a2f0       ??_7MemoryReadBuffer@@6B@  004522f0     SampleCommonCodeDEBUG:Stream.obj
 0002:0000a324       _IID_IDxDiagContainer      00452324     dxguid:dxguid.obj
 0002:0000a334       _IID_IDxDiagProvider       00452334     dxguid:dxguid.obj
 0002:0000a344       _CLSID_DxDiagProvider      00452344     dxguid:dxguid.obj
 0002:0000a354       _KSDATAFORMAT_SUBTYPE_DIRECTMUSIC 00452354     dxguid:dxguid.obj
 0002:0000a364       _KSDATAFORMAT_SUBTYPE_MIDI 00452364     dxguid:dxguid.obj
 0002:0000a374       _IID_IKsControl            00452374     dxguid:dxguid.obj
 0002:0000a384       _IID_IDirectMusicAudioPath 00452384     dxguid:dxguid.obj
 0002:0000a394       _IID_IDirectMusicContainer 00452394     dxguid:dxguid.obj
 0002:0000a3a4       _IID_IDirectMusicScript    004523a4     dxguid:dxguid.obj
 0002:0000a3b4       _IID_IDirectMusicPatternTrack 004523b4     dxguid:dxguid.obj
 0002:0000a3c4       _IID_IDirectMusicStyle8    004523c4     dxguid:dxguid.obj
 0002:0000a3d4       _IID_IDirectMusicSegmentState8 004523d4     dxguid:dxguid.obj
 0002:0000a3e4       _IID_IDirectMusicSegment8  004523e4     dxguid:dxguid.obj
 0002:0000a3f4       _IID_IDirectMusicPerformance8 004523f4     dxguid:dxguid.obj
 0002:0000a404       _IID_IDirectMusicLoader8   00452404     dxguid:dxguid.obj
 0002:0000a414       _IID_IDirectMusicSegment2  00452414     dxguid:dxguid.obj
 0002:0000a424       _IID_IDirectMusicPerformance2 00452424     dxguid:dxguid.obj
 0002:0000a434       _IID_IDirectMusicBand      00452434     dxguid:dxguid.obj
 0002:0000a444       _IID_IDirectMusicComposer  00452444     dxguid:dxguid.obj
 0002:0000a454       _IID_IDirectMusicChordMap  00452454     dxguid:dxguid.obj
 0002:0000a464       _IID_IDirectMusicStyle     00452464     dxguid:dxguid.obj
 0002:0000a474       _IID_IDirectMusicGraph     00452474     dxguid:dxguid.obj
 0002:0000a484       _IID_IDirectMusicPerformance 00452484     dxguid:dxguid.obj
 0002:0000a494       _IID_IDirectMusicSegmentState 00452494     dxguid:dxguid.obj
 0002:0000a4a4       _IID_IDirectMusicSegment   004524a4     dxguid:dxguid.obj
 0002:0000a4b4       _IID_IDirectMusicObject    004524b4     dxguid:dxguid.obj
 0002:0000a4c4       _IID_IDirectMusicGetLoader 004524c4     dxguid:dxguid.obj
 0002:0000a4d4       _IID_IDirectMusicLoader    004524d4     dxguid:dxguid.obj
 0002:0000a4e4       _GUID_Buffer_Mono          004524e4     dxguid:dxguid.obj
 0002:0000a4f4       _GUID_Buffer_3D_Dry        004524f4     dxguid:dxguid.obj
 0002:0000a504       _GUID_Buffer_Stereo        00452504     dxguid:dxguid.obj
 0002:0000a514       _GUID_Buffer_EnvReverb     00452514     dxguid:dxguid.obj
 0002:0000a524       _GUID_Buffer_Reverb        00452524     dxguid:dxguid.obj
 0002:0000a534       _GUID_Synth_Default        00452534     dxguid:dxguid.obj
 0002:0000a544       _GUID_DefaultGMCollection  00452544     dxguid:dxguid.obj
 0002:0000a554       _GUID_PerfAutoDownload     00452554     dxguid:dxguid.obj
 0002:0000a564       _GUID_PerfMasterGrooveLevel 00452564     dxguid:dxguid.obj
 0002:0000a574       _GUID_PerfMasterVolume     00452574     dxguid:dxguid.obj
 0002:0000a584       _GUID_PerfMasterTempo      00452584     dxguid:dxguid.obj
 0002:0000a594       _GUID_UnloadFromAudioPath  00452594     dxguid:dxguid.obj
 0002:0000a5a4       _GUID_DownloadToAudioPath  004525a4     dxguid:dxguid.obj
 0002:0000a5b4       _GUID_Variations           004525b4     dxguid:dxguid.obj
 0002:0000a5c4       _GUID_SeedVariations       004525c4     dxguid:dxguid.obj
 0002:0000a5d4       _GUID_EnableTempo          004525d4     dxguid:dxguid.obj
 0002:0000a5e4       _GUID_DisableTempo         004525e4     dxguid:dxguid.obj
 0002:0000a5f4       _GUID_EnableTimeSig        004525f4     dxguid:dxguid.obj
 0002:0000a604       _GUID_DisableTimeSig       00452604     dxguid:dxguid.obj
 0002:0000a614       _GUID_StandardMIDIFile     00452614     dxguid:dxguid.obj
 0002:0000a624       _GUID_Clear_All_Bands      00452624     dxguid:dxguid.obj
 0002:0000a634       _GUID_Disable_Auto_Download 00452634     dxguid:dxguid.obj
 0002:0000a644       _GUID_Enable_Auto_Download 00452644     dxguid:dxguid.obj
 0002:0000a654       _GUID_ConnectToDLSCollection 00452654     dxguid:dxguid.obj
 0002:0000a664       _GUID_Unload               00452664     dxguid:dxguid.obj
 0002:0000a674       _GUID_Download             00452674     dxguid:dxguid.obj
 0002:0000a684       _GUID_MuteParam            00452684     dxguid:dxguid.obj
 0002:0000a694       _GUID_IDirectMusicChordMap 00452694     dxguid:dxguid.obj
 0002:0000a6a4       _GUID_IDirectMusicBand     004526a4     dxguid:dxguid.obj
 0002:0000a6b4       _GUID_BandParam            004526b4     dxguid:dxguid.obj
 0002:0000a6c4       _GUID_Play_Marker          004526c4     dxguid:dxguid.obj
 0002:0000a6d4       _GUID_Valid_Start_Time     004526d4     dxguid:dxguid.obj
 0002:0000a6e4       _GUID_TempoParam           004526e4     dxguid:dxguid.obj
 0002:0000a6f4       _GUID_TimeSignature        004526f4     dxguid:dxguid.obj
 0002:0000a704       _GUID_IDirectMusicStyle    00452704     dxguid:dxguid.obj
 0002:0000a714       _GUID_RhythmParam          00452714     dxguid:dxguid.obj
 0002:0000a724       _GUID_ChordParam           00452724     dxguid:dxguid.obj
 0002:0000a734       _GUID_CommandParamNext     00452734     dxguid:dxguid.obj
 0002:0000a744       _GUID_CommandParam2        00452744     dxguid:dxguid.obj
 0002:0000a754       _GUID_CommandParam         00452754     dxguid:dxguid.obj
 0002:0000a764       _GUID_NOTIFICATION_RECOMPOSE 00452764     dxguid:dxguid.obj
 0002:0000a774       _GUID_NOTIFICATION_COMMAND 00452774     dxguid:dxguid.obj
 0002:0000a784       _GUID_NOTIFICATION_CHORD   00452784     dxguid:dxguid.obj
 0002:0000a794       _GUID_NOTIFICATION_MEASUREANDBEAT 00452794     dxguid:dxguid.obj
 0002:0000a7a4       _GUID_NOTIFICATION_PERFORMANCE 004527a4     dxguid:dxguid.obj
 0002:0000a7b4       _GUID_NOTIFICATION_SEGMENT 004527b4     dxguid:dxguid.obj
 0002:0000a7c4       _GUID_DirectMusicAllTypes  004527c4     dxguid:dxguid.obj
 0002:0000a7d4       _CLSID_DirectMusicAudioPathConfig 004527d4     dxguid:dxguid.obj
 0002:0000a7e4       _CLSID_DirectSoundWave     004527e4     dxguid:dxguid.obj
 0002:0000a7f4       _CLSID_DirectMusicContainer 004527f4     dxguid:dxguid.obj
 0002:0000a804       _CLSID_DirectMusicScript   00452804     dxguid:dxguid.obj
 0002:0000a814       _CLSID_DirectMusicPatternTrack 00452814     dxguid:dxguid.obj
 0002:0000a824       _CLSID_DirectMusicBand     00452824     dxguid:dxguid.obj
 0002:0000a834       _CLSID_DirectMusicLoader   00452834     dxguid:dxguid.obj
 0002:0000a844       _CLSID_DirectMusicComposer 00452844     dxguid:dxguid.obj
 0002:0000a854       _CLSID_DirectMusicChordMap 00452854     dxguid:dxguid.obj
 0002:0000a864       _CLSID_DirectMusicStyle    00452864     dxguid:dxguid.obj
 0002:0000a874       _CLSID_DirectMusicGraph    00452874     dxguid:dxguid.obj
 0002:0000a884       _CLSID_DirectMusicSegmentState 00452884     dxguid:dxguid.obj
 0002:0000a894       _CLSID_DirectMusicSegment  00452894     dxguid:dxguid.obj
 0002:0000a8a4       _CLSID_DirectMusicPerformance 004528a4     dxguid:dxguid.obj
 0002:0000a8b4       _IID_IDirectMusicTrack8    004528b4     dxguid:dxguid.obj
 0002:0000a8c4       _IID_IDirectMusicTool8     004528c4     dxguid:dxguid.obj
 0002:0000a8d4       _IID_IDirectMusicTool      004528d4     dxguid:dxguid.obj
 0002:0000a8e4       _IID_IDirectMusicTrack     004528e4     dxguid:dxguid.obj
 0002:0000a8f4       _CLSID_DirectMusicWaveTrack 004528f4     dxguid:dxguid.obj
 0002:0000a904       _CLSID_DirectMusicParamControlTrack 00452904     dxguid:dxguid.obj
 0002:0000a914       _CLSID_DirectMusicLyricsTrack 00452914     dxguid:dxguid.obj
 0002:0000a924       _CLSID_DirectMusicSegmentTriggerTrack 00452924     dxguid:dxguid.obj
 0002:0000a934       _CLSID_DirectMusicMarkerTrack 00452934     dxguid:dxguid.obj
 0002:0000a944       _CLSID_DirectMusicScriptTrack 00452944     dxguid:dxguid.obj
 0002:0000a954       _CLSID_DirectMusicMuteTrack 00452954     dxguid:dxguid.obj
 0002:0000a964       _CLSID_DirectMusicChordMapTrack 00452964     dxguid:dxguid.obj
 0002:0000a974       _CLSID_DirectMusicBandTrack 00452974     dxguid:dxguid.obj
 0002:0000a984       _CLSID_DirectMusicSignPostTrack 00452984     dxguid:dxguid.obj
 0002:0000a994       _CLSID_DirectMusicMotifTrack 00452994     dxguid:dxguid.obj
 0002:0000a9a4       _CLSID_DirectMusicStyleTrack 004529a4     dxguid:dxguid.obj
 0002:0000a9b4       _CLSID_DirectMusicCommandTrack 004529b4     dxguid:dxguid.obj
 0002:0000a9c4       _CLSID_DirectMusicChordTrack 004529c4     dxguid:dxguid.obj
 0002:0000a9d4       _CLSID_DirectMusicTimeSigTrack 004529d4     dxguid:dxguid.obj
 0002:0000a9e4       _CLSID_DirectMusicSysExTrack 004529e4     dxguid:dxguid.obj
 0002:0000a9f4       _CLSID_DirectMusicSeqTrack 004529f4     dxguid:dxguid.obj
 0002:0000aa04       _CLSID_DirectMusicTempoTrack 00452a04     dxguid:dxguid.obj
 0002:0000aa14       _GUID_DMUS_PROP_Volume     00452a14     dxguid:dxguid.obj
 0002:0000aa24       _GUID_DMUS_PROP_LegacyCaps 00452a24     dxguid:dxguid.obj
 0002:0000aa34       _GUID_DMUS_PROP_Effects    00452a34     dxguid:dxguid.obj
 0002:0000aa44       _GUID_DMUS_PROP_WavesReverb 00452a44     dxguid:dxguid.obj
 0002:0000aa54       _GUID_DMUS_PROP_MemorySize 00452a54     dxguid:dxguid.obj
 0002:0000aa64       _GUID_DMUS_PROP_WritePeriod 00452a64     dxguid:dxguid.obj
 0002:0000aa74       _GUID_DMUS_PROP_WriteLatency 00452a74     dxguid:dxguid.obj
 0002:0000aa84       _GUID_DMUS_PROP_SamplePlaybackRate 00452a84     dxguid:dxguid.obj
 0002:0000aa94       _GUID_DMUS_PROP_SampleMemorySize 00452a94     dxguid:dxguid.obj
 0002:0000aaa4       _GUID_DMUS_PROP_SynthSink_WAVE 00452aa4     dxguid:dxguid.obj
 0002:0000aab4       _GUID_DMUS_PROP_SynthSink_DSOUND 00452ab4     dxguid:dxguid.obj
 0002:0000aac4       _GUID_DMUS_PROP_INSTRUMENT2 00452ac4     dxguid:dxguid.obj
 0002:0000aad4       _GUID_DMUS_PROP_DLS2       00452ad4     dxguid:dxguid.obj
 0002:0000aae4       _GUID_DMUS_PROP_DLS1       00452ae4     dxguid:dxguid.obj
 0002:0000aaf4       _GUID_DMUS_PROP_GS_Capable 00452af4     dxguid:dxguid.obj
 0002:0000ab04       _GUID_DMUS_PROP_XG_Capable 00452b04     dxguid:dxguid.obj
 0002:0000ab14       _GUID_DMUS_PROP_XG_Hardware 00452b14     dxguid:dxguid.obj
 0002:0000ab24       _GUID_DMUS_PROP_GS_Hardware 00452b24     dxguid:dxguid.obj
 0002:0000ab34       _GUID_DMUS_PROP_GM_Hardware 00452b34     dxguid:dxguid.obj
 0002:0000ab44       _IID_IDirectMusic8         00452b44     dxguid:dxguid.obj
 0002:0000ab54       _IID_IDirectMusic2         00452b54     dxguid:dxguid.obj
 0002:0000ab64       _IID_IDirectMusicDownloadedInstrument 00452b64     dxguid:dxguid.obj
 0002:0000ab74       _IID_IDirectMusicInstrument 00452b74     dxguid:dxguid.obj
 0002:0000ab84       _IID_IDirectMusicCollection 00452b84     dxguid:dxguid.obj
 0002:0000ab94       _IID_IDirectMusicDownload  00452b94     dxguid:dxguid.obj
 0002:0000aba4       _IID_IDirectMusicPortDownload 00452ba4     dxguid:dxguid.obj
 0002:0000abb4       _IID_IDirectMusicThru      00452bb4     dxguid:dxguid.obj
 0002:0000abc4       _IID_IDirectMusicPort      00452bc4     dxguid:dxguid.obj
 0002:0000abd4       _IID_IDirectMusicBuffer    00452bd4     dxguid:dxguid.obj
 0002:0000abe4       _IID_IDirectMusic          00452be4     dxguid:dxguid.obj
 0002:0000abf4       _CLSID_DirectMusicSynth    00452bf4     dxguid:dxguid.obj
 0002:0000ac04       _CLSID_DirectMusicCollection 00452c04     dxguid:dxguid.obj
 0002:0000ac14       _CLSID_DirectMusic         00452c14     dxguid:dxguid.obj
 0002:0000ac24       _IID_IDirectPlay8LobbyClient 00452c24     dxguid:dxguid.obj
 0002:0000ac34       _IID_IDirectPlay8LobbiedApplication 00452c34     dxguid:dxguid.obj
 0002:0000ac44       _CLSID_DirectPlay8LobbyClient 00452c44     dxguid:dxguid.obj
 0002:0000ac54       _CLSID_DirectPlay8LobbiedApplication 00452c54     dxguid:dxguid.obj
 0002:0000ac64       _CLSID_DP8SP_BLUETOOTH     00452c64     dxguid:dxguid.obj
 0002:0000ac74       _CLSID_DP8SP_TCPIP         00452c74     dxguid:dxguid.obj
 0002:0000ac84       _CLSID_DP8SP_SERIAL        00452c84     dxguid:dxguid.obj
 0002:0000ac94       _CLSID_DP8SP_MODEM         00452c94     dxguid:dxguid.obj
 0002:0000aca4       _CLSID_DP8SP_IPX           00452ca4     dxguid:dxguid.obj
 0002:0000acb4       _IID_IDirectPlay8NATResolver 00452cb4     dxguid:dxguid.obj
 0002:0000acc4       _IID_IDirectPlay8ThreadPool 00452cc4     dxguid:dxguid.obj
 0002:0000acd4       _IID_IDirectPlay8Peer      00452cd4     dxguid:dxguid.obj
 0002:0000ace4       _IID_IDirectPlay8Server    00452ce4     dxguid:dxguid.obj
 0002:0000acf4       _IID_IDirectPlay8Client    00452cf4     dxguid:dxguid.obj
 0002:0000ad04       _CLSID_DirectPlay8NATResolver 00452d04     dxguid:dxguid.obj
 0002:0000ad14       _CLSID_DirectPlay8ThreadPool 00452d14     dxguid:dxguid.obj
 0002:0000ad24       _CLSID_DirectPlay8Peer     00452d24     dxguid:dxguid.obj
 0002:0000ad34       _CLSID_DirectPlay8Server   00452d34     dxguid:dxguid.obj
 0002:0000ad44       _CLSID_DirectPlay8Client   00452d44     dxguid:dxguid.obj
 0002:0000ad54       _IID_IDirectPlay8AddressIP 00452d54     dxguid:dxguid.obj
 0002:0000ad64       _IID_IDirectPlay8Address   00452d64     dxguid:dxguid.obj
 0002:0000ad74       _CLSID_DirectPlay8Address  00452d74     dxguid:dxguid.obj
 0002:0000ad84       _DPVCTGUID_VR12            00452d84     dxguid:dxguid.obj
 0002:0000ad94       _DPVCTGUID_TRUESPEECH      00452d94     dxguid:dxguid.obj
 0002:0000ada4       _DPVCTGUID_SC06            00452da4     dxguid:dxguid.obj
 0002:0000adb4       _DPVCTGUID_SC03            00452db4     dxguid:dxguid.obj
 0002:0000adc4       _DPVCTGUID_NONE            00452dc4     dxguid:dxguid.obj
 0002:0000add4       _DPVCTGUID_GSM             00452dd4     dxguid:dxguid.obj
 0002:0000ade4       _DPVCTGUID_ADPCM           00452de4     dxguid:dxguid.obj
 0002:0000adf4       _IID_IDirectPlayVoiceTest  00452df4     dxguid:dxguid.obj
 0002:0000ae04       _IID_IDirectPlayVoiceServer 00452e04     dxguid:dxguid.obj
 0002:0000ae14       _IID_IDirectPlayVoiceClient 00452e14     dxguid:dxguid.obj
 0002:0000ae24       _CLSID_DirectPlayVoiceTest 00452e24     dxguid:dxguid.obj
 0002:0000ae34       _CLSID_DirectPlayVoiceServer 00452e34     dxguid:dxguid.obj
 0002:0000ae44       _CLSID_DirectPlayVoiceClient 00452e44     dxguid:dxguid.obj
 0002:0000ae54       _GUID_DSCFX_SYSTEM_NS      00452e54     dxguid:dxguid.obj
 0002:0000ae64       _GUID_DSCFX_MS_NS          00452e64     dxguid:dxguid.obj
 0002:0000ae74       _GUID_DSCFX_CLASS_NS       00452e74     dxguid:dxguid.obj
 0002:0000ae84       _GUID_DSCFX_SYSTEM_AEC     00452e84     dxguid:dxguid.obj
 0002:0000ae94       _GUID_DSCFX_MS_AEC         00452e94     dxguid:dxguid.obj
 0002:0000aea4       _GUID_DSCFX_CLASS_AEC      00452ea4     dxguid:dxguid.obj
 0002:0000aeb4       _GUID_DSFX_WAVES_REVERB    00452eb4     dxguid:dxguid.obj
 0002:0000aec4       _GUID_DSFX_STANDARD_I3DL2REVERB 00452ec4     dxguid:dxguid.obj
 0002:0000aed4       _GUID_DSFX_STANDARD_PARAMEQ 00452ed4     dxguid:dxguid.obj
 0002:0000aee4       _GUID_DSFX_STANDARD_COMPRESSOR 00452ee4     dxguid:dxguid.obj
 0002:0000aef4       _GUID_DSFX_STANDARD_DISTORTION 00452ef4     dxguid:dxguid.obj
 0002:0000af04       _GUID_DSFX_STANDARD_ECHO   00452f04     dxguid:dxguid.obj
 0002:0000af14       _GUID_DSFX_STANDARD_FLANGER 00452f14     dxguid:dxguid.obj
 0002:0000af24       _GUID_DSFX_STANDARD_CHORUS 00452f24     dxguid:dxguid.obj
 0002:0000af34       _GUID_DSFX_STANDARD_GARGLE 00452f34     dxguid:dxguid.obj
 0002:0000af44       _DS3DALG_HRTF_LIGHT        00452f44     dxguid:dxguid.obj
 0002:0000af54       _DS3DALG_HRTF_FULL         00452f54     dxguid:dxguid.obj
 0002:0000af64       _DS3DALG_NO_VIRTUALIZATION 00452f64     dxguid:dxguid.obj
 0002:0000af74       _IID_IDirectSoundFullDuplex 00452f74     dxguid:dxguid.obj
 0002:0000af84       _IID_IDirectSoundCaptureFXNoiseSuppress 00452f84     dxguid:dxguid.obj
 0002:0000af94       _IID_IDirectSoundCaptureFXAec 00452f94     dxguid:dxguid.obj
 0002:0000afa4       _IID_IDirectSoundFXWavesReverb 00452fa4     dxguid:dxguid.obj
 0002:0000afb4       _IID_IDirectSoundFXI3DL2Reverb 00452fb4     dxguid:dxguid.obj
 0002:0000afc4       _IID_IDirectSoundFXParamEq 00452fc4     dxguid:dxguid.obj
 0002:0000afd4       _IID_IDirectSoundFXCompressor 00452fd4     dxguid:dxguid.obj
 0002:0000afe4       _IID_IDirectSoundFXDistortion 00452fe4     dxguid:dxguid.obj
 0002:0000aff4       _IID_IDirectSoundFXEcho    00452ff4     dxguid:dxguid.obj
 0002:0000b004       _IID_IDirectSoundFXFlanger 00453004     dxguid:dxguid.obj
 0002:0000b014       _IID_IDirectSoundFXChorus  00453014     dxguid:dxguid.obj
 0002:0000b024       _IID_IDirectSoundFXGargle  00453024     dxguid:dxguid.obj
 0002:0000b034       _IID_IKsPropertySet        00453034     dxguid:dxguid.obj
 0002:0000b044       _IID_IDirectSoundNotify    00453044     dxguid:dxguid.obj
 0002:0000b054       _IID_IDirectSoundCaptureBuffer8 00453054     dxguid:dxguid.obj
 0002:0000b064       _IID_IDirectSoundCaptureBuffer 00453064     dxguid:dxguid.obj
 0002:0000b074       _IID_IDirectSoundCapture   00453074     dxguid:dxguid.obj
 0002:0000b084       _IID_IDirectSound3DBuffer  00453084     dxguid:dxguid.obj
 0002:0000b094       _IID_IDirectSound3DListener 00453094     dxguid:dxguid.obj
 0002:0000b0a4       _GUID_All_Objects          004530a4     dxguid:dxguid.obj
 0002:0000b0b4       _IID_IDirectSoundBuffer8   004530b4     dxguid:dxguid.obj
 0002:0000b0c4       _IID_IDirectSoundBuffer    004530c4     dxguid:dxguid.obj
 0002:0000b0d4       _IID_IDirectSound8         004530d4     dxguid:dxguid.obj
 0002:0000b0e4       _IID_IDirectSound          004530e4     dxguid:dxguid.obj
 0002:0000b0f4       _IID_IReferenceClock       004530f4     dxguid:dxguid.obj
 0002:0000b104       _DSDEVID_DefaultVoiceCapture 00453104     dxguid:dxguid.obj
 0002:0000b114       _DSDEVID_DefaultVoicePlayback 00453114     dxguid:dxguid.obj
 0002:0000b124       _DSDEVID_DefaultCapture    00453124     dxguid:dxguid.obj
 0002:0000b134       _DSDEVID_DefaultPlayback   00453134     dxguid:dxguid.obj
 0002:0000b144       _CLSID_DirectSoundFullDuplex 00453144     dxguid:dxguid.obj
 0002:0000b154       _CLSID_DirectSoundCapture8 00453154     dxguid:dxguid.obj
 0002:0000b164       _CLSID_DirectSoundCapture  00453164     dxguid:dxguid.obj
 0002:0000b174       _CLSID_DirectSound8        00453174     dxguid:dxguid.obj
 0002:0000b184       _CLSID_DirectSound         00453184     dxguid:dxguid.obj
 0002:0000b194       _DPAID_ComPort             00453194     dxguid:dxguid.obj
 0002:0000b1a4       _DPAID_INetPort            004531a4     dxguid:dxguid.obj
 0002:0000b1b4       _DPAID_INetW               004531b4     dxguid:dxguid.obj
 0002:0000b1c4       _DPAID_INet                004531c4     dxguid:dxguid.obj
 0002:0000b1d4       _DPAID_ModemW              004531d4     dxguid:dxguid.obj
 0002:0000b1e4       _DPAID_Modem               004531e4     dxguid:dxguid.obj
 0002:0000b1f4       _DPAID_PhoneW              004531f4     dxguid:dxguid.obj
 0002:0000b204       _DPAID_Phone               00453204     dxguid:dxguid.obj
 0002:0000b214       _DPAID_LobbyProvider       00453214     dxguid:dxguid.obj
 0002:0000b224       _DPAID_ServiceProvider     00453224     dxguid:dxguid.obj
 0002:0000b234       _DPAID_TotalSize           00453234     dxguid:dxguid.obj
 0002:0000b244       _DPLPROPERTY_PlayerScore   00453244     dxguid:dxguid.obj
 0002:0000b254       _DPLPROPERTY_PlayerGuid    00453254     dxguid:dxguid.obj
 0002:0000b264       _DPLPROPERTY_LobbyGuid     00453264     dxguid:dxguid.obj
 0002:0000b274       _DPLPROPERTY_MessagesSupported 00453274     dxguid:dxguid.obj
 0002:0000b284       _CLSID_DirectPlayLobby     00453284     dxguid:dxguid.obj
 0002:0000b294       _IID_IDirectPlayLobby3A    00453294     dxguid:dxguid.obj
 0002:0000b2a4       _IID_IDirectPlayLobby3     004532a4     dxguid:dxguid.obj
 0002:0000b2b4       _IID_IDirectPlayLobby2A    004532b4     dxguid:dxguid.obj
 0002:0000b2c4       _IID_IDirectPlayLobby2     004532c4     dxguid:dxguid.obj
 0002:0000b2d4       _IID_IDirectPlayLobbyA     004532d4     dxguid:dxguid.obj
 0002:0000b2e4       _IID_IDirectPlayLobby      004532e4     dxguid:dxguid.obj
 0002:0000b2f4       _IID_IDirectPlay           004532f4     dxguid:dxguid.obj
 0002:0000b304       _DPSPGUID_MODEM            00453304     dxguid:dxguid.obj
 0002:0000b314       _DPSPGUID_SERIAL           00453314     dxguid:dxguid.obj
 0002:0000b324       _DPSPGUID_TCPIP            00453324     dxguid:dxguid.obj
 0002:0000b334       _DPSPGUID_IPX              00453334     dxguid:dxguid.obj
 0002:0000b344       _CLSID_DirectPlay          00453344     dxguid:dxguid.obj
 0002:0000b354       _IID_IDirectPlay4A         00453354     dxguid:dxguid.obj
 0002:0000b364       _IID_IDirectPlay4          00453364     dxguid:dxguid.obj
 0002:0000b374       _IID_IDirectPlay3A         00453374     dxguid:dxguid.obj
 0002:0000b384       _IID_IDirectPlay3          00453384     dxguid:dxguid.obj
 0002:0000b394       _IID_IDirectPlay2A         00453394     dxguid:dxguid.obj
 0002:0000b3a4       _IID_IDirectPlay2          004533a4     dxguid:dxguid.obj
 0002:0000b3b4       _GUID_HIDClass             004533b4     dxguid:dxguid.obj
 0002:0000b3c4       _GUID_MouseClass           004533c4     dxguid:dxguid.obj
 0002:0000b3d4       _GUID_MediaClass           004533d4     dxguid:dxguid.obj
 0002:0000b3e4       _GUID_KeyboardClass        004533e4     dxguid:dxguid.obj
 0002:0000b3f4       _IID_IDirectInputJoyConfig8 004533f4     dxguid:dxguid.obj
 0002:0000b404       _IID_IDirectInputPIDDriver 00453404     dxguid:dxguid.obj
 0002:0000b414       _IID_IDirectInputJoyConfig 00453414     dxguid:dxguid.obj
 0002:0000b424       _IID_IDirectInputEffectDriver 00453424     dxguid:dxguid.obj
 0002:0000b434       _GUID_CustomForce          00453434     dxguid:dxguid.obj
 0002:0000b444       _GUID_Friction             00453444     dxguid:dxguid.obj
 0002:0000b454       _GUID_Inertia              00453454     dxguid:dxguid.obj
 0002:0000b464       _GUID_Damper               00453464     dxguid:dxguid.obj
 0002:0000b474       _GUID_Spring               00453474     dxguid:dxguid.obj
 0002:0000b484       _GUID_SawtoothDown         00453484     dxguid:dxguid.obj
 0002:0000b494       _GUID_SawtoothUp           00453494     dxguid:dxguid.obj
 0002:0000b4a4       _GUID_Triangle             004534a4     dxguid:dxguid.obj
 0002:0000b4b4       _GUID_Sine                 004534b4     dxguid:dxguid.obj
 0002:0000b4c4       _GUID_Square               004534c4     dxguid:dxguid.obj
 0002:0000b4d4       _GUID_RampForce            004534d4     dxguid:dxguid.obj
 0002:0000b4e4       _GUID_ConstantForce        004534e4     dxguid:dxguid.obj
 0002:0000b4f4       _GUID_SysKeyboardEm2       004534f4     dxguid:dxguid.obj
 0002:0000b504       _GUID_SysKeyboardEm        00453504     dxguid:dxguid.obj
 0002:0000b514       _GUID_SysMouseEm2          00453514     dxguid:dxguid.obj
 0002:0000b524       _GUID_SysMouseEm           00453524     dxguid:dxguid.obj
 0002:0000b534       _GUID_Joystick             00453534     dxguid:dxguid.obj
 0002:0000b544       _GUID_SysKeyboard          00453544     dxguid:dxguid.obj
 0002:0000b554       _GUID_SysMouse             00453554     dxguid:dxguid.obj
 0002:0000b564       _GUID_Unknown              00453564     dxguid:dxguid.obj
 0002:0000b574       _GUID_POV                  00453574     dxguid:dxguid.obj
 0002:0000b584       _GUID_Key                  00453584     dxguid:dxguid.obj
 0002:0000b594       _GUID_Button               00453594     dxguid:dxguid.obj
 0002:0000b5a4       _GUID_Slider               004535a4     dxguid:dxguid.obj
 0002:0000b5b4       _GUID_RzAxis               004535b4     dxguid:dxguid.obj
 0002:0000b5c4       _GUID_RyAxis               004535c4     dxguid:dxguid.obj
 0002:0000b5d4       _GUID_RxAxis               004535d4     dxguid:dxguid.obj
 0002:0000b5e4       _GUID_ZAxis                004535e4     dxguid:dxguid.obj
 0002:0000b5f4       _GUID_YAxis                004535f4     dxguid:dxguid.obj
 0002:0000b604       _GUID_XAxis                00453604     dxguid:dxguid.obj
 0002:0000b614       _IID_IDirectInputEffect    00453614     dxguid:dxguid.obj
 0002:0000b624       _IID_IDirectInputDevice8W  00453624     dxguid:dxguid.obj
 0002:0000b634       _IID_IDirectInputDevice8A  00453634     dxguid:dxguid.obj
 0002:0000b644       _IID_IDirectInputDevice7W  00453644     dxguid:dxguid.obj
 0002:0000b654       _IID_IDirectInputDevice7A  00453654     dxguid:dxguid.obj
 0002:0000b664       _IID_IDirectInputDevice2W  00453664     dxguid:dxguid.obj
 0002:0000b674       _IID_IDirectInputDevice2A  00453674     dxguid:dxguid.obj
 0002:0000b684       _IID_IDirectInputDeviceW   00453684     dxguid:dxguid.obj
 0002:0000b694       _IID_IDirectInputDeviceA   00453694     dxguid:dxguid.obj
 0002:0000b6a4       _IID_IDirectInput8W        004536a4     dxguid:dxguid.obj
 0002:0000b6b4       _IID_IDirectInput8A        004536b4     dxguid:dxguid.obj
 0002:0000b6c4       _IID_IDirectInput7W        004536c4     dxguid:dxguid.obj
 0002:0000b6d4       _IID_IDirectInput7A        004536d4     dxguid:dxguid.obj
 0002:0000b6e4       _IID_IDirectInput2W        004536e4     dxguid:dxguid.obj
 0002:0000b6f4       _IID_IDirectInput2A        004536f4     dxguid:dxguid.obj
 0002:0000b704       _IID_IDirectInputW         00453704     dxguid:dxguid.obj
 0002:0000b714       _IID_IDirectInputA         00453714     dxguid:dxguid.obj
 0002:0000b724       _CLSID_DirectInputDevice8  00453724     dxguid:dxguid.obj
 0002:0000b734       _CLSID_DirectInput8        00453734     dxguid:dxguid.obj
 0002:0000b744       _CLSID_DirectInputDevice   00453744     dxguid:dxguid.obj
 0002:0000b754       _CLSID_DirectInput         00453754     dxguid:dxguid.obj
 0002:0000b764       _TID_DXFILEHeader          00453764     dxguid:dxguid.obj
 0002:0000b774       _IID_IDirectXFileBinary    00453774     dxguid:dxguid.obj
 0002:0000b784       _IID_IDirectXFileDataReference 00453784     dxguid:dxguid.obj
 0002:0000b794       _IID_IDirectXFileData      00453794     dxguid:dxguid.obj
 0002:0000b7a4       _IID_IDirectXFileObject    004537a4     dxguid:dxguid.obj
 0002:0000b7b4       _IID_IDirectXFileSaveObject 004537b4     dxguid:dxguid.obj
 0002:0000b7c4       _IID_IDirectXFileEnumObject 004537c4     dxguid:dxguid.obj
 0002:0000b7d4       _IID_IDirectXFile          004537d4     dxguid:dxguid.obj
 0002:0000b7e4       _CLSID_CDirectXFile        004537e4     dxguid:dxguid.obj
 0002:0000b7f4       _TID_D3DRMRightHanded      004537f4     dxguid:dxguid.obj
 0002:0000b804       _TID_D3DRMPropertyBag      00453804     dxguid:dxguid.obj
 0002:0000b814       _TID_D3DRMStringProperty   00453814     dxguid:dxguid.obj
 0002:0000b824       _TID_D3DRMExternalVisual   00453824     dxguid:dxguid.obj
 0002:0000b834       _TID_D3DRMProgressiveMesh  00453834     dxguid:dxguid.obj
 0002:0000b844       _TID_D3DRMUrl              00453844     dxguid:dxguid.obj
 0002:0000b854       _TID_D3DRMInlineData       00453854     dxguid:dxguid.obj
 0002:0000b864       _TID_D3DRMLightAttenuation 00453864     dxguid:dxguid.obj
 0002:0000b874       _TID_D3DRMLightPenumbra    00453874     dxguid:dxguid.obj
 0002:0000b884       _TID_D3DRMLightRange       00453884     dxguid:dxguid.obj
 0002:0000b894       _TID_D3DRMLightUmbra       00453894     dxguid:dxguid.obj
 0002:0000b8a4       _TID_D3DRMAppData          004538a4     dxguid:dxguid.obj
 0002:0000b8b4       _TID_D3DRMCamera           004538b4     dxguid:dxguid.obj
 0002:0000b8c4       _TID_D3DRMLight            004538c4     dxguid:dxguid.obj
 0002:0000b8d4       _TID_D3DRMFrameRotation    004538d4     dxguid:dxguid.obj
 0002:0000b8e4       _TID_D3DRMFrameVelocity    004538e4     dxguid:dxguid.obj
 0002:0000b8f4       _TID_D3DRMFramePosition    004538f4     dxguid:dxguid.obj
 0002:0000b904       _TID_D3DRMAnimationOptions 00453904     dxguid:dxguid.obj
 0002:0000b914       _TID_D3DRMTimedFloatKeys   00453914     dxguid:dxguid.obj
 0002:0000b924       _TID_D3DRMBoolean2d        00453924     dxguid:dxguid.obj
 0002:0000b934       _TID_D3DRMMeshFaceWraps    00453934     dxguid:dxguid.obj
 0002:0000b944       _TID_D3DRMBoolean          00453944     dxguid:dxguid.obj
 0002:0000b954       _TID_D3DRMMaterialWrap     00453954     dxguid:dxguid.obj
 0002:0000b964       _TID_D3DRMMeshVertexColors 00453964     dxguid:dxguid.obj
 0002:0000b974       _TID_D3DRMIndexedColor     00453974     dxguid:dxguid.obj
 0002:0000b984       _TID_D3DRMTextureReference 00453984     dxguid:dxguid.obj
 0002:0000b994       _TID_D3DRMTextureFilename  00453994     dxguid:dxguid.obj
 0002:0000b9a4       _TID_D3DRMGuid             004539a4     dxguid:dxguid.obj
 0002:0000b9b4       _TID_D3DRMColorRGB         004539b4     dxguid:dxguid.obj
 0002:0000b9c4       _TID_D3DRMColorRGBA        004539c4     dxguid:dxguid.obj
 0002:0000b9d4       _TID_D3DRMMaterialPower    004539d4     dxguid:dxguid.obj
 0002:0000b9e4       _TID_D3DRMMaterialEmissiveColor 004539e4     dxguid:dxguid.obj
 0002:0000b9f4       _TID_D3DRMMaterialSpecularColor 004539f4     dxguid:dxguid.obj
 0002:0000ba04       _TID_D3DRMMaterialDiffuseColor 00453a04     dxguid:dxguid.obj
 0002:0000ba14       _TID_D3DRMMaterialAmbientColor 00453a14     dxguid:dxguid.obj
 0002:0000ba24       _TID_D3DRMFloatKeys        00453a24     dxguid:dxguid.obj
 0002:0000ba34       _TID_D3DRMAnimationKey     00453a34     dxguid:dxguid.obj
 0002:0000ba44       _TID_D3DRMAnimationSet     00453a44     dxguid:dxguid.obj
 0002:0000ba54       _TID_D3DRMAnimation        00453a54     dxguid:dxguid.obj
 0002:0000ba64       _TID_D3DRMMatrix4x4        00453a64     dxguid:dxguid.obj
 0002:0000ba74       _TID_D3DRMCoords2d         00453a74     dxguid:dxguid.obj
 0002:0000ba84       _TID_D3DRMMeshNormals      00453a84     dxguid:dxguid.obj
 0002:0000ba94       _TID_D3DRMMeshTextureCoords 00453a94     dxguid:dxguid.obj
 0002:0000baa4       _TID_D3DRMMeshMaterialList 00453aa4     dxguid:dxguid.obj
 0002:0000bab4       _TID_D3DRMFrameTransformMatrix 00453ab4     dxguid:dxguid.obj
 0002:0000bac4       _TID_D3DRMFrame            00453ac4     dxguid:dxguid.obj
 0002:0000bad4       _TID_D3DRMMaterialArray    00453ad4     dxguid:dxguid.obj
 0002:0000bae4       _TID_D3DRMMaterial         00453ae4     dxguid:dxguid.obj
 0002:0000baf4       _TID_D3DRMMeshFace         00453af4     dxguid:dxguid.obj
 0002:0000bb04       _TID_D3DRMVector           00453b04     dxguid:dxguid.obj
 0002:0000bb14       _TID_D3DRMMesh             00453b14     dxguid:dxguid.obj
 0002:0000bb24       _TID_D3DRMInfo             00453b24     dxguid:dxguid.obj
 0002:0000bb34       _IID_IDirect3DRMWinDevice  00453b34     dxguid:dxguid.obj
 0002:0000bb44       _CLSID_CDirect3DRM         00453b44     dxguid:dxguid.obj
 0002:0000bb54       _IID_IDirect3DRM3          00453b54     dxguid:dxguid.obj
 0002:0000bb64       _IID_IDirect3DRM2          00453b64     dxguid:dxguid.obj
 0002:0000bb74       _IID_IDirect3DRM           00453b74     dxguid:dxguid.obj
 0002:0000bb84       _IID_IDirect3DRMClippedVisual 00453b84     dxguid:dxguid.obj
 0002:0000bb94       _IID_IDirect3DRMPicked2Array 00453b94     dxguid:dxguid.obj
 0002:0000bba4       _IID_IDirect3DRMProgressiveMesh 00453ba4     dxguid:dxguid.obj
 0002:0000bbb4       _IID_IDirect3DRMInterpolator 00453bb4     dxguid:dxguid.obj
 0002:0000bbc4       _IID_IDirect3DRMShadow2    00453bc4     dxguid:dxguid.obj
 0002:0000bbd4       _IID_IDirect3DRMShadow     00453bd4     dxguid:dxguid.obj
 0002:0000bbe4       _IID_IDirect3DRMUserVisual 00453be4     dxguid:dxguid.obj
 0002:0000bbf4       _IID_IDirect3DRMAnimationArray 00453bf4     dxguid:dxguid.obj
 0002:0000bc04       _IID_IDirect3DRMFaceArray  00453c04     dxguid:dxguid.obj
 0002:0000bc14       _IID_IDirect3DRMPickedArray 00453c14     dxguid:dxguid.obj
 0002:0000bc24       _IID_IDirect3DRMLightArray 00453c24     dxguid:dxguid.obj
 0002:0000bc34       _IID_IDirect3DRMVisualArray 00453c34     dxguid:dxguid.obj
 0002:0000bc44       _IID_IDirect3DRMFrameArray 00453c44     dxguid:dxguid.obj
 0002:0000bc54       _IID_IDirect3DRMViewportArray 00453c54     dxguid:dxguid.obj
 0002:0000bc64       _IID_IDirect3DRMDeviceArray 00453c64     dxguid:dxguid.obj
 0002:0000bc74       _IID_IDirect3DRMObjectArray 00453c74     dxguid:dxguid.obj
 0002:0000bc84       _IID_IDirect3DRMAnimationSet2 00453c84     dxguid:dxguid.obj
 0002:0000bc94       _IID_IDirect3DRMAnimationSet 00453c94     dxguid:dxguid.obj
 0002:0000bca4       _IID_IDirect3DRMAnimation2 00453ca4     dxguid:dxguid.obj
 0002:0000bcb4       _IID_IDirect3DRMAnimation  00453cb4     dxguid:dxguid.obj
 0002:0000bcc4       _IID_IDirect3DRMMaterial2  00453cc4     dxguid:dxguid.obj
 0002:0000bcd4       _IID_IDirect3DRMMaterial   00453cd4     dxguid:dxguid.obj
 0002:0000bce4       _IID_IDirect3DRMWrap       00453ce4     dxguid:dxguid.obj
 0002:0000bcf4       _IID_IDirect3DRMTexture3   00453cf4     dxguid:dxguid.obj
 0002:0000bd04       _IID_IDirect3DRMTexture2   00453d04     dxguid:dxguid.obj
 0002:0000bd14       _IID_IDirect3DRMTexture    00453d14     dxguid:dxguid.obj
 0002:0000bd24       _IID_IDirect3DRMLight      00453d24     dxguid:dxguid.obj
 0002:0000bd34       _IID_IDirect3DRMFace2      00453d34     dxguid:dxguid.obj
 0002:0000bd44       _IID_IDirect3DRMFace       00453d44     dxguid:dxguid.obj
 0002:0000bd54       _IID_IDirect3DRMMeshBuilder3 00453d54     dxguid:dxguid.obj
 0002:0000bd64       _IID_IDirect3DRMMeshBuilder2 00453d64     dxguid:dxguid.obj
 0002:0000bd74       _IID_IDirect3DRMMeshBuilder 00453d74     dxguid:dxguid.obj
 0002:0000bd84       _IID_IDirect3DRMMesh       00453d84     dxguid:dxguid.obj
 0002:0000bd94       _IID_IDirect3DRMVisual     00453d94     dxguid:dxguid.obj
 0002:0000bda4       _IID_IDirect3DRMFrame3     00453da4     dxguid:dxguid.obj
 0002:0000bdb4       _IID_IDirect3DRMFrame2     00453db4     dxguid:dxguid.obj
 0002:0000bdc4       _IID_IDirect3DRMFrame      00453dc4     dxguid:dxguid.obj
 0002:0000bdd4       _IID_IDirect3DRMViewport2  00453dd4     dxguid:dxguid.obj
 0002:0000bde4       _IID_IDirect3DRMViewport   00453de4     dxguid:dxguid.obj
 0002:0000bdf4       _IID_IDirect3DRMDevice3    00453df4     dxguid:dxguid.obj
 0002:0000be04       _IID_IDirect3DRMDevice2    00453e04     dxguid:dxguid.obj
 0002:0000be14       _IID_IDirect3DRMDevice     00453e14     dxguid:dxguid.obj
 0002:0000be24       _IID_IDirect3DRMObject2    00453e24     dxguid:dxguid.obj
 0002:0000be34       _IID_IDirect3DRMObject     00453e34     dxguid:dxguid.obj
 0002:0000be44       _CLSID_CDirect3DRMClippedVisual 00453e44     dxguid:dxguid.obj
 0002:0000be54       _CLSID_CDirect3DRMProgressiveMesh 00453e54     dxguid:dxguid.obj
 0002:0000be64       _CLSID_CDirect3DRMTextureInterpolator 00453e64     dxguid:dxguid.obj
 0002:0000be74       _CLSID_CDirect3DRMMaterialInterpolator 00453e74     dxguid:dxguid.obj
 0002:0000be84       _CLSID_CDirect3DRMLightInterpolator 00453e84     dxguid:dxguid.obj
 0002:0000be94       _CLSID_CDirect3DRMMeshInterpolator 00453e94     dxguid:dxguid.obj
 0002:0000bea4       _CLSID_CDirect3DRMFrameInterpolator 00453ea4     dxguid:dxguid.obj
 0002:0000beb4       _CLSID_CDirect3DRMViewportInterpolator 00453eb4     dxguid:dxguid.obj
 0002:0000bec4       _CLSID_CDirect3DRMShadow   00453ec4     dxguid:dxguid.obj
 0002:0000bed4       _CLSID_CDirect3DRMUserVisual 00453ed4     dxguid:dxguid.obj
 0002:0000bee4       _CLSID_CDirect3DRMAnimationSet 00453ee4     dxguid:dxguid.obj
 0002:0000bef4       _CLSID_CDirect3DRMAnimation 00453ef4     dxguid:dxguid.obj
 0002:0000bf04       _CLSID_CDirect3DRMMaterial 00453f04     dxguid:dxguid.obj
 0002:0000bf14       _CLSID_CDirect3DRMWrap     00453f14     dxguid:dxguid.obj
 0002:0000bf24       _CLSID_CDirect3DRMTexture  00453f24     dxguid:dxguid.obj
 0002:0000bf34       _CLSID_CDirect3DRMLight    00453f34     dxguid:dxguid.obj
 0002:0000bf44       _CLSID_CDirect3DRMFace     00453f44     dxguid:dxguid.obj
 0002:0000bf54       _CLSID_CDirect3DRMMeshBuilder 00453f54     dxguid:dxguid.obj
 0002:0000bf64       _CLSID_CDirect3DRMMesh     00453f64     dxguid:dxguid.obj
 0002:0000bf74       _CLSID_CDirect3DRMFrame    00453f74     dxguid:dxguid.obj
 0002:0000bf84       _CLSID_CDirect3DRMViewport 00453f84     dxguid:dxguid.obj
 0002:0000bf94       _CLSID_CDirect3DRMDevice   00453f94     dxguid:dxguid.obj
 0002:0000bfa4       _IID_IDirect3DSwapChain8   00453fa4     dxguid:dxguid.obj
 0002:0000bfb4       _IID_IDirect3DVolume8      00453fb4     dxguid:dxguid.obj
 0002:0000bfc4       _IID_IDirect3DSurface8     00453fc4     dxguid:dxguid.obj
 0002:0000bfd4       _IID_IDirect3DIndexBuffer8 00453fd4     dxguid:dxguid.obj
 0002:0000bfe4       _IID_IDirect3DVertexBuffer8 00453fe4     dxguid:dxguid.obj
 0002:0000bff4       _IID_IDirect3DVolumeTexture8 00453ff4     dxguid:dxguid.obj
 0002:0000c004       _IID_IDirect3DCubeTexture8 00454004     dxguid:dxguid.obj
 0002:0000c014       _IID_IDirect3DTexture8     00454014     dxguid:dxguid.obj
 0002:0000c024       _IID_IDirect3DBaseTexture8 00454024     dxguid:dxguid.obj
 0002:0000c034       _IID_IDirect3DResource8    00454034     dxguid:dxguid.obj
 0002:0000c044       _IID_IDirect3DDevice8      00454044     dxguid:dxguid.obj
 0002:0000c054       _IID_IDirect3D8            00454054     dxguid:dxguid.obj
 0002:0000c064       _IID_IDirect3DVertexBuffer7 00454064     dxguid:dxguid.obj
 0002:0000c074       _IID_IDirect3DVertexBuffer 00454074     dxguid:dxguid.obj
 0002:0000c084       _IID_IDirect3DViewport3    00454084     dxguid:dxguid.obj
 0002:0000c094       _IID_IDirect3DViewport2    00454094     dxguid:dxguid.obj
 0002:0000c0a4       _IID_IDirect3DViewport     004540a4     dxguid:dxguid.obj
 0002:0000c0b4       _IID_IDirect3DExecuteBuffer 004540b4     dxguid:dxguid.obj
 0002:0000c0c4       _IID_IDirect3DMaterial3    004540c4     dxguid:dxguid.obj
 0002:0000c0d4       _IID_IDirect3DMaterial2    004540d4     dxguid:dxguid.obj
 0002:0000c0e4       _IID_IDirect3DMaterial     004540e4     dxguid:dxguid.obj
 0002:0000c0f4       _IID_IDirect3DLight        004540f4     dxguid:dxguid.obj
 0002:0000c104       _IID_IDirect3DTexture2     00454104     dxguid:dxguid.obj
 0002:0000c114       _IID_IDirect3DTexture      00454114     dxguid:dxguid.obj
 0002:0000c124       _IID_IDirect3DDevice7      00454124     dxguid:dxguid.obj
 0002:0000c134       _IID_IDirect3DDevice3      00454134     dxguid:dxguid.obj
 0002:0000c144       _IID_IDirect3DDevice2      00454144     dxguid:dxguid.obj
 0002:0000c154       _IID_IDirect3DDevice       00454154     dxguid:dxguid.obj
 0002:0000c164       _IID_IDirect3DTnLHalDevice 00454164     dxguid:dxguid.obj
 0002:0000c174       _IID_IDirect3DNullDevice   00454174     dxguid:dxguid.obj
 0002:0000c184       _IID_IDirect3DRefDevice    00454184     dxguid:dxguid.obj
 0002:0000c194       _IID_IDirect3DMMXDevice    00454194     dxguid:dxguid.obj
 0002:0000c1a4       _IID_IDirect3DHALDevice    004541a4     dxguid:dxguid.obj
 0002:0000c1b4       _IID_IDirect3DRGBDevice    004541b4     dxguid:dxguid.obj
 0002:0000c1c4       _IID_IDirect3DRampDevice   004541c4     dxguid:dxguid.obj
 0002:0000c1d4       _IID_IDirect3D7            004541d4     dxguid:dxguid.obj
 0002:0000c1e4       _IID_IDirect3D3            004541e4     dxguid:dxguid.obj
 0002:0000c1f4       _IID_IDirect3D2            004541f4     dxguid:dxguid.obj
 0002:0000c204       _IID_IDirect3D             00454204     dxguid:dxguid.obj
 0002:0000c214       _DDVPTYPE_PHILIPS          00454214     dxguid:dxguid.obj
 0002:0000c224       _DDVPTYPE_BROOKTREE        00454224     dxguid:dxguid.obj
 0002:0000c234       _DDVPTYPE_CCIR656          00454234     dxguid:dxguid.obj
 0002:0000c244       _DDVPTYPE_E_HREFL_VREFL    00454244     dxguid:dxguid.obj
 0002:0000c254       _DDVPTYPE_E_HREFL_VREFH    00454254     dxguid:dxguid.obj
 0002:0000c264       _DDVPTYPE_E_HREFH_VREFL    00454264     dxguid:dxguid.obj
 0002:0000c274       _DDVPTYPE_E_HREFH_VREFH    00454274     dxguid:dxguid.obj
 0002:0000c284       _IID_IDirectDrawVideoPortNotify 00454284     dxguid:dxguid.obj
 0002:0000c294       _IID_IDirectDrawVideoPort  00454294     dxguid:dxguid.obj
 0002:0000c2a4       _IID_IDDVideoPortContainer 004542a4     dxguid:dxguid.obj
 0002:0000c2b4       _IID_IXACTEngine           004542b4     dxguid:dxguid.obj
 0002:0000c2c4       _CLSID_XACTDebugEngine     004542c4     dxguid:dxguid.obj
 0002:0000c2d4       _CLSID_XACTAuditionEngine  004542d4     dxguid:dxguid.obj
 0002:0000c2e4       _CLSID_XACTEngine          004542e4     dxguid:dxguid.obj
 0002:0000c2f4       _GUID_DDMoreCaps           004542f4     dxguid:dxguid.obj
 0002:0000c304       _GUID_Miscellaneous2Callbacks 00454304     dxguid:dxguid.obj
 0002:0000c314       _GUID_NTCallbacks          00454314     dxguid:dxguid.obj
 0002:0000c324       _GUID_MotionCompCallbacks  00454324     dxguid:dxguid.obj
 0002:0000c334       _GUID_D3DParseUnknownCommandCallback 00454334     dxguid:dxguid.obj
 0002:0000c344       _GUID_UserModeDriverPassword 00454344     dxguid:dxguid.obj
 0002:0000c354       _GUID_UserModeDriverInfo   00454354     dxguid:dxguid.obj
 0002:0000c364       _GUID_OptSurfaceUmodeInfo  00454364     dxguid:dxguid.obj
 0002:0000c374       _GUID_OptSurfaceKmodeInfo  00454374     dxguid:dxguid.obj
 0002:0000c384       _GUID_DDStereoMode         00454384     dxguid:dxguid.obj
 0002:0000c394       _GUID_DDMoreSurfaceCaps    00454394     dxguid:dxguid.obj
 0002:0000c3a4       _GUID_ZPixelFormats        004543a4     dxguid:dxguid.obj
 0002:0000c3b4       _GUID_D3DExtendedCaps      004543b4     dxguid:dxguid.obj
 0002:0000c3c4       _GUID_KernelCaps           004543c4     dxguid:dxguid.obj
 0002:0000c3d4       _GUID_KernelCallbacks      004543d4     dxguid:dxguid.obj
 0002:0000c3e4       _GUID_NonLocalVidMemCaps   004543e4     dxguid:dxguid.obj
 0002:0000c3f4       _GUID_D3DCallbacks3        004543f4     dxguid:dxguid.obj
 0002:0000c404       _GUID_D3DCallbacks2        00454404     dxguid:dxguid.obj
 0002:0000c414       _GUID_VideoPortCaps        00454414     dxguid:dxguid.obj
 0002:0000c424       _GUID_ColorControlCallbacks 00454424     dxguid:dxguid.obj
 0002:0000c434       _GUID_VideoPortCallbacks   00454434     dxguid:dxguid.obj
 0002:0000c444       _GUID_MiscellaneousCallbacks 00454444     dxguid:dxguid.obj
 0002:0000c454       _IID_IDirectDrawGammaControl 00454454     dxguid:dxguid.obj
 0002:0000c464       _IID_IDirectDrawColorControl 00454464     dxguid:dxguid.obj
 0002:0000c474       _IID_IDirectDrawClipper    00454474     dxguid:dxguid.obj
 0002:0000c484       _IID_IDirectDrawPalette    00454484     dxguid:dxguid.obj
 0002:0000c494       _IID_IDirectDrawPalette2   00454494     dxguid:dxguid.obj
 0002:0000c4a4       _IID_IDirectDrawOptSurface 004544a4     dxguid:dxguid.obj
 0002:0000c4b4       _GUID_DirectDrawPaletteStream 004544b4     dxguid:dxguid.obj
 0002:0000c4c4       _GUID_DirectDrawSurfaceStream 004544c4     dxguid:dxguid.obj
 0002:0000c4d4       _IID_IDirectDrawFactory2   004544d4     dxguid:dxguid.obj
 0002:0000c4e4       _CLSID_DirectDrawFactory2  004544e4     dxguid:dxguid.obj
 0002:0000c4f4       _IID_IDirectDrawSurfaceNew 004544f4     dxguid:dxguid.obj
 0002:0000c504       _IID_IDirectDrawSurface7   00454504     dxguid:dxguid.obj
 0002:0000c514       _IID_IDirectDrawSurface4   00454514     dxguid:dxguid.obj
 0002:0000c524       _IID_IDirectDrawSurface3   00454524     dxguid:dxguid.obj
 0002:0000c534       _IID_IDirectDrawSurface2   00454534     dxguid:dxguid.obj
 0002:0000c544       _IID_IDirectDrawSurface    00454544     dxguid:dxguid.obj
 0002:0000c554       _IID_IDirectDraw7          00454554     dxguid:dxguid.obj
 0002:0000c564       _IID_IDirectDraw4          00454564     dxguid:dxguid.obj
 0002:0000c574       _IID_IDirectDraw2          00454574     dxguid:dxguid.obj
 0002:0000c584       _IID_IDirectDraw           00454584     dxguid:dxguid.obj
 0002:0000c594       _CLSID_DirectDrawClipper   00454594     dxguid:dxguid.obj
 0002:0000c5a4       _CLSID_DirectDraw7         004545a4     dxguid:dxguid.obj
 0002:0000c5b4       _CLSID_DirectDraw          004545b4     dxguid:dxguid.obj
 0002:0000c5c4       ??_C@_0BA@JFNIOLAK@string?5too?5long?$AA@ 004545c4     libcpmtd:string.obj
 0002:0000c5d8       ??_7length_error@std@@6B@  004545d8     libcpmtd:string.obj
 0002:0000c5e4       ??_7logic_error@std@@6B@   004545e4     libcpmtd:string.obj
 0002:0000c5ec       ??_C@_0BI@CFPLBAOH@invalid?5string?5position?$AA@ 004545ec     libcpmtd:string.obj
 0002:0000c608       ??_7out_of_range@std@@6B@  00454608     libcpmtd:string.obj
 0002:0000c610       __load_config_used         00454610     LIBCMTD:loadcfg.obj
 0002:0000c6c8       ??_R1A@?0A@A@type_info@@8  004546c8     LIBCMTD:typinfo.obj
 0002:0000c6e0       ??_R2type_info@@8          004546e0     LIBCMTD:typinfo.obj
 0002:0000c6e8       ??_R3type_info@@8          004546e8     LIBCMTD:typinfo.obj
 0002:0000c6f8       ??_R4type_info@@6B@        004546f8     LIBCMTD:typinfo.obj
 0002:0000c70c       ??_R1A@?0A@A@exception@@8  0045470c     LIBCMTD:stdexcpt.obj
 0002:0000c724       ??_R2exception@@8          00454724     LIBCMTD:stdexcpt.obj
 0002:0000c72c       ??_R3exception@@8          0045472c     LIBCMTD:stdexcpt.obj
 0002:0000c73c       ??_R4exception@@6B@        0045473c     LIBCMTD:stdexcpt.obj
 0002:0000c750       ??_R1A@?0A@A@bad_cast@@8   00454750     LIBCMTD:stdexcpt.obj
 0002:0000c768       ??_R2bad_cast@@8           00454768     LIBCMTD:stdexcpt.obj
 0002:0000c774       ??_R3bad_cast@@8           00454774     LIBCMTD:stdexcpt.obj
 0002:0000c784       ??_R4bad_cast@@6B@         00454784     LIBCMTD:stdexcpt.obj
 0002:0000c798       ??_R1A@?0A@A@bad_typeid@@8 00454798     LIBCMTD:stdexcpt.obj
 0002:0000c7b0       ??_R2bad_typeid@@8         004547b0     LIBCMTD:stdexcpt.obj
 0002:0000c7bc       ??_R3bad_typeid@@8         004547bc     LIBCMTD:stdexcpt.obj
 0002:0000c7cc       ??_R4bad_typeid@@6B@       004547cc     LIBCMTD:stdexcpt.obj
 0002:0000c7e0       ??_R1A@?0A@A@__non_rtti_object@@8 004547e0     LIBCMTD:stdexcpt.obj
 0002:0000c7f8       ??_R2__non_rtti_object@@8  004547f8     LIBCMTD:stdexcpt.obj
 0002:0000c808       ??_R3__non_rtti_object@@8  00454808     LIBCMTD:stdexcpt.obj
 0002:0000c818       ??_R4__non_rtti_object@@6B@ 00454818     LIBCMTD:stdexcpt.obj
 0002:0000c82c       ??_R1A@?0A@A@logic_error@std@@8 0045482c     libcpmtd:string.obj
 0002:0000c844       ??_R1A@?0A@A@length_error@std@@8 00454844     libcpmtd:string.obj
 0002:0000c85c       ??_R2length_error@std@@8   0045485c     libcpmtd:string.obj
 0002:0000c86c       ??_R3length_error@std@@8   0045486c     libcpmtd:string.obj
 0002:0000c87c       ??_R4length_error@std@@6B@ 0045487c     libcpmtd:string.obj
 0002:0000c890       ??_R2logic_error@std@@8    00454890     libcpmtd:string.obj
 0002:0000c89c       ??_R3logic_error@std@@8    0045489c     libcpmtd:string.obj
 0002:0000c8ac       ??_R4logic_error@std@@6B@  004548ac     libcpmtd:string.obj
 0002:0000c8c0       ??_R1A@?0A@A@out_of_range@std@@8 004548c0     libcpmtd:string.obj
 0002:0000c8d8       ??_R2out_of_range@std@@8   004548d8     libcpmtd:string.obj
 0002:0000c8e8       ??_R3out_of_range@std@@8   004548e8     libcpmtd:string.obj
 0002:0000c8f8       ??_R4out_of_range@std@@6B@ 004548f8     libcpmtd:string.obj
 0002:0000c910       ___safe_se_handler_table   00454910     <linker-defined>
 0002:0000cae4       ___rtc_iaa                 00454ae4     LIBCMTD:initsect.obj
 0002:0000cae8       ___rtc_izz                 00454ae8     LIBCMTD:initsect.obj
 0002:0000caec       ___rtc_taa                 00454aec     LIBCMTD:initsect.obj
 0002:0000caf0       ___rtc_tzz                 00454af0     LIBCMTD:initsect.obj
 0002:0000d8a8       __CT??_R0?AVexception@@@8??0exception@@QAE@ABV0@@Z12 004558a8     NxAllVehicle.obj
 0002:0000d8c4       __CT??_R0?AVlogic_error@std@@@8??0logic_error@std@@QAE@ABV01@@Z40 004558c4     NxAllVehicle.obj
 0002:0000d8e0       __CT??_R0?AVout_of_range@std@@@8??0out_of_range@std@@QAE@ABV01@@Z40 004558e0     NxAllVehicle.obj
 0002:0000d8fc       __CTA3?AVout_of_range@std@@ 004558fc     NxAllVehicle.obj
 0002:0000d90c       __TI3?AVout_of_range@std@@ 0045590c     NxAllVehicle.obj
 0002:0000d9ac       __CT??_R0?AVlength_error@std@@@8??0length_error@std@@QAE@ABV01@@Z40 004559ac     NxAllVehicle.obj
 0002:0000d9c8       __CTA3?AVlength_error@std@@ 004559c8     NxAllVehicle.obj
 0002:0000d9d8       __TI3?AVlength_error@std@@ 004559d8     NxAllVehicle.obj
 0002:0000e678       __IMPORT_DESCRIPTOR_KERNEL32 00456678     kernel32:KERNEL32.dll
 0002:0000e68c       __IMPORT_DESCRIPTOR_USER32 0045668c     user32:USER32.dll
 0002:0000e6a0       __IMPORT_DESCRIPTOR_OgreMain_d 004566a0     OgreMain_d:OgreMain_d.dll
 0002:0000e6b4       __IMPORT_DESCRIPTOR_OgreGUIRenderer_d 004566b4     OgreGUIRenderer_d:OgreGUIRenderer_d.dll
 0002:0000e6c8       __IMPORT_DESCRIPTOR_CEGUIBase_d 004566c8     CEGUIBase_d:CEGUIBase_d.dll
 0002:0000e6dc       __IMPORT_DESCRIPTOR_PhysXLoader 004566dc     PhysXLoader:PhysXLoader.dll
 0002:0000e6f0       __IMPORT_DESCRIPTOR_NxCooking 004566f0     NxCooking:NxCooking.dll
 0002:0000e704       __IMPORT_DESCRIPTOR_WINMM  00456704     winmm:WINMM.dll
 0002:0000e718       __IMPORT_DESCRIPTOR_DSOUND 00456718     dsound:DSOUND.dll
 0002:0000e72c       __NULL_IMPORT_DESCRIPTOR   0045672c     kernel32:KERNEL32.dll
 0003:00000000       ___xc_a                    0045a000     LIBCMTD:crt0init.obj
 0003:0000002c       ___xc_z                    0045a02c     LIBCMTD:crt0init.obj
 0003:00000030       ___xi_a                    0045a030     LIBCMTD:crt0init.obj
 0003:00000048       ___xi_z                    0045a048     LIBCMTD:crt0init.obj
 0003:0000004c       ___xp_a                    0045a04c     LIBCMTD:crt0init.obj
 0003:00000054       ___xp_z                    0045a054     LIBCMTD:crt0init.obj
 0003:00000058       ___xt_a                    0045a058     LIBCMTD:crt0init.obj
 0003:00000060       ___xt_z                    0045a060     LIBCMTD:crt0init.obj
 0003:00000070       ??_R0?AVException@Ogre@@@8 0045a070     CuteCar.obj
 0003:00000090       ??_R0?AVexception@@@8      0045a090     NxAllVehicle.obj
 0003:000000a8       ??_R0?AVlogic_error@std@@@8 0045a0a8     NxAllVehicle.obj
 0003:000000c8       ??_R0?AVout_of_range@std@@@8 0045a0c8     NxAllVehicle.obj
 0003:000000e8       ??_R0?AVlength_error@std@@@8 0045a0e8     NxAllVehicle.obj
 0003:00000110       ___security_cookie         0045a110     LIBCMTD:seccook.obj
 0003:00000114       __fltused                  0045a114     LIBCMTD:fpinit.obj
 0003:00000118       __ldused                   0045a118     LIBCMTD:fpinit.obj
 0003:0000011c       __FPinit                   0045a11c     LIBCMTD:fpinit.obj
 0003:00000120       __FPmtinit                 0045a120     LIBCMTD:fpinit.obj
 0003:00000124       __FPmtterm                 0045a124     LIBCMTD:fpinit.obj
 0003:00000128       __NLG_Destination          0045a128     LIBCMTD:exsup.obj
 0003:00000140       ??_R0?AVtype_info@@@8      0045a140     LIBCMTD:typinfo.obj
 0003:00000160       ?__pMyUnhandledExceptionFilter@@3PAXA 0045a160     LIBCMTD:throw.obj
 0003:00000194       __crtDbgFlag               0045a194     LIBCMTD:dbgheap.obj
 0003:0000019c       __crtBreakAlloc            0045a19c     LIBCMTD:dbgheap.obj
 0003:000001b8       ??_R0?AVbad_cast@@@8       0045a1b8     LIBCMTD:stdexcpt.obj
 0003:000001d0       ??_R0?AVbad_typeid@@@8     0045a1d0     LIBCMTD:stdexcpt.obj
 0003:000001ec       ??_R0?AV__non_rtti_object@@@8 0045a1ec     LIBCMTD:stdexcpt.obj
 0003:00000240       __iob                      0045a240     LIBCMTD:_file.obj
 0003:000004e0       __half                     0045a4e0     LIBCMTD:pow.obj
 0003:00000500       __aexit_rtn                0045a500     LIBCMTD:wincrt0.obj
 0003:00000504       ___app_type                0045a504     LIBCMTD:wincrt0.obj
 0003:00000508       __cfltcvt_tab              0045a508     LIBCMTD:cmiscdat.obj
 0003:00000530       ___tlsindex                0045a530     LIBCMTD:tidtable.obj
 0003:00000534       ?__pInconsistency@@3P6AXXZA 0045a534     LIBCMTD:hooks.obj
 0003:00000660       ___nullstring              0045a660     LIBCMTD:output.obj
 0003:00000664       ___wnullstring             0045a664     LIBCMTD:output.obj
 0003:00000668       __crtAssertBusy            0045a668     LIBCMTD:dbgrpt.obj
 0003:0000066c       __CrtDbgMode               0045a66c     LIBCMTD:dbgrpt.obj
 0003:00000678       __CrtDbgFile               0045a678     LIBCMTD:dbgrpt.obj
 0003:00000800       __indefinite               0045a800     LIBCMTD:87disp.obj
 0003:0000080a       __piby2                    0045a80a     LIBCMTD:87disp.obj
 0003:00000830       __d_inf                    0045a830     LIBCMTD:util.obj
 0003:00000838       __d_ind                    0045a838     LIBCMTD:util.obj
 0003:00000840       __d_max                    0045a840     LIBCMTD:util.obj
 0003:00000848       __d_min                    0045a848     LIBCMTD:util.obj
 0003:00000850       __d_mzero                  0045a850     LIBCMTD:util.obj
 0003:00000958       __pfnAllocHook             0045a958     LIBCMTD:dbghook.obj
 0003:0000095c       __amblksiz                 0045a95c     LIBCMTD:heapinit.obj
 0003:00000968       ___initiallocinfo          0045a968     LIBCMTD:setlocal.obj
 0003:000009bc       ___ptlocinfo               0045a9bc     LIBCMTD:setlocal.obj
 0003:00000af8       ___lc_category             0045aaf8     LIBCMTD:setlocal.obj
 0003:00000b40       ___badioinfo               0045ab40     LIBCMTD:ioinit.obj
 0003:00000b70       __infinity                 0045ab70     LIBCMTD:87tran.obj
 0003:00000b7a       __minfinity                0045ab7a     LIBCMTD:87tran.obj
 0003:00000b84       __logemax                  0045ab84     LIBCMTD:87tran.obj
 0003:00000baa       __OP_EXPjmptab             0045abaa     LIBCMTD:87tran.obj
 0003:00000bd0       __XcptActTab               0045abd0     LIBCMTD:winxfltr.obj
 0003:00000c48       __First_FPE_Indx           0045ac48     LIBCMTD:winxfltr.obj
 0003:00000c4c       __Num_FPE                  0045ac4c     LIBCMTD:winxfltr.obj
 0003:00000c50       __XcptActTabSize           0045ac50     LIBCMTD:winxfltr.obj
 0003:00000c54       __XcptActTabCount          0045ac54     LIBCMTD:winxfltr.obj
 0003:00000cf8       ___mb_cur_max              0045acf8     LIBCMTD:nlsdata1.obj
 0003:00000cfc       ___decimal_point           0045acfc     LIBCMTD:nlsdata1.obj
 0003:00000d00       ___decimal_point_length    0045ad00     LIBCMTD:nlsdata1.obj
 0003:00000e30       __pctype                   0045ae30     LIBCMTD:ctype.obj
 0003:00000e34       __pwctype                  0045ae34     LIBCMTD:ctype.obj
 0003:00000e40       __matherr_flag             0045ae40     LIBCMTD:matherr.obj
 0003:00000e44       ___lc_time_curr            0045ae44     LIBCMTD:strftime.obj
 0003:00000e48       ___lc_time_c               0045ae48     LIBCMTD:strftime.obj
 0003:00000f00       ___lconv_static_decimal    0045af00     LIBCMTD:lconv.obj
 0003:00000f04       ___lconv_c                 0045af04     LIBCMTD:lconv.obj
 0003:00000f34       ___lconv                   0045af34     LIBCMTD:lconv.obj
 0003:00000f38       ___lc_clike                0045af38     LIBCMTD:nlsdata2.obj
 0003:00000f40       __pmatherr                 0045af40     LIBCMTD:libm_error.obj
 0003:000010b0       __timezone                 0045b0b0     LIBCMTD:timeset.obj
 0003:000010b4       __daylight                 0045b0b4     LIBCMTD:timeset.obj
 0003:000010b8       __dstbias                  0045b0b8     LIBCMTD:timeset.obj
 0003:00001140       __tzname                   0045b140     LIBCMTD:timeset.obj
 0003:00001160       __lpdays                   0045b160     LIBCMTD:days.obj
 0003:00001194       __days                     0045b194     LIBCMTD:days.obj
 0003:000011d0       __pow10pos                 0045b1d0     LIBCMTD:constpow.obj
 0003:00001330       __pow10neg                 0045b330     LIBCMTD:constpow.obj
 0003:000014a4       ?displayCameraDetails@?DD@??processUnbufferedKeyInput@ExampleFrameListener@@UAE_NABUFrameEvent@Ogre@@@Z@4_NA 0045b4a4     CuteCar.obj
 0003:000014a8       ?tris@?1??updateStats@ExampleFrameListener@@IAEXXZ@4V?$basic_string@DU?$char_traits@D@std@@V?$allocator@D@2@@std@@A 0045b4a8     CuteCar.obj
 0003:000014c4       ?worstFps@?1??updateStats@ExampleFrameListener@@IAEXXZ@4V?$basic_string@DU?$char_traits@D@std@@V?$allocator@D@2@@std@@A 0045b4c4     CuteCar.obj
 0003:000014e0       ?bestFps@?1??updateStats@ExampleFrameListener@@IAEXXZ@4V?$basic_string@DU?$char_traits@D@std@@V?$allocator@D@2@@std@@A 0045b4e0     CuteCar.obj
 0003:000014fc       ?avgFps@?1??updateStats@ExampleFrameListener@@IAEXXZ@4V?$basic_string@DU?$char_traits@D@std@@V?$allocator@D@2@@std@@A 0045b4fc     CuteCar.obj
 0003:00001518       ?currFps@?1??updateStats@ExampleFrameListener@@IAEXXZ@4V?$basic_string@DU?$char_traits@D@std@@V?$allocator@D@2@@std@@A 0045b518     CuteCar.obj
 0003:00001534       ??_B?1??updateStats@ExampleFrameListener@@IAEXXZ@51 0045b534     CuteCar.obj
 0003:00001538       ?id@?$num_put@DV?$ostreambuf_iterator@DU?$char_traits@D@std@@@std@@@std@@2V0locale@2@A 0045b538     CuteCar.obj
 0003:0000153c       ?id@?$codecvt@DDH@std@@2V0locale@2@A 0045b53c     CuteCar.obj
 0003:00001540       ?id@?$numpunct@D@std@@2V0locale@2@A 0045b540     CuteCar.obj
 0003:00001548       ?mSingleton@NxAllVehicle@@0PAV1@A 0045b548     NxAllVehicle.obj
 0003:0000158c       ?mAllVehicle@NxTerrain@@0PAVNxAllVehicle@@A 0045b58c     NxTerrain.obj
 0003:00001590       ?mScene@NxTerrainItem@@0PAVNxScene@@A 0045b590     NxTerrainItem.obj
 0003:00001594       ?mItemCount@NxTerrainItem@@0HA 0045b594     NxTerrainItem.obj
 0003:00001598       ?mItemPicked@NxTerrainItem@@0V?$NxArray@PAVItemPicked@@VNxAllocatorDefault@@@@A 0045b598     NxTerrainItem.obj
 0003:000015a8       ?mItemTrigger@NxTerrainItem@@0PAVItemTrigger@1@A 0045b5a8     NxTerrainItem.obj
 0003:0000179c       ?mSingleton@OgreAllVehicle@@0PAV1@A 0045b79c     OgreAllVehicle.obj
 0003:000017a0       ?mWheelCount@OgreWheel@@0HA 0045b7a0     OgreAllVehicle.obj
 0003:000017a8       ___fastflag                0045b7a8     LIBCMTD:fpinit.obj
 0003:000017ac       __adjust_fdiv              0045b7ac     LIBCMTD:fpinit.obj
 0003:000017b0       ___pPurecall               0045b7b0     LIBCMTD:purevirt.obj
 0003:000017d0       __cflush                   0045b7d0     LIBCMTD:_file.obj
 0003:000017d4       __aenvptr                  0045b7d4     LIBCMTD:wincrt0.obj
 0003:000017d8       __wenvptr                  0045b7d8     LIBCMTD:wincrt0.obj
 0003:000017dc       ___error_mode              0045b7dc     LIBCMTD:wincrt0.obj
 0003:000017e4       _gpFlsAlloc                0045b7e4     LIBCMTD:tidtable.obj
 0003:000017e8       _gpFlsGetValue             0045b7e8     LIBCMTD:tidtable.obj
 0003:000017ec       _gpFlsSetValue             0045b7ec     LIBCMTD:tidtable.obj
 0003:000017f0       _gpFlsFree                 0045b7f0     LIBCMTD:tidtable.obj
 0003:0000194c       __umaskval                 0045b94c     LIBCMTD:crt0dat.obj
 0003:00001950       __osplatform               0045b950     LIBCMTD:crt0dat.obj
 0003:00001954       __osver                    0045b954     LIBCMTD:crt0dat.obj
 0003:00001958       __winver                   0045b958     LIBCMTD:crt0dat.obj
 0003:0000195c       __winmajor                 0045b95c     LIBCMTD:crt0dat.obj
 0003:00001960       __winminor                 0045b960     LIBCMTD:crt0dat.obj
 0003:00001964       ___argc                    0045b964     LIBCMTD:crt0dat.obj
 0003:00001968       ___argv                    0045b968     LIBCMTD:crt0dat.obj
 0003:0000196c       ___wargv                   0045b96c     LIBCMTD:crt0dat.obj
 0003:00001970       __environ                  0045b970     LIBCMTD:crt0dat.obj
 0003:00001974       ___initenv                 0045b974     LIBCMTD:crt0dat.obj
 0003:00001978       __wenviron                 0045b978     LIBCMTD:crt0dat.obj
 0003:0000197c       ___winitenv                0045b97c     LIBCMTD:crt0dat.obj
 0003:00001980       __pgmptr                   0045b980     LIBCMTD:crt0dat.obj
 0003:00001984       __wpgmptr                  0045b984     LIBCMTD:crt0dat.obj
 0003:00001988       __exitflag                 0045b988     LIBCMTD:crt0dat.obj
 0003:0000198c       __C_Termination_Done       0045b98c     LIBCMTD:crt0dat.obj
 0003:00001990       __C_Exit_Done              0045b990     LIBCMTD:crt0dat.obj
 0003:0000199c       __newmode                  0045b99c     LIBCMTD:_newmode.obj
 0003:000019a0       ?_pnhHeap@@3P6AHI@ZA       0045b9a0     LIBCMTD:handler.obj
 0003:000019d8       __stdbuf                   0045b9d8     LIBCMTD:_sftbuf.obj
 0003:00001aec       __adbgmsg                  0045baec     LIBCMTD:crt0msg.obj
 0003:00001b44       __commode                  0045bb44     LIBCMTD:ncommode.obj
 0003:00001b48       ___lconv_static_null       0045bb48     LIBCMTD:lconv.obj
 0003:00001b4c       ___lc_time_intl            0045bb4c     LIBCMTD:inittime.obj
 0003:00001b50       ___lconv_intl              0045bb50     LIBCMTD:initmon.obj
 0003:00001b54       ___lc_handle               0045bb54     LIBCMTD:nlsdata2.obj
 0003:00001b6c       ___lc_codepage             0045bb6c     LIBCMTD:nlsdata2.obj
 0003:00001b70       ___lc_collate_cp           0045bb70     LIBCMTD:nlsdata2.obj
 0003:00001b78       ___lc_id                   0045bb78     LIBCMTD:nlsdata3.obj
 0003:00001bc4       __fmode                    0045bbc4     LIBCMTD:txtmode.obj
 0003:00001c94       ___ctype1                  0045bc94     <common>
 0003:00001c98       ___ctype1_refcount         0045bc98     <common>
 0003:00001c9c       ___lconv_mon_refcount      0045bc9c     <common>
 0003:00001ca0       ___lconv_intl_refcount     0045bca0     <common>
 0003:00001ca4       ___lconv_num_refcount      0045bca4     <common>
 0003:00001ca8       ___mblcid                  0045bca8     <common>
 0003:00001cac       ___ptmbcinfo               0045bcac     <common>
 0003:00001cb0       ___ismbcodepage            0045bcb0     <common>
 0003:00001cc0       __mbctype                  0045bcc0     <common>
 0003:00001dc4       ___mbcodepage              0045bdc4     <common>
 0003:00001dd0       ___mbulinfo                0045bdd0     <common>
 0003:00001de0       __mbcasemap                0045bde0     <common>
 0003:00001ee0       ___use_sse2_mathfcns       0045bee0     <common>
 0003:00001ee4       ___sse2_available          0045bee4     <common>
 0003:00001ee8       __nhandle                  0045bee8     <common>
 0003:00001f00       ___pioinfo                 0045bf00     <common>
 0003:00002000       ___setlc_active            0045c000     <common>
 0003:00002004       ___unguarded_readlc_active 0045c004     <common>
 0003:00002008       ___sbh_initialized         0045c008     <common>
 0003:0000200c       ___sbh_pHeaderDefer        0045c00c     <common>
 0003:00002010       ___sbh_cntHeaderList       0045c010     <common>
 0003:00002014       ___sbh_pHeaderList         0045c014     <common>
 0003:00002018       ___sbh_threshold           0045c018     <common>
 0003:0000201c       ___sbh_pHeaderScan         0045c01c     <common>
 0003:00002020       ___sbh_sizeHeaderList      0045c020     <common>
 0003:00002024       ___sbh_indGroupDefer       0045c024     <common>
 0003:00002028       __crtheap                  0045c028     <common>
 0003:0000202c       ___active_heap             0045c02c     <common>
 0003:00002030       ___env_initialized         0045c030     <common>
 0003:00002034       ___onexitend               0045c034     <common>
 0003:00002038       ___onexitbegin             0045c038     <common>
 0003:0000203c       ___mbctype_initialized     0045c03c     <common>
 0003:00002040       __pfnReportHook            0045c040     <common>
 0003:00002044       __pReportHookList          0045c044     <common>
 0003:00002048       __acmdln                   0045c048     <common>
 0003:0000204c       ___piob                    0045c04c     <common>
 0003:00002060       __bufin                    0045c060     <common>
 0003:00003060       __nstream                  0045d060     <common>
 0003:00003064       __pfnDumpClient            0045d064     <common>

 entry point at        0001:00026c30

 Static symbols

 0001:fffff000       __ehhandler$?_Copy@?$basic_string@DU?$char_traits@D@std@@V?$allocator@D@2@@std@@IAEXII@Z 00400000 f   libcpmtd:string.obj
 0001:fffff000       $L142273                   00400000 f   NxTerrain.obj
 0001:fffff000       $L132333                   00400000 f   OgreAllVehicle.obj
 0001:fffff000       $L132348                   00400000 f   OgreAllVehicle.obj
 0001:fffff000       $L12252                    00400000 f   libcpmtd:string.obj
 0001:fffff000       __ehhandler$?_Copy@?$basic_string@DU?$char_traits@D@std@@V?$allocator@D@2@@std@@IAEXII@Z 00400000 f   OgreAllVehicle.obj
 0001:fffff000       $L12234                    00400000 f   libcpmtd:string.obj
 0001:fffff000       $L132434                   00400000 f   OgreAllVehicle.obj
 0001:fffff000       $L12220                    00400000 f   libcpmtd:string.obj
 0001:fffff000       $L142285                   00400000 f   NxTerrain.obj
 0001:fffff000       $L11816                    00400000 f   NxWheel.obj
 0001:fffff000       $L11828                    00400000 f   NxWheel.obj
 0001:fffff000       $L142240                   00400000 f   NxTerrain.obj
 0001:fffff000       __ehhandler$?_Copy@?$basic_string@DU?$char_traits@D@std@@V?$allocator@D@2@@std@@IAEXII@Z 00400000 f   NxTerrain.obj
 0001:fffff000       __ehhandler$?_Copy@?$basic_string@DU?$char_traits@D@std@@V?$allocator@D@2@@std@@IAEXII@Z 00400000 f   NxAllVehicle.obj
 0001:fffff000       __ehhandler$?_Copy@?$basic_string@DU?$char_traits@D@std@@V?$allocator@D@2@@std@@IAEXII@Z 00400000 f   NxTerrainItem.obj
 0001:fffff000       $L11842                    00400000 f   NxWheel.obj
 0001:fffff000       $L24162                    00400000 f   NxTerrainItem.obj
 0001:fffff000       $L25429                    00400000 f   NxVehicle.obj
 0001:fffff000       $L24144                    00400000 f   NxTerrainItem.obj
 0001:fffff000       $L25442                    00400000 f   NxVehicle.obj
 0001:fffff000       $L24132                    00400000 f   NxTerrainItem.obj
 0001:fffff000       $L25496                    00400000 f   NxVehicle.obj
 0001:fffff000       $L25877                    00400000 f   NxVehicle.obj
 0001:fffff000       $L24124                    00400000 f   NxTerrainItem.obj
 0001:fffff000       $L25887                    00400000 f   NxVehicle.obj
 0001:fffff000       $L24083                    00400000 f   NxTerrainItem.obj
 0001:fffff000       $L25898                    00400000 f   NxVehicle.obj
 0001:fffff000       $L131774                   00400000 f   OgreTerrain.obj
 0001:fffff000       $L26006                    00400000 f   NxVehicle.obj
 0001:fffff000       $L131785                   00400000 f   OgreTerrain.obj
 0001:fffff000       __ehhandler$?_Copy@?$basic_string@DU?$char_traits@D@std@@V?$allocator@D@2@@std@@IAEXII@Z 00400000 f   NxVehicle.obj
 0001:fffff000       $L131800                   00400000 f   OgreTerrain.obj
 0001:fffff000       __ehhandler$?_Buynode@?$_Tree@V?$_Tmap_traits@MMU?$less@M@std@@V?$allocator@U?$pair@$$CBMM@std@@@2@$0A@@std@@@std@@IAEPAU_Node@?$_Tree_nod@V?$_Tmap_traits@MMU?$less@M@std@@V?$allocator@U?$pair@$$CBMM@std@@@2@$0A@@std@@@2@XZ 00400000 f   NxVehicle.obj
 0001:fffff000       $L24072                    00400000 f   NxTerrainItem.obj
 0001:fffff000       $L26059                    00400000 f   NxVehicle.obj
 0001:fffff000       __ehhandler$?_Copy@?$basic_string@DU?$char_traits@D@std@@V?$allocator@D@2@@std@@IAEXII@Z 00400000 f   OgreTerrain.obj
 0001:fffff000       $L132322                   00400000 f   OgreAllVehicle.obj
 0001:fffff000       $L131844                   00400000 f   OgreTerrain.obj
 0001:fffff008       $L131845                   00400008 f   OgreTerrain.obj
 0001:fffff008       $L24073                    00400008 f   NxTerrainItem.obj
 0001:fffff008       __ehhandler$??0logic_error@std@@QAE@ABV01@@Z 00400008 f   OgreTerrain.obj
 0001:fffff008       __ehhandler$??1logic_error@std@@UAE@XZ 00400008 f   OgreTerrain.obj
 0001:fffff008       __ehhandler$??0logic_error@std@@QAE@ABV01@@Z 00400008 f   NxVehicle.obj
 0001:fffff008       __ehhandler$??0logic_error@std@@QAE@ABV?$basic_string@DU?$char_traits@D@std@@V?$allocator@D@2@@1@@Z 00400008 f   OgreTerrain.obj
 0001:fffff008       __ehhandler$??1logic_error@std@@UAE@XZ 00400008 f   NxVehicle.obj
 0001:fffff008       __ehhandler$??0logic_error@std@@QAE@ABV?$basic_string@DU?$char_traits@D@std@@V?$allocator@D@2@@1@@Z 00400008 f   OgreAllVehicle.obj
 0001:fffff008       __ehhandler$??0logic_error@std@@QAE@ABV?$basic_string@DU?$char_traits@D@std@@V?$allocator@D@2@@1@@Z 00400008 f   NxVehicle.obj
 0001:fffff008       __ehhandler$??0NxMat34@@QAE@_N@Z 00400008 f   NxTerrainItem.obj
 0001:fffff008       __ehhandler$?erase@?$_Tree@V?$_Tmap_traits@MMU?$less@M@std@@V?$allocator@U?$pair@$$CBMM@std@@@2@$0A@@std@@@std@@QAE?AViterator@12@V312@@Z 00400008 f   NxVehicle.obj
 0001:fffff008       __ehhandler$??0NxBoxShapeDesc@@QAE@XZ 00400008 f   NxTerrainItem.obj
 0001:fffff008       __ehhandler$??1NxActorDesc@@QAE@XZ 00400008 f   NxVehicle.obj
 0001:fffff008       $L132435                   00400008 f   OgreAllVehicle.obj
 0001:fffff008       __ehhandler$??0logic_error@std@@QAE@ABV?$basic_string@DU?$char_traits@D@std@@V?$allocator@D@2@@1@@Z 00400008 f   libcpmtd:string.obj
 0001:fffff008       __ehhandler$??1logic_error@std@@UAE@XZ 00400008 f   OgreAllVehicle.obj
 0001:fffff008       $L25443                    00400008 f   NxVehicle.obj
 0001:fffff008       __ehhandler$??0NxMat34@@QAE@_N@Z 00400008 f   NxVehicle.obj
 0001:fffff008       __ehhandler$??0logic_error@std@@QAE@ABV01@@Z 00400008 f   OgreAllVehicle.obj
 0001:fffff008       __ehhandler$??0logic_error@std@@QAE@ABV01@@Z 00400008 f   libcpmtd:string.obj
 0001:fffff008       __ehhandler$??1NxActorDesc@@QAE@XZ 00400008 f   NxTerrainItem.obj
 0001:fffff008       __ehhandler$??0NxMat34@@QAE@_N@Z 00400008 f   NxWheel.obj
 0001:fffff008       __ehhandler$??0NxMat34@@QAE@_N@Z 00400008 f   NxTerrain.obj
 0001:fffff008       __ehhandler$??1logic_error@std@@UAE@XZ 00400008 f   libcpmtd:string.obj
 0001:fffff00b       $L11817                    0040000b f   NxWheel.obj
 0001:fffff00b       __ehhandler$??1NxShapeDesc@@UAE@XZ 0040000b f   NxTerrainItem.obj
 0001:fffff00b       $L142274                   0040000b f   NxTerrain.obj
 0001:fffff00b       $L24133                    0040000b f   NxTerrainItem.obj
 0001:fffff00b       __ehhandler$??1NxShapeDesc@@UAE@XZ 0040000b f   NxTerrain.obj
 0001:fffff00b       __ehhandler$??1NxShapeDesc@@UAE@XZ 0040000b f   NxWheel.obj
 0001:fffff011       __ehhandler$?_Buynode@?$_Tree@V?$_Tmap_traits@MMU?$less@M@std@@V?$allocator@U?$pair@$$CBMM@std@@@2@$0A@@std@@@std@@IAEPAU_Node@?$_Tree_nod@V?$_Tmap_traits@MMU?$less@M@std@@V?$allocator@U?$pair@$$CBMM@std@@@2@$0A@@std@@@2@PAU342@00ABU?$pair@$$CBMM@2@D@Z 00400011 f   NxVehicle.obj
 0001:fffff013       __ehhandler$??0NxActorDesc@@QAE@XZ 00400013 f   NxVehicle.obj
 0001:fffff013       __ehhandler$??0NxActorDesc@@QAE@XZ 00400013 f   NxTerrainItem.obj
 0001:fffff016       __ehhandler$??0NxShapeDesc@@IAE@W4NxShapeType@@@Z 00400016 f   NxTerrainItem.obj
 0001:fffff016       __ehhandler$??0NxShapeDesc@@IAE@W4NxShapeType@@@Z 00400016 f   NxWheel.obj
 0001:fffff016       __ehhandler$??0NxShapeDesc@@IAE@W4NxShapeType@@@Z 00400016 f   NxTerrain.obj
 0001:fffff021       __ehhandler$??$?HDU?$char_traits@D@std@@V?$allocator@D@1@@std@@YA?AV?$basic_string@DU?$char_traits@D@std@@V?$allocator@D@2@@0@PBDABV10@@Z 00400021 f   OgreTerrain.obj
 0001:fffff021       __ehhandler$??$?HDU?$char_traits@D@std@@V?$allocator@D@1@@std@@YA?AV?$basic_string@DU?$char_traits@D@std@@V?$allocator@D@2@@0@PBDABV10@@Z 00400021 f   OgreAllVehicle.obj
 0001:fffff091       $L26058                    00400091 f   NxVehicle.obj
 0001:fffff0a7       $L132405                   004000a7 f   OgreAllVehicle.obj
 0001:fffff0a7       $L26021                    004000a7 f   NxVehicle.obj
 0001:fffff0a7       $L142396                   004000a7 f   NxTerrain.obj
 0001:fffff0a7       $L12342                    004000a7 f   libcpmtd:string.obj
 0001:fffff0a7       $L142813                   004000a7 f   NxAllVehicle.obj
 0001:fffff0a7       $L24294                    004000a7 f   NxTerrainItem.obj
 0001:fffff0a7       $L131820                   004000a7 f   OgreTerrain.obj
 0001:fffff0ce       $L142815                   004000ce f   NxAllVehicle.obj
 0001:fffff0ce       $L131822                   004000ce f   OgreTerrain.obj
 0001:fffff0ce       $L26023                    004000ce f   NxVehicle.obj
 0001:fffff0ce       $L24296                    004000ce f   NxTerrainItem.obj
 0001:fffff0ce       $L142398                   004000ce f   NxTerrain.obj
 0001:fffff0ce       $L132407                   004000ce f   OgreAllVehicle.obj
 0001:fffff0ce       $L12344                    004000ce f   libcpmtd:string.obj
 0001:fffff0d2       $L26042                    004000d2 f   NxVehicle.obj
 0001:00002bcf       $L222509                   00403bcf f   CuteCar.obj
 0001:00004b7d       $L222701                   00405b7d f i CuteCar.obj
 0001:0000c667       $L223515                   0040d667 f i CuteCar.obj
 0001:0000c68e       $L223517                   0040d68e f i CuteCar.obj
 0001:00012cb2       $L142835                   00413cb2 f i NxAllVehicle.obj
 0001:00012de1       $L142850                   00413de1 f i NxAllVehicle.obj
 0001:0001542d       $L24238                    0041642d f i NxTerrainItem.obj
 0001:00019c86       $L25918                    0041ac86 f i NxVehicle.obj
 0001:0001b392       $L26099                    0041c392 f i NxVehicle.obj
 0001:0001b4c1       $L26114                    0041c4c1 f i NxVehicle.obj
 0001:0001e3bb       $L132297                   0041f3bb f i OgreAllVehicle.obj
 0001:0001e4c3       $L132299                   0041f4c3 f i OgreAllVehicle.obj
 0001:0001e7db       $L132365                   0041f7db f i OgreAllVehicle.obj
 0001:0001e8e3       $L132367                   0041f8e3 f i OgreAllVehicle.obj
 0001:0001ee7b       $L132481                   0041fe7b f i OgreAllVehicle.obj
 0001:0001f09d       $L132505                   0042009d f i OgreAllVehicle.obj
 0001:000202db       $L131749                   004212db f i OgreTerrain.obj
 0001:000203e3       $L131751                   004213e3 f i OgreTerrain.obj
 0001:00020a00       _report_failure            00421a00 f   LIBCMTD:secchk.obj
 0001:00020cd0       ?CatchGuardHandler@@YA?AW4_EXCEPTION_DISPOSITION@@PAUEHExceptionRecord@@PAUCatchGuardRN@@PAX2@Z 00421cd0 f   LIBCMTD:trnsctrl.obj
 0001:00020e10       ?TranslatorGuardHandler@@YA?AW4_EXCEPTION_DISPOSITION@@PAUEHExceptionRecord@@PAUTranslatorGuardRN@@PAX2@Z 00421e10 f   LIBCMTD:trnsctrl.obj
 0001:00021028       $$$00001                   00422028 f   LIBCMTD:exsup.obj
 0001:00021048       __unwind_handler           00422048 f   LIBCMTD:exsup.obj
 0001:00021048       $$$00003                   00422048 f   LIBCMTD:exsup.obj
 0001:0002106a       $$$00005                   0042206a f   LIBCMTD:exsup.obj
 0001:000210d2       $$$00007                   004220d2 f   LIBCMTD:exsup.obj
 0001:00021116       $$$00011                   00422116 f   LIBCMTD:exsup.obj
 0001:00021580       ?ArrayUnwindFilter@@YAHPAU_EXCEPTION_POINTERS@@@Z 00422580 f   LIBCMTD:ehvecdtr.obj
 0001:00021980       __onexit_lk                00422980 f   LIBCMTD:onexit.obj
 0001:00023570       _realloc_help              00424570 f   LIBCMTD:dbgheap.obj
 0001:000242b0       _CheckBytes                004252b0 f   LIBCMTD:dbgheap.obj
 0001:00025000       __printMemBlockData        00426000 f   LIBCMTD:dbgheap.obj
 0001:000265af       _$$$00002                  004275af f   LIBCMTD:atan.obj
 0001:000267cf       _$$$00002                  004277cf f   LIBCMTD:pow.obj
 0001:00026e80       _fast_error_exit           00427e80 f   LIBCMTD:wincrt0.obj
 0001:00026eb0       _check_managed_app         00427eb0 f   LIBCMTD:wincrt0.obj
 0001:0002739d       $$$00003                   0042839d f   LIBCMTD:exsup3.obj
 0001:000276d0       __cftoe2                   004286d0 f   LIBCMTD:cvt.obj
 0001:000278c0       __cftof2                   004288c0 f   LIBCMTD:cvt.obj
 0001:00027b60       __shift                    00428b60 f   LIBCMTD:cvt.obj
 0001:00027c80       ?FindHandler@@YAXPAUEHExceptionRecord@@PAUEHRegistrationNode@@PAU_CONTEXT@@PAXPBU_s_FuncInfo@@EH1@Z 00428c80 f   LIBCMTD:frame.obj
 0001:00027f20       ?FindHandlerForForeignException@@YAXPAUEHExceptionRecord@@PAUEHRegistrationNode@@PAU_CONTEXT@@PAXPBU_s_FuncInfo@@HH1@Z 00428f20 f   LIBCMTD:frame.obj
 0001:00028050       ?TypeMatch@@YAHPBU_s_HandlerType@@PBU_s_CatchableType@@PBU_s_ThrowInfo@@@Z 00429050 f   LIBCMTD:frame.obj
 0001:00028250       ?FrameUnwindFilter@@YAHPAU_EXCEPTION_POINTERS@@@Z 00429250 f   LIBCMTD:frame.obj
 0001:00028290       ?CatchIt@@YAXPAUEHExceptionRecord@@PAUEHRegistrationNode@@PAU_CONTEXT@@PAXPBU_s_FuncInfo@@PBU_s_HandlerType@@PBU_s_CatchableType@@PBU_s_TryBlockMapEntry@@H1E@Z 00429290 f   LIBCMTD:frame.obj
 0001:00028350       ?CallCatchBlock@@YAPAXPAUEHExceptionRecord@@PAUEHRegistrationNode@@PAU_CONTEXT@@PBU_s_FuncInfo@@PAXHK@Z 00429350 f   LIBCMTD:frame.obj
 0001:00028580       ?ExFilterRethrow@@YAHPAU_EXCEPTION_POINTERS@@@Z 00429580 f   LIBCMTD:frame.obj
 0001:000285d0       ?BuildCatchObject@@YAXPAUEHExceptionRecord@@PAXPBU_s_HandlerType@@PBU_s_CatchableType@@@Z 004295d0 f   LIBCMTD:frame.obj
 0001:00028900       ?AdjustPointer@@YAPAXPAXABUPMD@@@Z 00429900 f   LIBCMTD:frame.obj
 0001:0002a970       _write_char                0042b970 f   LIBCMTD:output.obj
 0001:0002aa10       _write_multi_char          0042ba10 f   LIBCMTD:output.obj
 0001:0002aa50       _write_string              0042ba50 f   LIBCMTD:output.obj
 0001:0002aac0       _get_int_arg               0042bac0 f   LIBCMTD:output.obj
 0001:0002aae0       _get_int64_arg             0042bae0 f   LIBCMTD:output.obj
 0001:0002ab00       _get_short_arg             0042bb00 f   LIBCMTD:output.obj
 0001:0002b2f0       _CrtMessageWindow          0042c2f0 f   LIBCMTD:dbgrpt.obj
 0001:0002b6d0       _doexit                    0042c6d0 f   LIBCMTD:crt0dat.obj
 0001:0002b870       __initterm                 0042c870 f   LIBCMTD:crt0dat.obj
 0001:0002b8a0       __initterm_e               0042c8a0 f   LIBCMTD:crt0dat.obj
 0001:0002bcb0       _flsall                    0042ccb0 f   LIBCMTD:fflush.obj
 0001:0002d183       _$$$00003                  0042e183 f   LIBCMTD:87disp.obj
 0001:0002e530       __get_fname                0042f530 f   LIBCMTD:fpexcept.obj
 0001:00030c40       ___updatetlocinfo_lk       00431c40 f   LIBCMTD:setlocal.obj
 0001:00031030       __setlocale_lk             00432030 f   LIBCMTD:setlocal.obj
 0001:000313e0       __setlocale_set_cat        004323e0 f   LIBCMTD:setlocal.obj
 0001:000317b0       __setlocale_get_all        004327b0 f   LIBCMTD:setlocal.obj
 0001:000321f0       _ctrlevent_capture@4       004331f0 f   LIBCMTD:winsig.obj
 0001:00032520       _siglookup                 00433520 f   LIBCMTD:winsig.obj
 0001:00032760       _xtoa                      00433760 f   LIBCMTD:xtoa.obj
 0001:000328e0       _x64toa@20                 004338e0 f   LIBCMTD:xtoa.obj
 0001:00033660       _has_osfxsr_set            00434660 f   LIBCMTD:cpu_disp.obj
 0001:00034530       _$$$00001                  00435530 f   LIBCMTD:87tran.obj
 0001:00034bc0       _xcptlookup                00435bc0 f   LIBCMTD:winxfltr.obj
 0001:00034f60       _parse_cmdline             00435f60 f   LIBCMTD:stdargv.obj
 0001:00035dd0       __abstract_cw              00436dd0 f   LIBCMTD:ieee87.obj
 0001:00035f20       __hw_cw                    00436f20 f   LIBCMTD:ieee87.obj
 0001:00036080       __abstract_sw              00437080 f   LIBCMTD:ieee87.obj
 0001:000375c0       _getSystemCP               004385c0 f   LIBCMTD:mbctype.obj
 0001:00037620       __setmbcp_lk               00438620 f   LIBCMTD:mbctype.obj
 0001:00037910       _CPtoLCID                  00438910 f   LIBCMTD:mbctype.obj
 0001:00037990       _setSBCS                   00438990 f   LIBCMTD:mbctype.obj
 0001:00037a10       _setSBUpLow                00438a10 f   LIBCMTD:mbctype.obj
 0001:00037e80       ___crtInitCritSecNoSpinCount@8 00438e80 f   LIBCMTD:initcrit.obj
 0001:00038e90       __tsopen_lk                00439e90 f   LIBCMTD:open.obj
 0001:00039f80       __expandtime               0043af80 f   LIBCMTD:strftime.obj
 0001:0003a560       __store_str                0043b560 f   LIBCMTD:strftime.obj
 0001:0003a5b0       __store_num                0043b5b0 f   LIBCMTD:strftime.obj
 0001:0003a660       __store_number             0043b660 f   LIBCMTD:strftime.obj
 0001:0003a710       __store_winword            0043b710 f   LIBCMTD:strftime.obj
 0001:0003b070       __get_lc_time              0043c070 f   LIBCMTD:inittime.obj
 0001:0003bbb0       _fix_grouping              0043cbb0 f   LIBCMTD:initnum.obj
 0001:0003c050       _fix_grouping              0043d050 f   LIBCMTD:initmon.obj
 0001:0003cb40       _TranslateName             0043db40 f   LIBCMTD:getqloc.obj
 0001:0003cbd0       _GetLcidFromLangCountry    0043dbd0 f   LIBCMTD:getqloc.obj
 0001:0003cc90       _LangCountryEnumProc@4     0043dc90 f   LIBCMTD:getqloc.obj
 0001:0003d010       _GetLcidFromLanguage       0043e010 f   LIBCMTD:getqloc.obj
 0001:0003d080       _LanguageEnumProc@4        0043e080 f   LIBCMTD:getqloc.obj
 0001:0003d1d0       _GetLcidFromCountry        0043e1d0 f   LIBCMTD:getqloc.obj
 0001:0003d220       _CountryEnumProc@4         0043e220 f   LIBCMTD:getqloc.obj
 0001:0003d2f0       _GetLcidFromDefault        0043e2f0 f   LIBCMTD:getqloc.obj
 0001:0003d320       _ProcessCodePage           0043e320 f   LIBCMTD:getqloc.obj
 0001:0003d3d0       _TestDefaultCountry        0043e3d0 f   LIBCMTD:getqloc.obj
 0001:0003d420       _TestDefaultLanguage       0043e420 f   LIBCMTD:getqloc.obj
 0001:0003d4c0       _crtGetLocaleInfoA@16      0043e4c0 f   LIBCMTD:getqloc.obj
 0001:0003d650       _LcidFromHexString         0043e650 f   LIBCMTD:getqloc.obj
 0001:0003d6d0       _GetPrimaryLen             0043e6d0 f   LIBCMTD:getqloc.obj
 0001:0003f080       _x_ismbbtype               00440080 f   LIBCMTD:ismbbyte.obj
 0001:0003f650       _strncnt                   00440650 f   LIBCMTD:a_map.obj
 0001:00040cc0       __tzset_lk                 00441cc0 f   LIBCMTD:tzset.obj
 0001:00041150       __isindst_lk               00442150 f   LIBCMTD:tzset.obj
 0001:00041420       _cvtdate                   00442420 f   LIBCMTD:tzset.obj
 0001:000434c0       _strncnt                   004444c0 f   LIBCMTD:a_cmp.obj
 0001:00043890       _findenv                   00444890 f   LIBCMTD:setenv.obj
 0001:00043910       _copy_environ              00444910 f   LIBCMTD:setenv.obj
 0001:00043ad0       _$$$00001                  00444ad0 f   LIBCMTD:strchr.obj
 0001:00044ed0       $L57827                    00445ed0 f   AudioClass.obj
 0001:00044edb       __ehhandler$?CreateBuffer@SoundClass@@QAEJPAD@Z 00445edb f   AudioClass.obj
 0001:00044ee5       $L57858                    00445ee5 f   AudioClass.obj
 0001:00044ef0       __ehhandler$?CreateBuffer@SoundClass@@QAEJPAEKPAUtWAVEFORMATEX@@@Z 00445ef0 f   AudioClass.obj
 0001:00044f00       $L222510                   00445f00 f   CuteCar.obj
 0001:00044f08       $L222511                   00445f08 f   CuteCar.obj
 0001:00044f10       __ehhandler$_WinMain@16    00445f10 f   CuteCar.obj
 0001:00044f20       $L222534                   00445f20 f   CuteCar.obj
 0001:00044f2b       $L222536                   00445f2b f   CuteCar.obj
 0001:00044f44       $L222538                   00445f44 f   CuteCar.obj
 0001:00044f5d       $L222540                   00445f5d f   CuteCar.obj
 0001:00044f76       __ehhandler$?setup@ExampleApplication@@MAE_NXZ 00445f76 f   CuteCar.obj
 0001:00044f80       $L222553                   00445f80 f   CuteCar.obj
 0001:00044f88       __ehhandler$?configure@ExampleApplication@@MAE_NXZ 00445f88 f   CuteCar.obj
 0001:00044fa0       $L222562                   00445fa0 f   CuteCar.obj
 0001:00044fa8       __ehhandler$?chooseSceneManager@ExampleApplication@@MAEXXZ 00445fa8 f   CuteCar.obj
 0001:00044fc0       $L222573                   00445fc0 f   CuteCar.obj
 0001:00044fc8       __ehhandler$?createCamera@ExampleApplication@@MAEXXZ 00445fc8 f   CuteCar.obj
 0001:00044fe0       $L222586                   00445fe0 f   CuteCar.obj
 0001:00044feb       __ehhandler$?createFrameListener@ExampleApplication@@MAEXXZ 00445feb f   CuteCar.obj
 0001:00045000       $L222605                   00446000 f   CuteCar.obj
 0001:00045009       $L222606                   00446009 f   CuteCar.obj
 0001:00045015       $L222607                   00446015 f   CuteCar.obj
 0001:0004501d       $L222608                   0044601d f   CuteCar.obj
 0001:00045028       __ehhandler$??0ExampleFrameListener@@QAE@PAVRenderWindow@Ogre@@PAVCamera@2@_N2@Z 00446028 f   CuteCar.obj
 0001:00045040       $L222633                   00446040 f   CuteCar.obj
 0001:00045048       $L222634                   00446048 f   CuteCar.obj
 0001:00045050       $L222635                   00446050 f   CuteCar.obj
 0001:0004505b       $L222636                   0044605b f   CuteCar.obj
 0001:00045066       $L222637                   00446066 f   CuteCar.obj
 0001:00045071       $L222638                   00446071 f   CuteCar.obj
 0001:0004507c       $L222639                   0044607c f   CuteCar.obj
 0001:00045087       $L222640                   00446087 f   CuteCar.obj
 0001:00045092       $L222641                   00446092 f   CuteCar.obj
 0001:0004509d       $L222642                   0044609d f   CuteCar.obj
 0001:000450a8       __ehhandler$?processUnbufferedKeyInput@ExampleFrameListener@@UAE_NABUFrameEvent@Ogre@@@Z 004460a8 f   CuteCar.obj
 0001:000450c0       $L222702                   004460c0 f   CuteCar.obj
 0001:000450ce       $L222703                   004460ce f   CuteCar.obj
 0001:000450dc       $L222704                   004460dc f   CuteCar.obj
 0001:000450ea       $L222705                   004460ea f   CuteCar.obj
 0001:000450f8       $L222706                   004460f8 f   CuteCar.obj
 0001:00045106       $L222707                   00446106 f   CuteCar.obj
 0001:0004510e       $L222708                   0044610e f   CuteCar.obj
 0001:00045116       $L222709                   00446116 f   CuteCar.obj
 0001:0004511e       $L222710                   0044611e f   CuteCar.obj
 0001:00045129       $L222711                   00446129 f   CuteCar.obj
 0001:00045134       $L222712                   00446134 f   CuteCar.obj
 0001:0004513f       $L222713                   0044613f f   CuteCar.obj
 0001:0004514a       $L222714                   0044614a f   CuteCar.obj
 0001:00045155       $L222715                   00446155 f   CuteCar.obj
 0001:00045160       $L222716                   00446160 f   CuteCar.obj
 0001:0004516b       $L222717                   0044616b f   CuteCar.obj
 0001:00045176       $L222718                   00446176 f   CuteCar.obj
 0001:00045181       $L222719                   00446181 f   CuteCar.obj
 0001:0004518c       $L222720                   0044618c f   CuteCar.obj
 0001:00045197       $L222721                   00446197 f   CuteCar.obj
 0001:000451a2       $L222722                   004461a2 f   CuteCar.obj
 0001:000451ad       $L222723                   004461ad f   CuteCar.obj
 0001:000451b8       $L222724                   004461b8 f   CuteCar.obj
 0001:000451c3       $L222725                   004461c3 f   CuteCar.obj
 0001:000451ce       $L222726                   004461ce f   CuteCar.obj
 0001:000451d9       $L222727                   004461d9 f   CuteCar.obj
 0001:000451e4       $L222728                   004461e4 f   CuteCar.obj
 0001:000451ef       $L222729                   004461ef f   CuteCar.obj
 0001:000451fa       $L222730                   004461fa f   CuteCar.obj
 0001:00045205       __ehhandler$?updateStats@ExampleFrameListener@@IAEXXZ 00446205 f   CuteCar.obj
 0001:00045210       $L222752                   00446210 f   CuteCar.obj
 0001:00045219       $L222755                   00446219 f   CuteCar.obj
 0001:00045241       __ehhandler$??1ExampleFrameListener@@UAE@XZ 00446241 f   CuteCar.obj
 0001:00045250       $L222773                   00446250 f   CuteCar.obj
 0001:00045259       $L222774                   00446259 f   CuteCar.obj
 0001:00045264       $L222775                   00446264 f   CuteCar.obj
 0001:0004526f       $L222776                   0044626f f   CuteCar.obj
 0001:00045277       $L222777                   00446277 f   CuteCar.obj
 0001:0004527f       $L222778                   0044627f f   CuteCar.obj
 0001:00045287       $L222779                   00446287 f   CuteCar.obj
 0001:00045292       __ehhandler$?setupResources@ExampleApplication@@MAEXXZ 00446292 f   CuteCar.obj
 0001:000452a0       $L222808                   004462a0 f   CuteCar.obj
 0001:000452a8       $L222809                   004462a8 f   CuteCar.obj
 0001:000452b0       __ehhandler$?createCamera@CuteCarApplication@@UAEXXZ 004462b0 f   CuteCar.obj
 0001:000452c0       $L222822                   004462c0 f   CuteCar.obj
 0001:000452cb       __ehhandler$?createFrameListener@CuteCarApplication@@UAEXXZ 004462cb f   CuteCar.obj
 0001:000452e0       $L222900                   004462e0 f   CuteCar.obj
 0001:000452eb       $L222901                   004462eb f   CuteCar.obj
 0001:000452fa       $L222902                   004462fa f   CuteCar.obj
 0001:00045309       $L222903                   00446309 f   CuteCar.obj
 0001:0004531b       $L222904                   0044631b f   CuteCar.obj
 0001:0004532d       $L222905                   0044632d f   CuteCar.obj
 0001:00045335       $L222906                   00446335 f   CuteCar.obj
 0001:00045343       $L222907                   00446343 f   CuteCar.obj
 0001:00045351       $L222908                   00446351 f   CuteCar.obj
 0001:0004535d       $L222909                   0044635d f   CuteCar.obj
 0001:00045369       $L222910                   00446369 f   CuteCar.obj
 0001:00045375       $L222911                   00446375 f   CuteCar.obj
 0001:00045381       $L222912                   00446381 f   CuteCar.obj
 0001:0004538d       $L222913                   0044638d f   CuteCar.obj
 0001:0004539b       $L222914                   0044639b f   CuteCar.obj
 0001:000453a9       $L222915                   004463a9 f   CuteCar.obj
 0001:000453b4       $L222916                   004463b4 f   CuteCar.obj
 0001:000453bf       $L222918                   004463bf f   CuteCar.obj
 0001:000453ca       $L222919                   004463ca f   CuteCar.obj
 0001:000453d8       $L222920                   004463d8 f   CuteCar.obj
 0001:000453e6       $L222921                   004463e6 f   CuteCar.obj
 0001:000453f4       $L222922                   004463f4 f   CuteCar.obj
 0001:00045402       $L222923                   00446402 f   CuteCar.obj
 0001:00045410       $L222924                   00446410 f   CuteCar.obj
 0001:0004541e       __ehhandler$??0CuteCarFrameListener@@QAE@PAVRenderWindow@Ogre@@PAVCamera@2@PAVSceneManager@2@@Z 0044641e f   CuteCar.obj
 0001:00045430       $L222947                   00446430 f   CuteCar.obj
 0001:0004543c       $L222948                   0044643c f   CuteCar.obj
 0001:00045448       $L222949                   00446448 f   CuteCar.obj
 0001:00045454       __ehhandler$?loadMain@CuteCarFrameListener@@QAEXXZ 00446454 f   CuteCar.obj
 0001:00045460       $L222958                   00446460 f   CuteCar.obj
 0001:00045468       __ehhandler$?closesheet@CuteCarFrameListener@@QAEXXZ 00446468 f   CuteCar.obj
 0001:00045480       $L222988                   00446480 f   CuteCar.obj
 0001:0004548c       $L222989                   0044648c f   CuteCar.obj
 0001:00045498       $L222991                   00446498 f   CuteCar.obj
 0001:000454a4       $L222993                   004464a4 f   CuteCar.obj
 0001:000454b0       $L222995                   004464b0 f   CuteCar.obj
 0001:000454bc       $L222997                   004464bc f   CuteCar.obj
 0001:000454c8       $L222999                   004464c8 f   CuteCar.obj
 0001:000454d4       __ehhandler$?setupEventHandlers@CuteCarFrameListener@@QAEXXZ 004464d4 f   CuteCar.obj
 0001:000454e0       $L223040                   004464e0 f   CuteCar.obj
 0001:000454e8       $L223041                   004464e8 f   CuteCar.obj
 0001:000454f4       $L223042                   004464f4 f   CuteCar.obj
 0001:00045500       $L223043                   00446500 f   CuteCar.obj
 0001:0004550c       $L223044                   0044650c f   CuteCar.obj
 0001:00045517       $L223045                   00446517 f   CuteCar.obj
 0001:00045522       $L223046                   00446522 f   CuteCar.obj
 0001:0004552e       $L223047                   0044652e f   CuteCar.obj
 0001:0004553a       $L223048                   0044653a f   CuteCar.obj
 0001:00045546       $L223049                   00446546 f   CuteCar.obj
 0001:00045552       $L223050                   00446552 f   CuteCar.obj
 0001:0004555e       $L223051                   0044655e f   CuteCar.obj
 0001:0004556a       $L223052                   0044656a f   CuteCar.obj
 0001:00045575       $L223053                   00446575 f   CuteCar.obj
 0001:00045580       $L223054                   00446580 f   CuteCar.obj
 0001:0004558c       $L223055                   0044658c f   CuteCar.obj
 0001:00045598       $L223056                   00446598 f   CuteCar.obj
 0001:000455a4       $L223057                   004465a4 f   CuteCar.obj
 0001:000455b0       $L223058                   004465b0 f   CuteCar.obj
 0001:000455bc       $L223059                   004465bc f   CuteCar.obj
 0001:000455c8       $L223060                   004465c8 f   CuteCar.obj
 0001:000455d4       $L223061                   004465d4 f   CuteCar.obj
 0001:000455e0       $L223062                   004465e0 f   CuteCar.obj
 0001:000455eb       $L223063                   004465eb f   CuteCar.obj
 0001:000455f7       $L223064                   004465f7 f   CuteCar.obj
 0001:00045602       $L223065                   00446602 f   CuteCar.obj
 0001:0004560d       $L223066                   0044660d f   CuteCar.obj
 0001:00045618       $L223067                   00446618 f   CuteCar.obj
 0001:00045623       $L223068                   00446623 f   CuteCar.obj
 0001:0004562f       $L223069                   0044662f f   CuteCar.obj
 0001:0004563b       __ehhandler$?playscheme@CuteCarFrameListener@@QAEXXZ 0044663b f   CuteCar.obj
 0001:00045650       $L223081                   00446650 f   CuteCar.obj
 0001:0004565c       $L223082                   0044665c f   CuteCar.obj
 0001:00045668       $L223083                   00446668 f   CuteCar.obj
 0001:00045674       __ehhandler$?handleHelp@CuteCarFrameListener@@QAE_NABVEventArgs@CEGUI@@@Z 00446674 f   CuteCar.obj
 0001:00045680       $L223113                   00446680 f   CuteCar.obj
 0001:0004568c       $L223114                   0044668c f   CuteCar.obj
 0001:00045698       $L223115                   00446698 f   CuteCar.obj
 0001:000456a4       $L223116                   004466a4 f   CuteCar.obj
 0001:000456af       $L223117                   004466af f   CuteCar.obj
 0001:000456ba       $L223118                   004466ba f   CuteCar.obj
 0001:000456c6       $L223119                   004466c6 f   CuteCar.obj
 0001:000456d1       $L223120                   004466d1 f   CuteCar.obj
 0001:000456dc       $L223121                   004466dc f   CuteCar.obj
 0001:000456e8       $L223122                   004466e8 f   CuteCar.obj
 0001:000456f3       $L223123                   004466f3 f   CuteCar.obj
 0001:000456fe       $L223124                   004466fe f   CuteCar.obj
 0001:0004570a       $L223125                   0044670a f   CuteCar.obj
 0001:00045715       $L223126                   00446715 f   CuteCar.obj
 0001:00045720       $L223127                   00446720 f   CuteCar.obj
 0001:0004572c       $L223128                   0044672c f   CuteCar.obj
 0001:00045738       $L223129                   00446738 f   CuteCar.obj
 0001:00045744       $L223130                   00446744 f   CuteCar.obj
 0001:0004574f       $L223131                   0044674f f   CuteCar.obj
 0001:0004575b       $L223132                   0044675b f   CuteCar.obj
 0001:00045766       $L223133                   00446766 f   CuteCar.obj
 0001:00045772       __ehhandler$?handlePlace@CuteCarFrameListener@@QAE_NABVEventArgs@CEGUI@@@Z 00446772 f   CuteCar.obj
 0001:00045780       $L223151                   00446780 f   CuteCar.obj
 0001:0004578c       __ehhandler$?setTime@CuteCarFrameListener@@QAEXH@Z 0044678c f   CuteCar.obj
 0001:000457a0       $L223162                   004467a0 f   CuteCar.obj
 0001:000457ac       __ehhandler$?setSpeed@CuteCarFrameListener@@QAEXH@Z 004467ac f   CuteCar.obj
 0001:000457c0       $L223208                   004467c0 f   CuteCar.obj
 0001:000457ce       $L223209                   004467ce f   CuteCar.obj
 0001:000457d9       $L223210                   004467d9 f   CuteCar.obj
 0001:000457e4       $L223211                   004467e4 f   CuteCar.obj
 0001:000457ec       $L223212                   004467ec f   CuteCar.obj
 0001:000457f8       $L223213                   004467f8 f   CuteCar.obj
 0001:00045803       $L223214                   00446803 f   CuteCar.obj
 0001:0004580e       $L223215                   0044680e f   CuteCar.obj
 0001:0004581a       $L223216                   0044681a f   CuteCar.obj
 0001:00045825       $L223217                   00446825 f   CuteCar.obj
 0001:00045831       $L223218                   00446831 f   CuteCar.obj
 0001:0004583d       $L223219                   0044683d f   CuteCar.obj
 0001:00045849       $L223220                   00446849 f   CuteCar.obj
 0001:00045855       $L223221                   00446855 f   CuteCar.obj
 0001:00045861       $L223222                   00446861 f   CuteCar.obj
 0001:0004586d       $L223223                   0044686d f   CuteCar.obj
 0001:00045878       $L223224                   00446878 f   CuteCar.obj
 0001:00045884       $L223225                   00446884 f   CuteCar.obj
 0001:0004588f       $L223226                   0044688f f   CuteCar.obj
 0001:0004589a       $L223227                   0044689a f   CuteCar.obj
 0001:000458a5       $L223228                   004468a5 f   CuteCar.obj
 0001:000458b0       $L223229                   004468b0 f   CuteCar.obj
 0001:000458bc       $L223230                   004468bc f   CuteCar.obj
 0001:000458c8       $L223231                   004468c8 f   CuteCar.obj
 0001:000458d4       $L223232                   004468d4 f   CuteCar.obj
 0001:000458e0       __ehhandler$?frameStarted@CuteCarFrameListener@@UAE_NABUFrameEvent@Ogre@@@Z 004468e0 f   CuteCar.obj
 0001:000458f0       $L223262                   004468f0 f   CuteCar.obj
 0001:000458f8       $L223263                   004468f8 f   CuteCar.obj
 0001:00045917       __ehhandler$?toOgre@NxOgreConvertor@@SA?AUAllVehicleInfoOgre@@ABUAllVehicleInfoNx@@@Z 00446917 f   CuteCar.obj
 0001:00045930       $L223286                   00446930 f   CuteCar.obj
 0001:0004593c       $L223287                   0044693c f   CuteCar.obj
 0001:00045948       $L223288                   00446948 f   CuteCar.obj
 0001:00045954       $L223289                   00446954 f   CuteCar.obj
 0001:00045960       $L223290                   00446960 f   CuteCar.obj
 0001:0004596b       $L223291                   0044696b f   CuteCar.obj
 0001:00045977       __ehhandler$?GameOver@CuteCarFrameListener@@QAEXXZ 00446977 f   CuteCar.obj
 0001:00045990       $L223314                   00446990 f   CuteCar.obj
 0001:0004599c       $L223316                   0044699c f   CuteCar.obj
 0001:000459a8       $L223318                   004469a8 f   CuteCar.obj
 0001:000459b4       __ehhandler$?setupGameOverEvent@CuteCarFrameListener@@QAEXXZ 004469b4 f   CuteCar.obj
 0001:000459c0       $L223339                   004469c0 f   CuteCar.obj
 0001:000459c8       __ehhandler$?keyPressed@CuteCarFrameListener@@UAEXPAVKeyEvent@Ogre@@@Z 004469c8 f   CuteCar.obj
 0001:000459e0       $L223358                   004469e0 f   CuteCar.obj
 0001:000459ec       $L223360                   004469ec f   CuteCar.obj
 0001:000459f8       __ehhandler$?setupCheckHandler@CuteCarFrameListener@@QAEXXZ 004469f8 f   CuteCar.obj
 0001:00045a10       $L223395                   00446a10 f   CuteCar.obj
 0001:00045a18       $L223398                   00446a18 f   CuteCar.obj
 0001:00045a40       $L223401                   00446a40 f   CuteCar.obj
 0001:00045a68       $L223402                   00446a68 f   CuteCar.obj
 0001:00045a77       $L223403                   00446a77 f   CuteCar.obj
 0001:00045a86       __ehhandler$??1CuteCarFrameListener@@UAE@XZ 00446a86 f   CuteCar.obj
 0001:00045a90       __ehhandler$?_Copy@?$basic_string@DU?$char_traits@D@std@@V?$allocator@D@2@@std@@IAEXII@Z 00446a90 f   CuteCar.obj
 0001:00045aa0       $L223548                   00446aa0 f   CuteCar.obj
 0001:00045aa8       $L223549                   00446aa8 f   CuteCar.obj
 0001:00045ac1       __ehhandler$??$?HDU?$char_traits@D@std@@V?$allocator@D@1@@std@@YA?AV?$basic_string@DU?$char_traits@D@std@@V?$allocator@D@2@@0@PBDABV10@@Z 00446ac1 f   CuteCar.obj
 0001:00045ad0       $L223563                   00446ad0 f   CuteCar.obj
 0001:00045ad8       $L223564                   00446ad8 f   CuteCar.obj
 0001:00045af1       __ehhandler$??$?HDU?$char_traits@D@std@@V?$allocator@D@1@@std@@YA?AV?$basic_string@DU?$char_traits@D@std@@V?$allocator@D@2@@0@ABV10@PBD@Z 00446af1 f   CuteCar.obj
 0001:00045b00       $L223578                   00446b00 f   CuteCar.obj
 0001:00045b08       $L223579                   00446b08 f   CuteCar.obj
 0001:00045b21       __ehhandler$??$?HDU?$char_traits@D@std@@V?$allocator@D@1@@std@@YA?AV?$basic_string@DU?$char_traits@D@std@@V?$allocator@D@2@@0@ABV10@0@Z 00446b21 f   CuteCar.obj
 0001:00045b30       $L223593                   00446b30 f   CuteCar.obj
 0001:00045b3b       __ehhandler$??$?0VCuteCarFrameListener@@@?$SubscriberTemplate@_NABVEventArgs@CEGUI@@@CEGUI@@QAE@P8CuteCarFrameListener@@AE_NABVEventArgs@1@@ZPAV2@@Z 00446b3b f   CuteCar.obj
 0001:00045b50       $L142257                   00446b50 f   NxAllVehicle.obj
 0001:00045b5b       $L142258                   00446b5b f   NxAllVehicle.obj
 0001:00045b66       __ehhandler$??0NxAllVehicle@@IAE@XZ 00446b66 f   NxAllVehicle.obj
 0001:00045b70       $L142269                   00446b70 f   NxAllVehicle.obj
 0001:00045b7b       __ehhandler$??1NxAllVehicle@@MAE@XZ 00446b7b f   NxAllVehicle.obj
 0001:00045b85       $L142282                   00446b85 f   NxAllVehicle.obj
 0001:00045b90       __ehhandler$?getSingleton@NxAllVehicle@@SAPAV1@XZ 00446b90 f   NxAllVehicle.obj
 0001:00045b9a       $L142297                   00446b9a f   NxAllVehicle.obj
 0001:00045ba2       $L142298                   00446ba2 f   NxAllVehicle.obj
 0001:00045bad       $L142299                   00446bad f   NxAllVehicle.obj
 0001:00045bc3       $L142300                   00446bc3 f   NxAllVehicle.obj
 0001:00045bd9       $L142301                   00446bd9 f   NxAllVehicle.obj
 0001:00045be4       $L142302                   00446be4 f   NxAllVehicle.obj
 0001:00045bef       $L142303                   00446bef f   NxAllVehicle.obj
 0001:00045bfd       $L142304                   00446bfd f   NxAllVehicle.obj
 0001:00045c08       $L142305                   00446c08 f   NxAllVehicle.obj
 0001:00045c13       $L142306                   00446c13 f   NxAllVehicle.obj
 0001:00045c21       $L142307                   00446c21 f   NxAllVehicle.obj
 0001:00045c29       $L142308                   00446c29 f   NxAllVehicle.obj
 0001:00045c34       $L142309                   00446c34 f   NxAllVehicle.obj
 0001:00045c3f       __ehhandler$?addVehicle@NxAllVehicle@@QAEPAVNxVehicle@@ABVNxVec3@@VVehicleInfo@@V?$basic_string@DU?$char_traits@D@std@@V?$allocator@D@2@@std@@PAVNxScene@@PAVNxPhysicsSDK@@@Z 00446c3f f   NxAllVehicle.obj
 0001:00045c49       $L142486                   00446c49 f   NxAllVehicle.obj
 0001:00045c51       __ehhandler$?setCurrentUser@NxAllVehicle@@QAEHABV?$basic_string@DU?$char_traits@D@std@@V?$allocator@D@2@@std@@@Z 00446c51 f   NxAllVehicle.obj
 0001:00045c5b       $L142520                   00446c5b f   NxAllVehicle.obj
 0001:00045c66       $L142521                   00446c66 f   NxAllVehicle.obj
 0001:00045c71       __ehhandler$?getVehicleInfo@NxAllVehicle@@QAEPAUAllVehicleInfoNx@@XZ 00446c71 f   NxAllVehicle.obj
 0001:00045c80       $L142375                   00446c80 f   NxAllVehicle.obj
 0001:00045c88       $L142376                   00446c88 f   NxAllVehicle.obj
 0001:00045c93       __ehhandler$??0NxVehicleDesc@@QAE@XZ 00446c93 f   NxAllVehicle.obj
 0001:00045ca0       $L142385                   00446ca0 f   NxAllVehicle.obj
 0001:00045ca8       __ehhandler$??0NxBoxShapeDesc@@QAE@XZ 00446ca8 f   NxAllVehicle.obj
 0001:00045cc0       $L142393                   00446cc0 f   NxAllVehicle.obj
 0001:00045ccb       $L142394                   00446ccb f   NxAllVehicle.obj
 0001:00045cd6       __ehhandler$??0NxShapeDesc@@IAE@W4NxShapeType@@@Z 00446cd6 f   NxAllVehicle.obj
 0001:00045ce0       $L142405                   00446ce0 f   NxAllVehicle.obj
 0001:00045ce8       __ehhandler$??0NxMat34@@QAE@_N@Z 00446ce8 f   NxAllVehicle.obj
 0001:00045d00       $L142419                   00446d00 f   NxAllVehicle.obj
 0001:00045d0b       __ehhandler$??1NxShapeDesc@@UAE@XZ 00446d0b f   NxAllVehicle.obj
 0001:00045d20       $L142450                   00446d20 f   NxAllVehicle.obj
 0001:00045d28       __ehhandler$??0NxConvexShapeDesc@@QAE@XZ 00446d28 f   NxAllVehicle.obj
 0001:00045d40       $L142465                   00446d40 f   NxAllVehicle.obj
 0001:00045d48       __ehhandler$??1NxVehicleDesc@@QAE@XZ 00446d48 f   NxAllVehicle.obj
 0001:00045d60       $L142694                   00446d60 f   NxAllVehicle.obj
 0001:00045d68       __ehhandler$?erase@?$_Tree@V?$_Tmap_traits@MMU?$less@M@std@@V?$allocator@U?$pair@$$CBMM@std@@@2@$0A@@std@@@std@@QAE?AViterator@12@V312@@Z 00446d68 f   NxAllVehicle.obj
 0001:00045d80       $L142704                   00446d80 f   NxAllVehicle.obj
 0001:00045d88       __ehhandler$??0logic_error@std@@QAE@ABV?$basic_string@DU?$char_traits@D@std@@V?$allocator@D@2@@1@@Z 00446d88 f   NxAllVehicle.obj
 0001:00045da0       $L142715                   00446da0 f   NxAllVehicle.obj
 0001:00045da8       __ehhandler$??1logic_error@std@@UAE@XZ 00446da8 f   NxAllVehicle.obj
 0001:00045dc0       $L142733                   00446dc0 f   NxAllVehicle.obj
 0001:00045dc8       __ehhandler$??0logic_error@std@@QAE@ABV01@@Z 00446dc8 f   NxAllVehicle.obj
 0001:00045de0       $L142746                   00446de0 f   NxAllVehicle.obj
 0001:00045de8       __ehhandler$?_Insert@?$_Tree@V?$_Tmap_traits@MMU?$less@M@std@@V?$allocator@U?$pair@$$CBMM@std@@@2@$0A@@std@@@std@@IAE?AViterator@12@_NPAU_Node@?$_Tree_nod@V?$_Tmap_traits@MMU?$less@M@std@@V?$allocator@U?$pair@$$CBMM@std@@@2@$0A@@std@@@2@ABU?$pair@$$CBMM@2@@Z 00446de8 f   NxAllVehicle.obj
 0001:00045e00       __ehhandler$?_Buynode@?$_Tree@V?$_Tmap_traits@MMU?$less@M@std@@V?$allocator@U?$pair@$$CBMM@std@@@2@$0A@@std@@@std@@IAEPAU_Node@?$_Tree_nod@V?$_Tmap_traits@MMU?$less@M@std@@V?$allocator@U?$pair@$$CBMM@std@@@2@$0A@@std@@@2@XZ 00446e00 f   NxAllVehicle.obj
 0001:00045e10       $L142851                   00446e10 f   NxAllVehicle.obj
 0001:00045e21       __ehhandler$?_Buynode@?$_Tree@V?$_Tmap_traits@MMU?$less@M@std@@V?$allocator@U?$pair@$$CBMM@std@@@2@$0A@@std@@@std@@IAEPAU_Node@?$_Tree_nod@V?$_Tmap_traits@MMU?$less@M@std@@V?$allocator@U?$pair@$$CBMM@std@@@2@$0A@@std@@@2@PAU342@00ABU?$pair@$$CBMM@2@D@Z 00446e21 f   NxAllVehicle.obj
 0001:00045e30       $L142214                   00446e30 f   NxTerrain.obj
 0001:00045e3e       $L142215                   00446e3e f   NxTerrain.obj
 0001:00045e49       $L142216                   00446e49 f   NxTerrain.obj
 0001:00045e51       $L142217                   00446e51 f   NxTerrain.obj
 0001:00045e59       $L142218                   00446e59 f   NxTerrain.obj
 0001:00045e64       __ehhandler$?createNxTerrain@NxTerrain@@QAEXXZ 00446e64 f   NxTerrain.obj
 0001:00045e6e       $L142335                   00446e6e f   NxTerrain.obj
 0001:00045e76       __ehhandler$?addUser@NxTerrain@@QAEXABVNxVec3@@VVehicleInfo@@V?$basic_string@DU?$char_traits@D@std@@V?$allocator@D@2@@std@@@Z 00446e76 f   NxTerrain.obj
 0001:00045e80       $L142229                   00446e80 f   NxTerrain.obj
 0001:00045e88       $L142230                   00446e88 f   NxTerrain.obj
 0001:00045e93       __ehhandler$??0NxActorDesc@@QAE@XZ 00446e93 f   NxTerrain.obj
 0001:00045ea0       $L142265                   00446ea0 f   NxTerrain.obj
 0001:00045ea8       __ehhandler$??0NxTriangleMeshShapeDesc@@QAE@XZ 00446ea8 f   NxTerrain.obj
 0001:00045ec0       $L142313                   00446ec0 f   NxTerrain.obj
 0001:00045ec8       __ehhandler$??1NxActorDesc@@QAE@XZ 00446ec8 f   NxTerrain.obj
 0001:00045ee0       $L24057                    00446ee0 f   NxTerrainItem.obj
 0001:00045eee       $L24058                    00446eee f   NxTerrainItem.obj
 0001:00045ef9       $L24059                    00446ef9 f   NxTerrainItem.obj
 0001:00045f04       __ehhandler$?createTerrainItem@NxTerrainItem@@SAPAV1@W4ItemType@@ABVNxVec3@@M@Z 00446f04 f   NxTerrainItem.obj
 0001:00045f0e       $L24187                    00446f0e f   NxTerrainItem.obj
 0001:00045f1c       $L24188                    00446f1c f   NxTerrainItem.obj
 0001:00045f27       $L24189                    00446f27 f   NxTerrainItem.obj
 0001:00045f32       $L24190                    00446f32 f   NxTerrainItem.obj
 0001:00045f40       $L24191                    00446f40 f   NxTerrainItem.obj
 0001:00045f4b       $L24192                    00446f4b f   NxTerrainItem.obj
 0001:00045f56       __ehhandler$?addScratchLine@NxTerrainItem@@SAXXZ 00446f56 f   NxTerrainItem.obj
 0001:00045f60       $L24239                    00446f60 f   NxTerrainItem.obj
 0001:00045f6b       $L24240                    00446f6b f   NxTerrainItem.obj
 0001:00045f73       __ehhandler$?onTrigger@ItemTrigger@NxTerrainItem@@UAEXAAVNxShape@@0W4NxShapeFlag@@@Z 00446f73 f   NxTerrainItem.obj
 0001:00045f80       $L25352                    00446f80 f   NxVehicle.obj
 0001:00045f8b       $L25353                    00446f8b f   NxVehicle.obj
 0001:00045f96       __ehhandler$??0NxVehicle@@AAE@XZ 00446f96 f   NxVehicle.obj
 0001:00045fa0       $L25370                    00446fa0 f   NxVehicle.obj
 0001:00045fab       $L25371                    00446fab f   NxVehicle.obj
 0001:00045fb6       __ehhandler$??1NxVehicle@@QAE@XZ 00446fb6 f   NxVehicle.obj
 0001:00045fc0       $L25402                    00446fc0 f   NxVehicle.obj
 0001:00045fce       $L25403                    00446fce f   NxVehicle.obj
 0001:00045fd9       $L25404                    00446fd9 f   NxVehicle.obj
 0001:00045fe4       __ehhandler$?_createVehicle@NxVehicle@@CAPAV1@PAVNxScene@@PAVNxVehicleDesc@@@Z 00446fe4 f   NxVehicle.obj
 0001:00045fee       $L25510                    00446fee f   NxVehicle.obj
 0001:00045ff6       __ehhandler$?createVehicle@NxVehicle@@SAPAV1@PAVNxScene@@PAVNxVehicleDesc@@V?$basic_string@DU?$char_traits@D@std@@V?$allocator@D@2@@std@@@Z 00446ff6 f   NxVehicle.obj
 0001:00046000       $L25523                    00447000 f   NxVehicle.obj
 0001:0004600e       $L25524                    0044700e f   NxVehicle.obj
 0001:00046019       $L25525                    00447019 f   NxVehicle.obj
 0001:00046038       __ehhandler$?getInfoForOgre@NxVehicle@@QAE?AUAllVehicleInfoNx@@XZ 00447038 f   NxVehicle.obj
 0001:00046042       $L25588                    00447042 f   NxVehicle.obj
 0001:0004604d       __ehhandler$?updateVehicle@NxVehicle@@QAEXM@Z 0044704d f   NxVehicle.obj
 0001:00046057       $L25624                    00447057 f   NxVehicle.obj
 0001:0004605f       __ehhandler$?_computeMostTouchedActor@NxVehicle@@AAEXXZ 0044705f f   NxVehicle.obj
 0001:00046070       $L25418                    00447070 f   NxVehicle.obj
 0001:00046078       __ehhandler$??0NxBodyDesc@@QAE@XZ 00447078 f   NxVehicle.obj
 0001:00046090       $L25464                    00447090 f   NxVehicle.obj
 0001:0004609b       __ehhandler$?createVehicleGears@NxVehicleGears@@SAPAV1@ABVNxVehicleGearDesc@@@Z 0044709b f   NxVehicle.obj
 0001:000460b0       $L25479                    004470b0 f   NxVehicle.obj
 0001:000460bb       __ehhandler$?createMotor@NxVehicleMotor@@SAPAV1@ABVNxVehicleMotorDesc@@@Z 004470bb f   NxVehicle.obj
 0001:000460d0       __ehhandler$?_Copy@?$_Tree@V?$_Tmap_traits@MMU?$less@M@std@@V?$allocator@U?$pair@$$CBMM@std@@@2@$0A@@std@@@std@@IAEPAU_Node@?$_Tree_nod@V?$_Tmap_traits@MMU?$less@M@std@@V?$allocator@U?$pair@$$CBMM@std@@@2@$0A@@std@@@2@PAU342@0@Z 004470d0 f   NxVehicle.obj
 0001:000460e0       $L25975                    004470e0 f   NxVehicle.obj
 0001:000460e8       __ehhandler$?_Insert@?$_Tree@V?$_Tmap_traits@PAVNxActor@@IU?$less@PAVNxActor@@@std@@V?$allocator@U?$pair@QAVNxActor@@I@std@@@3@$0A@@std@@@std@@IAE?AViterator@12@_NPAU_Node@?$_Tree_nod@V?$_Tmap_traits@PAVNxActor@@IU?$less@PAVNxActor@@@std@@V?$allocator@U?$pair@QAVNxActor@@I@std@@@3@$0A@@std@@@2@ABU?$pair@QAVNxActor@@I@2@@Z 004470e8 f   NxVehicle.obj
 0001:00046100       $L26081                    00447100 f   NxVehicle.obj
 0001:00046108       __ehhandler$?erase@?$_Tree@V?$_Tmap_traits@PAVNxActor@@IU?$less@PAVNxActor@@@std@@V?$allocator@U?$pair@QAVNxActor@@I@std@@@3@$0A@@std@@@std@@QAE?AViterator@12@V312@@Z 00447108 f   NxVehicle.obj
 0001:00046120       __ehhandler$?_Buynode@?$_Tree@V?$_Tmap_traits@PAVNxActor@@IU?$less@PAVNxActor@@@std@@V?$allocator@U?$pair@QAVNxActor@@I@std@@@3@$0A@@std@@@std@@IAEPAU_Node@?$_Tree_nod@V?$_Tmap_traits@PAVNxActor@@IU?$less@PAVNxActor@@@std@@V?$allocator@U?$pair@QAVNxActor@@I@std@@@3@$0A@@std@@@2@XZ 00447120 f   NxVehicle.obj
 0001:00046130       $L26115                    00447130 f   NxVehicle.obj
 0001:00046141       __ehhandler$?_Buynode@?$_Tree@V?$_Tmap_traits@PAVNxActor@@IU?$less@PAVNxActor@@@std@@V?$allocator@U?$pair@QAVNxActor@@I@std@@@3@$0A@@std@@@std@@IAEPAU_Node@?$_Tree_nod@V?$_Tmap_traits@PAVNxActor@@IU?$less@PAVNxActor@@@std@@V?$allocator@U?$pair@QAVNxActor@@I@std@@@3@$0A@@std@@@2@PAU342@00ABU?$pair@QAVNxActor@@I@2@D@Z 00447141 f   NxVehicle.obj
 0001:00046150       $L11765                    00447150 f   NxWheel.obj
 0001:0004615b       __ehhandler$?createWheel@NxWheel@@SAPAV1@PAVNxActor@@PAVNxWheelDesc@@@Z 0044715b f   NxWheel.obj
 0001:00046165       $L11776                    00447165 f   NxWheel.obj
 0001:00046170       __ehhandler$??0NxWheel@@AAE@PAVNxActor@@PAVNxWheelDesc@@@Z 00447170 f   NxWheel.obj
 0001:00046180       $L11808                    00447180 f   NxWheel.obj
 0001:00046188       __ehhandler$??0NxWheelShapeDesc@@QAE@XZ 00447188 f   NxWheel.obj
 0001:000461a0       $L131992                   004471a0 f   OgreAllVehicle.obj
 0001:000461ab       __ehhandler$??0OgreAllVehicle@@IAE@XZ 004471ab f   OgreAllVehicle.obj
 0001:000461b5       $L132011                   004471b5 f   OgreAllVehicle.obj
 0001:000461c0       __ehhandler$?getSingleton@OgreAllVehicle@@SAPAV1@XZ 004471c0 f   OgreAllVehicle.obj
 0001:000461ca       $L132020                   004471ca f   OgreAllVehicle.obj
 0001:000461d2       __ehhandler$?addVehicle@OgreAllVehicle@@QAEPAVOgreVehicle@@PAVSceneNode@Ogre@@V?$basic_string@DU?$char_traits@D@std@@V?$allocator@D@2@@std@@VVector3@4@@Z 004471d2 f   OgreAllVehicle.obj
 0001:000461dc       $L132028                   004471dc f   OgreAllVehicle.obj
 0001:000461e4       __ehhandler$?updateAllVehicle@OgreAllVehicle@@QAEXPAUAllVehicleInfoOgre@@@Z 004471e4 f   OgreAllVehicle.obj
 0001:000461ee       $L132036                   004471ee f   OgreAllVehicle.obj
 0001:000461f6       __ehhandler$?getUserVehicle@OgreAllVehicle@@QAEPAVOgreVehicle@@ABV?$basic_string@DU?$char_traits@D@std@@V?$allocator@D@2@@std@@@Z 004471f6 f   OgreAllVehicle.obj
 0001:00046200       $L132043                   00447200 f   OgreAllVehicle.obj
 0001:0004620b       $L132044                   0044720b f   OgreAllVehicle.obj
 0001:00046216       __ehhandler$??0OgreVehicle@@IAE@XZ 00447216 f   OgreAllVehicle.obj
 0001:00046220       $L132051                   00447220 f   OgreAllVehicle.obj
 0001:0004622b       __ehhandler$??1OgreVehicle@@UAE@XZ 0044722b f   OgreAllVehicle.obj
 0001:00046235       $L132075                   00447235 f   OgreAllVehicle.obj
 0001:0004623d       $L132076                   0044723d f   OgreAllVehicle.obj
 0001:00046248       $L132077                   00447248 f   OgreAllVehicle.obj
 0001:00046250       $L132078                   00447250 f   OgreAllVehicle.obj
 0001:00046258       $L132079                   00447258 f   OgreAllVehicle.obj
 0001:00046260       $L132080                   00447260 f   OgreAllVehicle.obj
 0001:0004626b       $L132081                   0044726b f   OgreAllVehicle.obj
 0001:00046276       __ehhandler$?createOgreVehicle@OgreVehicle@@SAPAV1@PAVSceneNode@Ogre@@V?$basic_string@DU?$char_traits@D@std@@V?$allocator@D@2@@std@@VVector3@3@@Z 00447276 f   OgreAllVehicle.obj
 0001:00046280       $L132095                   00447280 f   OgreAllVehicle.obj
 0001:00046288       $L132096                   00447288 f   OgreAllVehicle.obj
 0001:00046290       __ehhandler$?updateVehicle@OgreVehicle@@QAEXABUAllVehicleInfoOgre@@@Z 00447290 f   OgreAllVehicle.obj
 0001:0004629a       $L132108                   0044729a f   OgreAllVehicle.obj
 0001:000462a2       __ehhandler$?attachCamera@OgreVehicle@@QAEXPAVCamera@Ogre@@@Z 004472a2 f   OgreAllVehicle.obj
 0001:000462ac       $L132116                   004472ac f   OgreAllVehicle.obj
 0001:000462b4       $L132117                   004472b4 f   OgreAllVehicle.obj
 0001:000462bc       __ehhandler$?setCamera@OgreVehicle@@QAEXABVVector3@Ogre@@ABVQuaternion@3@@Z 004472bc f   OgreAllVehicle.obj
 0001:000462c6       $L132124                   004472c6 f   OgreAllVehicle.obj
 0001:000462ce       __ehhandler$?removeCamera@OgreVehicle@@QAEXXZ 004472ce f   OgreAllVehicle.obj
 0001:000462d8       $L132150                   004472d8 f   OgreAllVehicle.obj
 0001:000462e3       $L132151                   004472e3 f   OgreAllVehicle.obj
 0001:000462eb       $L132152                   004472eb f   OgreAllVehicle.obj
 0001:000462f3       $L132153                   004472f3 f   OgreAllVehicle.obj
 0001:000462fb       $L132154                   004472fb f   OgreAllVehicle.obj
 0001:00046306       $L132155                   00447306 f   OgreAllVehicle.obj
 0001:00046311       __ehhandler$?createOgreWheel@OgreWheel@@SAPAV1@PAVSceneNode@Ogre@@VVector3@3@@Z 00447311 f   OgreAllVehicle.obj
 0001:0004631b       $L132180                   0044731b f   OgreAllVehicle.obj
 0001:00046323       $L132181                   00447323 f   OgreAllVehicle.obj
 0001:0004632e       $L132182                   0044732e f   OgreAllVehicle.obj
 0001:00046336       $L132183                   00447336 f   OgreAllVehicle.obj
 0001:0004633e       $L132184                   0044733e f   OgreAllVehicle.obj
 0001:00046349       __ehhandler$?createOgreTerrainItem@OgreTerrainItem@@SAPAV1@PAVSceneNode@Ogre@@ABVVector3@3@W4ItemType@@H@Z 00447349 f   OgreAllVehicle.obj
 0001:00046360       __ehhandler$?_Insert_n@?$vector@W4ItemType@@V?$allocator@W4ItemType@@@std@@@std@@IAEXViterator@12@IABW4ItemType@@@Z 00447360 f   OgreAllVehicle.obj
 0001:00046370       $L132312                   00447370 f   OgreAllVehicle.obj
 0001:00046378       __ehhandler$?_Xlen@?$vector@W4ItemType@@V?$allocator@W4ItemType@@@std@@@std@@IBEXXZ 00447378 f   OgreAllVehicle.obj
 0001:00046390       __ehhandler$?_Insert_n@?$vector@PAVOgreVehicle@@V?$allocator@PAVOgreVehicle@@@std@@@std@@IAEXViterator@12@IABQAVOgreVehicle@@@Z 00447390 f   OgreAllVehicle.obj
 0001:000463a0       $L132380                   004473a0 f   OgreAllVehicle.obj
 0001:000463a8       __ehhandler$?_Xlen@?$vector@PAVOgreVehicle@@V?$allocator@PAVOgreVehicle@@@std@@@std@@IBEXXZ 004473a8 f   OgreAllVehicle.obj
 0001:000463c0       __ehhandler$??$_Uninit_fill_n@PAW4ItemType@@IW41@V?$allocator@W4ItemType@@@std@@@std@@YAXPAW4ItemType@@IABW41@AAV?$allocator@W4ItemType@@@0@U_Nonscalar_ptr_iterator_tag@0@@Z 004473c0 f   OgreAllVehicle.obj
 0001:000463d0       __ehhandler$??$_Uninit_copy@PAW4ItemType@@PAW41@V?$allocator@W4ItemType@@@std@@@std@@YAPAW4ItemType@@PAW41@00AAV?$allocator@W4ItemType@@@0@U_Nonscalar_ptr_iterator_tag@0@@Z 004473d0 f   OgreAllVehicle.obj
 0001:000463e0       $L131581                   004473e0 f   OgreTerrain.obj
 0001:000463eb       __ehhandler$??0OgreTerrain@@QAE@PAVSceneManager@Ogre@@@Z 004473eb f   OgreTerrain.obj
 0001:000463f5       $L131598                   004473f5 f   OgreTerrain.obj
 0001:000463fd       $L131599                   004473fd f   OgreTerrain.obj
 0001:00046405       $L131600                   00447405 f   OgreTerrain.obj
 0001:0004640d       __ehhandler$?createOgreTerrain@OgreTerrain@@QAEXXZ 0044740d f   OgreTerrain.obj
 0001:00046417       $L131609                   00447417 f   OgreTerrain.obj
 0001:0004641f       __ehhandler$?addUser@OgreTerrain@@QAEXV?$basic_string@DU?$char_traits@D@std@@V?$allocator@D@2@@std@@VVector3@Ogre@@@Z 0044741f f   OgreTerrain.obj
 0001:00046429       $L131617                   00447429 f   OgreTerrain.obj
 0001:00046431       __ehhandler$?updateAllOgre@OgreTerrain@@QAEXPAUAllVehicleInfoOgre@@@Z 00447431 f   OgreTerrain.obj
 0001:0004643b       $L131634                   0044743b f   OgreTerrain.obj
 0001:00046443       $L131635                   00447443 f   OgreTerrain.obj
 0001:0004644b       $L131636                   0044744b f   OgreTerrain.obj
 0001:00046453       $L131637                   00447453 f   OgreTerrain.obj
 0001:0004645e       $L131638                   0044745e f   OgreTerrain.obj
 0001:00046469       $L131639                   00447469 f   OgreTerrain.obj
 0001:00046474       $L131640                   00447474 f   OgreTerrain.obj
 0001:0004647f       $L131641                   0044747f f   OgreTerrain.obj
 0001:0004648a       $L131642                   0044748a f   OgreTerrain.obj
 0001:00046495       __ehhandler$?userCamera@OgreTerrain@@QAEHPAVCamera@Ogre@@ABV?$basic_string@DU?$char_traits@D@std@@V?$allocator@D@2@@std@@@Z 00447495 f   OgreTerrain.obj
 0001:0004649f       $L131669                   0044749f f   OgreTerrain.obj
 0001:000464a7       $L131670                   004474a7 f   OgreTerrain.obj
 0001:000464af       __ehhandler$?addScratchLine@OgreTerrain@@QAEXXZ 004474af f   OgreTerrain.obj
 0001:000464c0       __ehhandler$?_Insert_n@?$vector@PAVOgreTerrainItem@@V?$allocator@PAVOgreTerrainItem@@@std@@@std@@IAEXViterator@12@IABQAVOgreTerrainItem@@@Z 004474c0 f   OgreTerrain.obj
 0001:000464d0       $L131764                   004474d0 f   OgreTerrain.obj
 0001:000464d8       __ehhandler$?_Xlen@?$vector@PAVOgreTerrainItem@@V?$allocator@PAVOgreTerrainItem@@@std@@@std@@IBEXXZ 004474d8 f   OgreTerrain.obj
 0001:000464f0       $L11823                    004474f0 f   SampleCommonCodeDEBUG:Stream.obj
 0001:000464f8       __ehhandler$??1MemoryWriteBuffer@@UAE@XZ 004474f8 f   SampleCommonCodeDEBUG:Stream.obj
 0001:00046510       $L12204                    00447510 f   libcpmtd:string.obj
 0001:00046518       __ehhandler$?_Xlen@_String_base@std@@QBEXXZ 00447518 f   libcpmtd:string.obj
 0001:00046530       $L12264                    00447530 f   libcpmtd:string.obj
 0001:00046538       __ehhandler$?_Xran@_String_base@std@@QBEXXZ 00447538 f   libcpmtd:string.obj
 0001:00046550       _$E6                       00447550 f   CuteCar.obj
 0001:00046570       _$E8                       00447570 f   CuteCar.obj
 0001:00046590       _$E10                      00447590 f   CuteCar.obj
 0001:000465b0       _$E2                       004475b0 f   NxAllVehicle.obj
 0001:000465d0       _$E4                       004475d0 f   NxAllVehicle.obj
 0001:000465f0       _$E6                       004475f0 f   NxAllVehicle.obj
 0001:00046610       _$E1                       00447610 f   NxTerrain.obj
 0001:00046620       _$E3                       00447620 f   NxTerrain.obj
 0001:00046640       _$E5                       00447640 f   NxTerrain.obj
 0001:00046660       _$E7                       00447660 f   NxTerrain.obj
 0001:00046680       _$E1                       00447680 f   NxTerrainItem.obj
 0001:000466a0       _$E4                       004476a0 f   NxTerrainItem.obj
 0001:000466e0       _$E1                       004476e0 f   OgreAllVehicle.obj
 0001:00046700       _$E3                       00447700 f   OgreAllVehicle.obj
 0001:00046720       _$E5                       00447720 f   OgreAllVehicle.obj
 0001:00046740       _$E1                       00447740 f   OgreTerrain.obj
 0001:00046760       _$E3                       00447760 f   OgreTerrain.obj
 0001:00046780       _$E5                       00447780 f   OgreTerrain.obj
 0001:000467f0       _$E2                       004477f0 f   NxTerrainItem.obj

Line numbers for .\Debug\OgreTerrain.obj(d:\program files\microsoft visual studio .net 2003\vc7\include\ios) segment .text

   119 0001:00046740   119 0001:00046760   119 0001:00046780

Line numbers for .\Debug\OgreTerrain.obj(d:\program files\microsoft visual studio .net 2003\vc7\include\memory) segment .text

   255 0001:000206e0   257 0001:000206e4   258 0001:00020713   236 0001:00020840
   237 0001:00020843   238 0001:00020857   126 0001:00020860   128 0001:00020864
   129 0001:00020893   105 0001:00020910   106 0001:00020914   108 0001:00020920
   109 0001:0002093d

Line numbers for .\Debug\OgreTerrain.obj(d:\program files\microsoft visual studio .net 2003\vc7\include\xutility) segment .text

  1039 0001:00020660  1040 0001:00020664  1041 0001:0002068f  1134 0001:00020750
  1135 0001:00020753  1136 0001:00020766  1137 0001:00020772  1067 0001:00020780
  1069 0001:00020784  1070 0001:000207af   218 0001:000207e0   220 0001:000207e4
   221 0001:000207e7  1030 0001:000207f0  1031 0001:000207f4  1033 0001:00020800
  1034 0001:0002081d  1058 0001:000208a0  1059 0001:000208a4  1061 0001:000208b0
  1062 0001:000208cf  1159 0001:000208e0  1160 0001:000208e3  1161 0001:000208fd
  1162 0001:00020909

Line numbers for .\Debug\OgreTerrain.obj(d:\program files\microsoft visual studio .net 2003\vc7\include\xmemory) segment .text

   111 0001:00020100   113 0001:00020107   115 0001:00020520   117 0001:00020527
   131 0001:00020530   132 0001:00020537   133 0001:00020543   136 0001:00020550
   137 0001:00020557   138 0001:00020565   156 0001:000205f0   157 0001:000205f9
   158 0001:00020600   159 0001:00020618   216 0001:000206a0   217 0001:000206a4
   218 0001:000206cf    33 0001:000207c0    34 0001:000207c3    35 0001:000207d2
   233 0001:00020830   234 0001:00020833

Line numbers for .\Debug\OgreTerrain.obj(d:\program files\microsoft visual studio .net 2003\vc7\include\vector) segment .text

   299 0001:0001fc90   300 0001:0001fca9   301 0001:0001fcb3   387 0001:0001fcc0
   388 0001:0001fcc7   389 0001:0001fccf   462 0001:0001fce0   463 0001:0001fce7
   464 0001:0001fcf9   472 0001:0001fd00   473 0001:0001fd07   474 0001:0001fd19
   579 0001:0001fd20   580 0001:0001fd2a   581 0001:0001fd40   582 0001:0001fd5b
   583 0001:0001fd5d   584 0001:0001fd7c   723 0001:0001fd90   724 0001:0001fd97
   725 0001:0001fdb1   726 0001:0001fdca   727 0001:0001fdd9   728 0001:0001fde4
   743 0001:0001fdf0   744 0001:0001fdf7   745 0001:0001fdff   219 0001:0001fe10
   220 0001:0001fe17   221 0001:0001fe1f   235 0001:0001fe30   236 0001:0001fe39
   237 0001:0001fe41   238 0001:0001fe49   239 0001:0001fe54   159 0001:0001fe60
   160 0001:0001fe67   161 0001:0001fe7b   457 0001:0001fe90   458 0001:0001fe99
   459 0001:0001fec0   515 0001:0001fed0   516 0001:0001fed9   517 0001:0001ff00
   620 0001:0001ff10   621 0001:0001ff19   622 0001:0001ff4c   623 0001:0001ff5e
   624 0001:0001ff7c   770 0001:0001ff90   771 0001:0001ff97   772 0001:0001ffb5
   773 0001:0001ffbb   774 0001:0001ffbf   775 0001:0001ffcc   776 0001:0001ffd4
   778 0001:0001ffd6   779 0001:0001ffe8   780 0001:0001fff4   782 0001:00020006
   783 0001:00020008   786 0001:00020010   787 0001:00020017   788 0001:0002002b
   791 0001:00020040   792 0001:00020047   794 0001:00020050   795 0001:00020066
   797 0001:00020085   798 0001:000200a3   877 0001:000200b0   878 0001:000200b7
   879 0001:000200cf   880 0001:000200d8    21 0001:000200e0    22 0001:000200f3
   215 0001:00020110   216 0001:00020123   229 0001:00020130   230 0001:00020137
   231 0001:00020144   232 0001:00020147    79 0001:00020150    82 0001:00020157
    83 0001:0002015c   152 0001:00020160   155 0001:00020167   156 0001:00020176
   520 0001:00020180   521 0001:00020187   522 0001:0002018f   809 0001:000201a0
   810 0001:000201c5   811 0001:000201cd   813 0001:000201d8   815 0001:000201de
   816 0001:000201fc   817 0001:00020204   820 0001:0002021d   821 0001:0002024b
   822 0001:0002025b   823 0001:00020269   824 0001:00020278   826 0001:0002027e
   828 0001:00020285   829 0001:000202a5   830 0001:000202c2   832 0001:000202db
   833 0001:000202eb   834 0001:000202fb   835 0001:00020304   837 0001:0002030b
   838 0001:00020319   840 0001:00020322   841 0001:00020338   843 0001:00020357
   844 0001:00020366   845 0001:00020375   847 0001:0002037e   850 0001:00020398
   852 0001:000203b5   854 0001:000203bc   856 0001:000203e3   857 0001:00020402
   858 0001:0002040b   860 0001:00020412   862 0001:00020424   864 0001:00020443
   866 0001:00020445   868 0001:0002044e   870 0001:00020473   872 0001:0002048f
   874 0001:000204a9   883 0001:000204c0   884 0001:000204de   885 0001:0002050c
   261 0001:00020570   262 0001:00020579   263 0001:00020581   264 0001:00020597
   278 0001:000205a0   279 0001:000205a9   280 0001:000205bd    73 0001:000205d0
    75 0001:000205d7    76 0001:000205df   255 0001:00020620   256 0001:00020627
   257 0001:00020637   258 0001:0002063a   140 0001:00020640   143 0001:00020647
   144 0001:00020654   801 0001:00020720   804 0001:00020727   805 0001:0002073f

Line numbers for .\Debug\OgreTerrain.obj(e:\tony\codes\fantasy\cutecar\src\ogreterrain.cpp) segment .text

     4 0001:0001f170     5 0001:0001f1a9     6 0001:0001f1b2     7 0001:0001f1ec
     8 0001:0001f1f7    11 0001:0001f220    12 0001:0001f230    15 0001:0001f240
    16 0001:0001f25e    17 0001:0001f288    19 0001:0001f2ea    20 0001:0001f349
    21 0001:0001f380    22 0001:0001f392    23 0001:0001f3ac    26 0001:0001f3c0
    27 0001:0001f3e5    28 0001:0001f3ed    29 0001:0001f422    32 0001:0001f450
    33 0001:0001f46e    35 0001:0001f4a6    36 0001:0001f4ae    37 0001:0001f4ba
    40 0001:0001f4d0    41 0001:0001f4f4    42 0001:0001f52c    43 0001:0001f53f
    45 0001:0001f549    46 0001:0001f5d4    47 0001:0001f5dc    48 0001:0001f673
    49 0001:0001f67f    50 0001:0001f716    51 0001:0001f758    52 0001:0001f7ef
    55 0001:0001f7f6    56 0001:0001f7f8    59 0001:0001f810    60 0001:0001f819
    61 0001:0001f825    62 0001:0001f847    63 0001:0001f868    66 0001:0001f870
    67 0001:0001f879    68 0001:0001f888    70 0001:0001f88e    71 0001:0001f89a
    73 0001:0001f8d6    75 0001:0001f8dd    76 0001:0001f8df    79 0001:0001f8f0
    80 0001:0001f8f9    81 0001:0001f90c    82 0001:0001f918    85 0001:0001f920
    86 0001:0001f929    87 0001:0001f947    88 0001:0001f956    91 0001:0001f960
    92 0001:0001f969    94 0001:0001f9a7    96 0001:0001f9c1    97 0001:0001f9d4
    99 0001:0001f9d6   100 0001:0001f9d8   103 0001:0001f9e0   104 0001:0001f9e9
   106 0001:0001fa27   107 0001:0001fa4a   108 0001:0001fa4c   111 0001:0001fa60
   112 0001:0001fa69   113 0001:0001fa7c   114 0001:0001fa84   117 0001:0001fa90
   118 0001:0001fa99   119 0001:0001faac   120 0001:0001fab4   123 0001:0001fac0
   124 0001:0001fac9   125 0001:0001fadc   126 0001:0001fae4   129 0001:0001faf0
   130 0001:0001fb0e   131 0001:0001fb6d   132 0001:0001fba4   133 0001:0001fbb6
   134 0001:0001fbd0   135 0001:0001fbfa   136 0001:0001fc14   139 0001:0001fc30
   140 0001:0001fc39   141 0001:0001fc4c   142 0001:0001fc54

Line numbers for .\Debug\OgreAllVehicle.obj(d:\program files\microsoft visual studio .net 2003\vc7\include\ios) segment .text

   119 0001:000466e0   119 0001:00046700   119 0001:00046720

Line numbers for .\Debug\OgreAllVehicle.obj(d:\program files\microsoft visual studio .net 2003\vc7\include\xutility) segment .text

  1134 0001:0001ec90  1135 0001:0001ec93  1136 0001:0001eca6  1137 0001:0001ecb2
  1067 0001:0001ecc0  1069 0001:0001ecc4  1070 0001:0001ecef  1134 0001:0001ed90
  1135 0001:0001ed93  1136 0001:0001eda6  1137 0001:0001edb2  1067 0001:0001edc0
  1069 0001:0001edc4  1070 0001:0001edef   218 0001:0001eec0   220 0001:0001eec4
   221 0001:0001eec7  1048 0001:0001ef30  1049 0001:0001ef33  1050 0001:0001ef3b
  1051 0001:0001ef59  1052 0001:0001ef5c  1058 0001:0001efb0  1059 0001:0001efb4
  1061 0001:0001efc0  1062 0001:0001efdf  1159 0001:0001f010  1160 0001:0001f013
  1161 0001:0001f02d  1162 0001:0001f039

Line numbers for .\Debug\OgreAllVehicle.obj(d:\program files\microsoft visual studio .net 2003\vc7\include\memory) segment .text

   255 0001:0001ebe0   257 0001:0001ebe4   258 0001:0001ec13   255 0001:0001ec20
   257 0001:0001ec24   258 0001:0001ec53   207 0001:0001ee20   208 0001:0001ee40
   210 0001:0001ee46   211 0001:0001ee4d   212 0001:0001ee67   214 0001:0001ee7b
   215 0001:0001ee8e   216 0001:0001ee9c   217 0001:0001eea5   218 0001:0001eeac
   236 0001:0001eed0   237 0001:0001eed3   238 0001:0001eee7   126 0001:0001eef0
   128 0001:0001eef4   129 0001:0001ef23   126 0001:0001ef70   128 0001:0001ef74
   129 0001:0001efa3    77 0001:0001f040    78 0001:0001f060    80 0001:0001f066
    81 0001:0001f06d    82 0001:0001f089    84 0001:0001f09d    85 0001:0001f0b0
    86 0001:0001f0be    87 0001:0001f0c7    88 0001:0001f0ce    89 0001:0001f0d1
   105 0001:0001f0f0   106 0001:0001f0f4   108 0001:0001f100   109 0001:0001f11d

Line numbers for .\Debug\OgreAllVehicle.obj(d:\program files\microsoft visual studio .net 2003\vc7\include\xmemory) segment .text

   111 0001:0001dfb0   113 0001:0001dfb7   111 0001:0001e200   113 0001:0001e207
   115 0001:0001e600   117 0001:0001e607   131 0001:0001e610   132 0001:0001e617
   133 0001:0001e623   136 0001:0001e630   137 0001:0001e637   138 0001:0001e645
   115 0001:0001ea20   117 0001:0001ea27   131 0001:0001ea30   132 0001:0001ea37
   133 0001:0001ea43   136 0001:0001ea50   137 0001:0001ea57   138 0001:0001ea65
   156 0001:0001eb20   157 0001:0001eb29   158 0001:0001eb30   159 0001:0001eb48
   156 0001:0001eb50   157 0001:0001eb59   158 0001:0001eb60   159 0001:0001eb78
    33 0001:0001ed00    34 0001:0001ed03    35 0001:0001ed12   216 0001:0001ed20
   217 0001:0001ed24   218 0001:0001ed4f    33 0001:0001ee00    34 0001:0001ee03
    35 0001:0001ee12   233 0001:0001ef60   234 0001:0001ef63   146 0001:0001eff0
   147 0001:0001eff7   148 0001:0001f007    41 0001:0001f130    42 0001:0001f136
    43 0001:0001f166

Line numbers for .\Debug\OgreAllVehicle.obj(d:\program files\microsoft visual studio .net 2003\vc7\include\vector) segment .text

   299 0001:0001db70   300 0001:0001db89   301 0001:0001db93   387 0001:0001dba0
   388 0001:0001dba7   389 0001:0001dbaf   579 0001:0001dbc0   580 0001:0001dbca
   581 0001:0001dbe0   582 0001:0001dbfb   583 0001:0001dbfd   584 0001:0001dc1c
   743 0001:0001dc30   744 0001:0001dc37   745 0001:0001dc3f   299 0001:0001dc50
   300 0001:0001dc69   301 0001:0001dc73   387 0001:0001dc80   388 0001:0001dc87
   389 0001:0001dc8f   515 0001:0001dca0   516 0001:0001dca9   517 0001:0001dcd0
   554 0001:0001dce0   555 0001:0001dce9   556 0001:0001dd0b   579 0001:0001dd20
   580 0001:0001dd2a   581 0001:0001dd40   582 0001:0001dd5b   583 0001:0001dd5d
   584 0001:0001dd7c   743 0001:0001dd90   744 0001:0001dd97   745 0001:0001dd9f
   457 0001:0001ddb0   458 0001:0001ddb9   459 0001:0001dde0   620 0001:0001ddf0
   621 0001:0001ddf9   622 0001:0001de2c   623 0001:0001de3e   624 0001:0001de5c
   770 0001:0001de70   771 0001:0001de77   772 0001:0001de95   773 0001:0001de9b
   774 0001:0001de9f   775 0001:0001deac   776 0001:0001deb4   778 0001:0001deb6
   779 0001:0001dec8   780 0001:0001ded4   782 0001:0001dee6   783 0001:0001dee8
   791 0001:0001def0   792 0001:0001def7   794 0001:0001df00   795 0001:0001df16
   797 0001:0001df35   798 0001:0001df53   877 0001:0001df60   878 0001:0001df67
   879 0001:0001df7f   880 0001:0001df88    21 0001:0001df90    22 0001:0001dfa3
   457 0001:0001dfc0   458 0001:0001dfc9   459 0001:0001dff0   462 0001:0001e000
   463 0001:0001e007   464 0001:0001e019   472 0001:0001e020   473 0001:0001e027
   474 0001:0001e039   620 0001:0001e040   621 0001:0001e049   622 0001:0001e07c
   623 0001:0001e08e   624 0001:0001e0ac   770 0001:0001e0c0   771 0001:0001e0c7
   772 0001:0001e0e5   773 0001:0001e0eb   774 0001:0001e0ef   775 0001:0001e0fc
   776 0001:0001e104   778 0001:0001e106   779 0001:0001e118   780 0001:0001e124
   782 0001:0001e136   783 0001:0001e138   791 0001:0001e140   792 0001:0001e147
   794 0001:0001e150   795 0001:0001e166   797 0001:0001e185   798 0001:0001e1a3
   877 0001:0001e1b0   878 0001:0001e1b7   879 0001:0001e1cf   880 0001:0001e1d8
    21 0001:0001e1e0    22 0001:0001e1f3   219 0001:0001e210   220 0001:0001e217
   221 0001:0001e21f   261 0001:0001e230   262 0001:0001e239   263 0001:0001e241
   264 0001:0001e257   520 0001:0001e260   521 0001:0001e267   522 0001:0001e26f
   809 0001:0001e280   810 0001:0001e2a5   811 0001:0001e2ad   813 0001:0001e2b8
   815 0001:0001e2be   816 0001:0001e2dc   817 0001:0001e2e4   820 0001:0001e2fd
   821 0001:0001e32b   822 0001:0001e33b   823 0001:0001e349   824 0001:0001e358
   826 0001:0001e35e   828 0001:0001e365   829 0001:0001e385   830 0001:0001e3a2
   832 0001:0001e3bb   833 0001:0001e3cb   834 0001:0001e3db   835 0001:0001e3e4
   837 0001:0001e3eb   838 0001:0001e3f9   840 0001:0001e402   841 0001:0001e418
   843 0001:0001e437   844 0001:0001e446   845 0001:0001e455   847 0001:0001e45e
   850 0001:0001e478   852 0001:0001e495   854 0001:0001e49c   856 0001:0001e4c3
   857 0001:0001e4e2   858 0001:0001e4eb   860 0001:0001e4f2   862 0001:0001e504
   864 0001:0001e523   866 0001:0001e525   868 0001:0001e52e   870 0001:0001e553
   872 0001:0001e56f   874 0001:0001e589   883 0001:0001e5a0   884 0001:0001e5be
   885 0001:0001e5ec   520 0001:0001e650   521 0001:0001e657   522 0001:0001e65f
   786 0001:0001e670   787 0001:0001e677   788 0001:0001e68b   809 0001:0001e6a0
   810 0001:0001e6c5   811 0001:0001e6cd   813 0001:0001e6d8   815 0001:0001e6de
   816 0001:0001e6fc   817 0001:0001e704   820 0001:0001e71d   821 0001:0001e74b
   822 0001:0001e75b   823 0001:0001e769   824 0001:0001e778   826 0001:0001e77e
   828 0001:0001e785   829 0001:0001e7a5   830 0001:0001e7c2   832 0001:0001e7db
   833 0001:0001e7eb   834 0001:0001e7fb   835 0001:0001e804   837 0001:0001e80b
   838 0001:0001e819   840 0001:0001e822   841 0001:0001e838   843 0001:0001e857
   844 0001:0001e866   845 0001:0001e875   847 0001:0001e87e   850 0001:0001e898
   852 0001:0001e8b5   854 0001:0001e8bc   856 0001:0001e8e3   857 0001:0001e902
   858 0001:0001e90b   860 0001:0001e912   862 0001:0001e924   864 0001:0001e943
   866 0001:0001e945   868 0001:0001e94e   870 0001:0001e973   872 0001:0001e98f
   874 0001:0001e9a9   883 0001:0001e9c0   884 0001:0001e9de   885 0001:0001ea0c
   278 0001:0001ea70   279 0001:0001ea79   280 0001:0001ea8d   215 0001:0001eaa0
   216 0001:0001eab3   255 0001:0001eac0   256 0001:0001eac7   257 0001:0001ead7
   258 0001:0001eada   278 0001:0001eae0   279 0001:0001eae9   280 0001:0001eafd
    79 0001:0001eb10    82 0001:0001eb17    83 0001:0001eb1c   140 0001:0001eb80
   143 0001:0001eb87   144 0001:0001eb94    73 0001:0001eba0    75 0001:0001eba7
    76 0001:0001ebaf   140 0001:0001ebc0   143 0001:0001ebc7   144 0001:0001ebd4
   801 0001:0001ec60   804 0001:0001ec67   805 0001:0001ec7f   801 0001:0001ed60
   804 0001:0001ed67   805 0001:0001ed7f

Line numbers for .\Debug\OgreAllVehicle.obj(f:\ogresdk\include\ogremath.h) segment .text

    61 0001:0001db10

Line numbers for .\Debug\OgreAllVehicle.obj(e:\tony\codes\fantasy\cutecar\src\ogreallvehicle.cpp) segment .text

    10 0001:0001c330    12 0001:0001c367    13 0001:0001c372    14 0001:0001c37c
    17 0001:0001c3a0    19 0001:0001c3b0    22 0001:0001c3c0    23 0001:0001c3db
    25 0001:0001c3e4    27 0001:0001c454    28 0001:0001c459    31 0001:0001c470
    32 0001:0001c495    33 0001:0001c4d0    35 0001:0001c4d6    38 0001:0001c4e5
    39 0001:0001c4fd    42 0001:0001c510    43 0001:0001c52e    44 0001:0001c566
    45 0001:0001c574    47 0001:0001c58e    48 0001:0001c5a7    49 0001:0001c5b9
    50 0001:0001c5bb    53 0001:0001c5d0    54 0001:0001c5ee    55 0001:0001c5fc
    57 0001:0001c616    59 0001:0001c66a    61 0001:0001c67d    62 0001:0001c67f
    63 0001:0001c681    66 0001:0001c6a0    67 0001:0001c6a9    68 0001:0001c6b7
    70 0001:0001c6bd    73 0001:0001c6c4    75 0001:0001c6de    77 0001:0001c6fb
    78 0001:0001c711    80 0001:0001c722    82 0001:0001c729    84 0001:0001c73c
    86 0001:0001c73e    87 0001:0001c74d   106 0001:0001c760   107 0001:0001c7a8
   108 0001:0001c7b2   109 0001:0001c7bc   110 0001:0001c7c6   112 0001:0001c7de
   113 0001:0001c7ec   114 0001:0001c7ee   115 0001:0001c7fe   116 0001:0001c808
   119 0001:0001c820   121 0001:0001c84c   124 0001:0001c880   125 0001:0001c8ad
   127 0001:0001c8b7   128 0001:0001c931   129 0001:0001c940   130 0001:0001c949
   131 0001:0001c958   132 0001:0001c971   133 0001:0001c99d   134 0001:0001c9ff
   135 0001:0001ca62   136 0001:0001cae1   137 0001:0001caf3   138 0001:0001cb0d
   140 0001:0001cb22   141 0001:0001cb54   142 0001:0001cb86   143 0001:0001cbb8
   145 0001:0001cbea   147 0001:0001cc16   148 0001:0001cc35   151 0001:0001cc50
   154 0001:0001cc6e   155 0001:0001ccc6   156 0001:0001ccd8   158 0001:0001cd0b
   160 0001:0001cd2e   162 0001:0001cd86   163 0001:0001cd98   166 0001:0001cdaa
   167 0001:0001cdbc   168 0001:0001cdce   169 0001:0001cde0   170 0001:0001cdf2
   173 0001:0001ce10   174 0001:0001ce20   175 0001:0001ce3b   178 0001:0001ce50
   179 0001:0001ce57   180 0001:0001ce61   181 0001:0001ce6c   184 0001:0001ce70
   185 0001:0001ce8e   187 0001:0001ce9d   188 0001:0001cef5   189 0001:0001cf07
   191 0001:0001cf10   194 0001:0001cf20   195 0001:0001cf3e   197 0001:0001cf4b
   198 0001:0001cf5d   199 0001:0001cfb7   200 0001:0001d00f   202 0001:0001d01e
   204 0001:0001d02e   207 0001:0001d040   208 0001:0001d05e   210 0001:0001d067
   211 0001:0001d0bf   213 0001:0001d0c5   216 0001:0001d0d3   218 0001:0001d0dd
   221 0001:0001d0f0   222 0001:0001d0f7   223 0001:0001d105   226 0001:0001d110
   228 0001:0001d117   230 0001:0001d13f   233 0001:0001d143   234 0001:0001d152
   235 0001:0001d154   238 0001:0001d160   239 0001:0001d167   240 0001:0001d16d
   243 0001:0001d180   244 0001:0001d187   246 0001:0001d1a3   248 0001:0001d1b9
   250 0001:0001d1c8   251 0001:0001d1d2   253 0001:0001d1e8   254 0001:0001d1ea
   257 0001:0001d1f0   258 0001:0001d1f9   259 0001:0001d200   261 0001:0001d21c
   263 0001:0001d233   265 0001:0001d244   266 0001:0001d24e   268 0001:0001d265
   270 0001:0001d287   272 0001:0001d291   273 0001:0001d294   281 0001:0001d2a0
   283 0001:0001d2b0   286 0001:0001d2c0   288 0001:0001d2d0   291 0001:0001d2e0
   292 0001:0001d2fe   294 0001:0001d308   295 0001:0001d38b   296 0001:0001d394
   297 0001:0001d44c   299 0001:0001d45b   300 0001:0001d51b   302 0001:0001d533
   303 0001:0001d55a   305 0001:0001d55f   306 0001:0001d561   309 0001:0001d570
   311 0001:0001d579   312 0001:0001d58d   313 0001:0001d5cb   314 0001:0001d5e0
   321 0001:0001d5f0   322 0001:0001d63c   325 0001:0001d650   327 0001:0001d660
   330 0001:0001d670   331 0001:0001d696   333 0001:0001d6a0   334 0001:0001d6a7
   335 0001:0001d6bb   338 0001:0001d6ed   339 0001:0001d6fa   340 0001:0001d701
   342 0001:0001d706   343 0001:0001d713   344 0001:0001d71a   346 0001:0001d71c
   347 0001:0001d729   348 0001:0001d730   350 0001:0001d732   351 0001:0001d73f
   352 0001:0001d746   354 0001:0001d748   355 0001:0001d755   356 0001:0001d75c
   358 0001:0001d75e   359 0001:0001d76b   360 0001:0001d772   362 0001:0001d774
   363 0001:0001d781   366 0001:0001d788   367 0001:0001d814   368 0001:0001d823
   369 0001:0001d874   370 0001:0001d8a0   371 0001:0001d8f9   372 0001:0001d911
   374 0001:0001d930   376 0001:0001d945   378 0001:0001d971   379 0001:0001d973
   382 0001:0001d9b0   383 0001:0001d9b7   385 0001:0001d9c2   386 0001:0001d9d6
   387 0001:0001d9f1   389 0001:0001d9f5   390 0001:0001d9f7   393 0001:0001da00
   394 0001:0001da09   396 0001:0001da14   397 0001:0001da28   398 0001:0001da4d
   400 0001:0001da51   401 0001:0001da53   404 0001:0001da60   405 0001:0001da67
   406 0001:0001da6d

Line numbers for .\Debug\NxWheel.obj(e:\tony\codes\fantasy\cutecar\src\nxwheel.h) segment .text

    20 0001:0001c1f0    21 0001:0001c1f9    22 0001:0001c21b    30 0001:0001c230
    31 0001:0001c239    32 0001:0001c27f    35 0001:0001c290    36 0001:0001c297
    37 0001:0001c2ad

Line numbers for .\Debug\NxWheel.obj(c:\program files\ageia technologies\ageia physx sdk\v2.3.2\sdks\physics\include\nxspringdesc.h) segment .text

   108 0001:0001bea0   109 0001:0001bea7   110 0001:0001beaf   120 0001:0001bec0
   121 0001:0001bec7   122 0001:0001bed0   123 0001:0001beda   124 0001:0001bee4
   127 0001:0001c1a0   128 0001:0001c1a9   129 0001:0001c1e1

Line numbers for .\Debug\NxWheel.obj(c:\program files\ageia technologies\ageia physx sdk\v2.3.2\sdks\physics\include\nxwheelshapedesc.h) segment .text

   319 0001:0001be20   320 0001:0001be7a   321 0001:0001be84   324 0001:0001bf40
   325 0001:0001bf47   327 0001:0001bf4f   328 0001:0001bf59   330 0001:0001bf63
   331 0001:0001bf70   333 0001:0001bf7d   334 0001:0001bf8a   335 0001:0001bf97
   337 0001:0001bfa4   339 0001:0001bfac   340 0001:0001bfb7   341 0001:0001bfc5
   343 0001:0001bfd9   346 0001:0001bfe0   347 0001:0001bfe7   348 0001:0001c004
   349 0001:0001c01e   350 0001:0001c03b   351 0001:0001c055   352 0001:0001c075
   353 0001:0001c092   354 0001:0001c0b2   355 0001:0001c0d2   356 0001:0001c0ef
   358 0001:0001c10f   359 0001:0001c125   360 0001:0001c14f   361 0001:0001c169
   364 0001:0001c189   365 0001:0001c191

Line numbers for .\Debug\NxWheel.obj(c:\program files\ageia technologies\ageia physx sdk\v2.3.2\sdks\foundation\include\nxmat33.h) segment .text

   872 0001:0001bd00   873 0001:0001bd09   874 0001:0001bd12   875 0001:0001bd1a
   876 0001:0001bd23   878 0001:0001bd2c   879 0001:0001bd49   880 0001:0001bd61
   882 0001:0001bd79   883 0001:0001bd91   884 0001:0001bdaf   886 0001:0001bdc7
   887 0001:0001bddf   888 0001:0001bdf7   889 0001:0001be15

Line numbers for .\Debug\NxWheel.obj(e:\tony\codes\fantasy\cutecar\src\nxwheel.cpp) segment .text

    10 0001:0001b940    11 0001:0001b95b    12 0001:0001b9a1    15 0001:0001b9b0
    16 0001:0001b9ec    19 0001:0001ba0b    21 0001:0001ba14    23 0001:0001ba1f
    24 0001:0001ba29    25 0001:0001ba33    28 0001:0001ba50    30 0001:0001ba62
    31 0001:0001ba71    32 0001:0001ba7c    33 0001:0001baa1    34 0001:0001bab3
    35 0001:0001bacb    39 0001:0001bada    41 0001:0001baef    42 0001:0001bafb
    43 0001:0001bb07    45 0001:0001bb13    46 0001:0001bb1c    47 0001:0001bb25
    54 0001:0001bb2e    55 0001:0001bb3a    57 0001:0001bb46    58 0001:0001bb6d
    61 0001:0001bba0    62 0001:0001bbb0    65 0001:0001bbc0    71 0001:0001bbc7
    72 0001:0001bbd8    74 0001:0001bbf0    75 0001:0001bc08    78 0001:0001bc10
    79 0001:0001bc19    80 0001:0001bc21    81 0001:0001bc3c    82 0001:0001bc5c
    85 0001:0001bc60    86 0001:0001bc67    87 0001:0001bc7f    90 0001:0001bc90
    91 0001:0001bc97    92 0001:0001bcb6    95 0001:0001bcc0    96 0001:0001bcc7
    97 0001:0001bcf5

Line numbers for .\Debug\NxVehicle.obj(d:\program files\microsoft visual studio .net 2003\vc7\include\utility) segment .text

    34 0001:00019b40    35 0001:00019b5c    34 0001:0001b5b0    35 0001:0001b5cc

Line numbers for .\Debug\NxVehicle.obj(d:\program files\microsoft visual studio .net 2003\vc7\include\functional) segment .text

   138 0001:00019ab0   139 0001:00019ab7   140 0001:00019ac5

Line numbers for .\Debug\NxVehicle.obj(d:\program files\microsoft visual studio .net 2003\vc7\include\xmemory) segment .text

   111 0001:00019aa0   113 0001:00019aa7   115 0001:0001a610   117 0001:0001a617
   131 0001:0001a620   132 0001:0001a627   133 0001:0001a633   151 0001:0001a640
   152 0001:0001a647   153 0001:0001a653   156 0001:0001b6d0   157 0001:0001b6d9
   158 0001:0001b6e0   159 0001:0001b6f8   136 0001:0001b700   137 0001:0001b707
   138 0001:0001b715   151 0001:0001b720   152 0001:0001b727   153 0001:0001b733
   146 0001:0001b740   147 0001:0001b747   148 0001:0001b757    48 0001:0001b8a0
    50 0001:0001b8a3   120 0001:0001b8b0   122 0001:0001b8b7   120 0001:0001b8c0
   122 0001:0001b8c7    33 0001:0001b8d0    34 0001:0001b8d3    35 0001:0001b8e2
    48 0001:0001b8f0    50 0001:0001b8f3    41 0001:0001b900    42 0001:0001b906
    43 0001:0001b936

Line numbers for .\Debug\NxVehicle.obj(d:\program files\microsoft visual studio .net 2003\vc7\include\map) segment .text

   102 0001:00018f30   103 0001:00018f4e   142 0001:00018f60   143 0001:00018f69
   144 0001:00018f79   146 0001:00018fba   147 0001:00018fe7   148 0001:00018ff2
    63 0001:0001a600    64 0001:0001a603    65 0001:0001a606    38 0001:0001b890
    39 0001:0001b897

Line numbers for .\Debug\NxVehicle.obj(c:\program files\ageia technologies\ageia physx sdk\v2.3.2\sdks\foundation\include\nxarray.h) segment .text

   294 0001:00018dc0   295 0001:00018dc7   296 0001:00018dd2   286 0001:00018de0
   287 0001:00018de7   288 0001:00018df2   294 0001:00018e00   295 0001:00018e07
   296 0001:00018e12    43 0001:00018e20    45 0001:00018e44    76 0001:00018e50
    77 0001:00018e57    78 0001:00018e6c    79 0001:00018e7a    80 0001:00018e83
    81 0001:00018e8d    82 0001:00018e97   183 0001:00018ea0   184 0001:00018ea7
   185 0001:00018eb5   209 0001:00018ec0   211 0001:00018ec7   213 0001:00018ed5
   215 0001:00018eea   216 0001:00018ef7   217 0001:00018f06   294 0001:00018f10
   295 0001:00018f17   296 0001:00018f22   124 0001:00019270   125 0001:00019279
   128 0001:00019286   129 0001:00019295   130 0001:000192ae   131 0001:000192c3
   134 0001:000192d1   135 0001:000192e0   136 0001:000192f4   138 0001:000192fc
   430 0001:00019310   431 0001:00019317   432 0001:0001932c   435 0001:00019340
   436 0001:00019347   439 0001:0001935a   440 0001:0001935c   144 0001:00019cc0
   145 0001:00019cc9   146 0001:00019cee   409 0001:00019d00   410 0001:00019d07
   411 0001:00019d23   412 0001:00019d2f   413 0001:00019d32   416 0001:00019d40
   418 0001:00019d47   422 0001:00019d6d

Line numbers for .\Debug\NxVehicle.obj(d:\program files\microsoft visual studio .net 2003\vc7\include\xtree) segment .text

   396 0001:00018ca0   397 0001:00018ca9   399 0001:00018cb1   401 0001:00018cdb
   403 0001:00018ce7   404 0001:00018cea   412 0001:00018cf0   413 0001:00018cf7
   414 0001:00018d0d   422 0001:00018d20   423 0001:00018d27   424 0001:00018d39
   814 0001:00018d40   815 0001:00018d47   816 0001:00018d5f   209 0001:00018d70
   210 0001:00018d77   211 0001:00018d7f   233 0001:00018d90   234 0001:00018d99
   235 0001:00018da1   236 0001:00018da9   237 0001:00018db4   391 0001:00019000
   392 0001:00019007   393 0001:0001900f   407 0001:00019020   408 0001:00019027
   409 0001:0001903d   417 0001:00019050   418 0001:00019057   419 0001:00019069
   787 0001:00019070   788 0001:00019079   790 0001:00019089   791 0001:000190f4
