 CuteCar

 Timestamp is 44e717d2 (Sat Aug 19 21:53:22 2006)

 Preferred load address is 00400000

 Start         Length     Name                   Class
 0001:00000000 00044ec2H .text                   CODE
 0001:00044ed0 00001672H .text$x                 CODE
 0001:00046550 00000241H .text$yc                CODE
 0001:000467a0 0000005fH .text$yd                CODE
 0002:00000000 000004bcH .idata$5                DATA
 0002:000004c0 0000c198H .rdata                  DATA
 0002:0000c658 0000006dH .rdata$debug            DATA
 0002:0000c6c8 00000244H .rdata$r                DATA
 0002:0000c910 000001d4H .rdata$sxdata           DATA
 0002:0000cae4 00000004H .rtc$IAA                DATA
 0002:0000cae8 00000004H .rtc$IZZ                DATA
 0002:0000caec 00000004H .rtc$TAA                DATA
 0002:0000caf0 00000004H .rtc$TZZ                DATA
 0002:0000caf4 00001b84H .xdata$x                DATA
 0002:0000e678 000000b4H .idata$2                DATA
 0002:0000e72c 00000014H .idata$3                DATA
 0002:0000e740 000004bcH .idata$4                DATA
 0002:0000ebfc 0000335aH .idata$6                DATA
 0002:00011f56 00000000H .edata                  DATA
 0003:00000000 00000004H .CRT$XCA                DATA
 0003:00000004 00000004H .CRT$XCAA               DATA
 0003:00000008 00000024H .CRT$XCU                DATA
 0003:0000002c 00000004H .CRT$XCZ                DATA
 0003:00000030 00000004H .CRT$XIA                DATA
 0003:00000034 00000010H .CRT$XIC                DATA
 0003:00000044 00000004H .CRT$XIY                DATA
 0003:00000048 00000004H .CRT$XIZ                DATA
 0003:0000004c 00000004H .CRT$XPA                DATA
 0003:00000050 00000004H .CRT$XPX                DATA
 0003:00000054 00000004H .CRT$XPZ                DATA
 0003:00000058 00000004H .CRT$XTA                DATA
 0003:0000005c 00000004H .CRT$XTB                DATA
 0003:00000060 00000004H .CRT$XTZ                DATA
 0003:00000070 00001420H .data                   DATA
 0003:000014a0 00001bc8H .bss                    DATA

  Address         Publics by Value              Rva+Base     Lib:Object

 0000:00000000       __except_list              00000000     <absolute>
 0000:00000075       ___safe_se_handler_count   00000075     <absolute>
 0001:00000000       ??0AudioClass@@QAE@PAUHWND__@@_N@Z 00401000 f   AudioClass.obj
 0001:00000050       ??1AudioClass@@QAE@XZ      00401050 f   AudioClass.obj
 0001:000000d0       ?Initialize@AudioClass@@QAEJXZ 004010d0 f   AudioClass.obj
 0001:00000130       ?InitializeMgr@AudioClass@@AAEJXZ 00401130 f   AudioClass.obj
 0001:000001b0       ?SetPrimaryBufferFormat@AudioClass@@AAEJKKK@Z 004011b0 f   AudioClass.obj
 0001:000002d0       ?Get3DListenerInterface@AudioClass@@AAEJXZ 004012d0 f   AudioClass.obj
 0001:00000370       ?SetListenerParameters@AudioClass@@QAEXMM@Z 00401370 f   AudioClass.obj
 0001:00000410       ?SetListenerPosition@AudioClass@@QAEXU_D3DVECTOR@@@Z 00401410 f   AudioClass.obj
 0001:00000490       ?SetListenerPosition@AudioClass@@QAEXMMM@Z 00401490 f   AudioClass.obj
 0001:000004e0       ?SetListenerVelocity@AudioClass@@QAEXU_D3DVECTOR@@@Z 004014e0 f   AudioClass.obj
 0001:00000560       ?SetListenerVelocity@AudioClass@@QAEXMMM@Z 00401560 f   AudioClass.obj
 0001:000005b0       ?SetListenerOrientFront@AudioClass@@QAEXU_D3DVECTOR@@@Z 004015b0 f   AudioClass.obj
 0001:00000630       ?SetListenerOrientFront@AudioClass@@QAEXMMM@Z 00401630 f   AudioClass.obj
 0001:00000680       ?SetListenerOrientTop@AudioClass@@QAEXU_D3DVECTOR@@@Z 00401680 f   AudioClass.obj
 0001:00000700       ?SetListenerOrientTop@AudioClass@@QAEXMMM@Z 00401700 f   AudioClass.obj
 0001:00000750       ??0SoundClass@@QAE@PAVAudioClass@@@Z 00401750 f   AudioClass.obj
 0001:000007c0       ??0SoundClass@@QAE@PAVAudioClass@@PAD@Z 004017c0 f   AudioClass.obj
 0001:00000840       ??1SoundClass@@UAE@XZ      00401840 f   AudioClass.obj
 0001:000008f0       ?CreateBuffer@SoundClass@@QAEJPAD@Z 004018f0 f   AudioClass.obj
 0001:00001030       ?CreateBuffer@SoundClass@@QAEJPAEKPAUtWAVEFORMATEX@@@Z 00402030 f   AudioClass.obj
 0001:000013a0       ?Get3DBufferInterface@SoundClass@@IAEJXZ 004023a0 f   AudioClass.obj
 0001:00001450       ?FillBufferWithSound@SoundClass@@IAEJ_N@Z 00402450 f   AudioClass.obj
 0001:00001620       ?RestoreBuffer@SoundClass@@IAEJPA_N@Z 00402620 f   AudioClass.obj
 0001:000016c0       ?Play@SoundClass@@QAEJKJJJ@Z 004026c0 f   AudioClass.obj
 0001:00001710       ?Stop@SoundClass@@QAEJXZ   00402710 f   AudioClass.obj
 0001:00001750       ?Reset@SoundClass@@QAEJXZ  00402750 f   AudioClass.obj
 0001:00001790       ?IsSoundPlaying@SoundClass@@QAE_NXZ 00402790 f   AudioClass.obj
 0001:000017e0       ?SetMinDistance@SoundClass@@QAEXM@Z 004027e0 f   AudioClass.obj
 0001:00001850       ?SetMaxDistance@SoundClass@@QAEXM@Z 00402850 f   AudioClass.obj
 0001:000018c0       ?SetPosition@SoundClass@@QAEXU_D3DVECTOR@@@Z 004028c0 f   AudioClass.obj
 0001:00001940       ?SetPosition@SoundClass@@QAEXMMM@Z 00402940 f   AudioClass.obj
 0001:000019a0       ?SetVelocity@SoundClass@@QAEXU_D3DVECTOR@@@Z 004029a0 f   AudioClass.obj
 0001:00001a20       ?SetVelocity@SoundClass@@QAEXMMM@Z 00402a20 f   AudioClass.obj
 0001:00001a80       ?SetConeOrientation@SoundClass@@QAEXU_D3DVECTOR@@@Z 00402a80 f   AudioClass.obj
 0001:00001b00       ?SetConeOrientation@SoundClass@@QAEXMMM@Z 00402b00 f   AudioClass.obj
 0001:00001b60       ?SetInsideConeAngle@SoundClass@@QAEXK@Z 00402b60 f   AudioClass.obj
 0001:00001bd0       ?SetOutsideConeAngle@SoundClass@@QAEXK@Z 00402bd0 f   AudioClass.obj
 0001:00001c40       ?SetConeOutsideVolume@SoundClass@@QAEXJ@Z 00402c40 f   AudioClass.obj
 0001:00001cb0       ??0WaveClass@@QAE@XZ       00402cb0 f   AudioClass.obj
 0001:00001d00       ??1WaveClass@@QAE@XZ       00402d00 f   AudioClass.obj
 0001:00001d50       ?Open@WaveClass@@QAEJPADPAUtWAVEFORMATEX@@K@Z 00402d50 f   AudioClass.obj
 0001:00001fd0       ?OpenFromMemory@WaveClass@@QAEJPAEKPAUtWAVEFORMATEX@@K@Z 00402fd0 f   AudioClass.obj
 0001:00002030       ?ReadMMIO@WaveClass@@IAEJXZ 00403030 f   AudioClass.obj
 0001:00002250       ?GetSize@WaveClass@@QAEKXZ 00403250 f   AudioClass.obj
 0001:00002270       ?ResetFile@WaveClass@@QAEJXZ 00403270 f   AudioClass.obj
 0001:00002370       ?Read@WaveClass@@QAEJPAEKPAK@Z 00403370 f   AudioClass.obj
 0001:00002540       ?Close@WaveClass@@QAEJXZ   00403540 f   AudioClass.obj
 0001:00002710       ?WriteMMIO@WaveClass@@IAEJPAUtWAVEFORMATEX@@@Z 00403710 f   AudioClass.obj
 0001:00002890       ?Write@WaveClass@@QAEJIPAEPAI@Z 00403890 f   AudioClass.obj
 0001:00002980       ??_GSoundClass@@UAEPAXI@Z  00403980 f i AudioClass.obj
 0001:00002980       ??_ESoundClass@@UAEPAXI@Z  00403980 f i AudioClass.obj
 0001:000029b0       ??_GWaveClass@@QAEPAXI@Z   004039b0 f i AudioClass.obj
 0001:000029e0       ?Is3D@AudioClass@@QAE_NXZ  004039e0 f i AudioClass.obj
 0001:00002a00       ?GetDirectSound@AudioClass@@QAEPAUIDirectSound8@@XZ 00403a00 f i AudioClass.obj
 0001:00002a20       ?GetFormat@WaveClass@@QAEPAUtWAVEFORMATEX@@XZ 00403a20 f i AudioClass.obj
 0001:00002a30       ??_H@YGXPAXIHP6EPAX0@Z@Z   00403a30 f i CuteCar.obj
 0001:00002a60       ??2@YAPAXI@Z               00403a60 f i CuteCar.obj
 0001:00002aa0       ??3@YAXPAX@Z               00403aa0 f i CuteCar.obj
 0001:00002ac0       ?convertOgreButtonToCegui@@YA?AW4MouseButton@CEGUI@@H@Z 00403ac0 f   CuteCar.obj
 0001:00002b90       _WinMain@16                00403b90 f   CuteCar.obj
 0001:00002c50       ??_EAllVehicleInfoOgre@@QAEPAXI@Z 00403c50 f i CuteCar.obj
 0001:00002cc0       ??_V@YAXPAX@Z              00403cc0 f i CuteCar.obj
 0001:00002ce0       ??1AllVehicleInfoOgre@@QAE@XZ 00403ce0 f i CuteCar.obj
 0001:00002d00       ?go@ExampleApplication@@UAEXXZ 00403d00 f i CuteCar.obj
 0001:00002d40       ??0CuteCarApplication@@QAE@XZ 00403d40 f i CuteCar.obj
 0001:00002d60       ??0ExampleApplication@@QAE@XZ 00403d60 f i CuteCar.obj
 0001:00002d90       ?setup@ExampleApplication@@MAE_NXZ 00403d90 f i CuteCar.obj
 0001:00002f50       ?configure@ExampleApplication@@MAE_NXZ 00403f50 f i CuteCar.obj
 0001:00002fd0       ?chooseSceneManager@ExampleApplication@@MAEXXZ 00403fd0 f i CuteCar.obj
 0001:00003040       ?createCamera@ExampleApplication@@MAEXXZ 00404040 f i CuteCar.obj
 0001:00003110       ?createFrameListener@ExampleApplication@@MAEXXZ 00404110 f i CuteCar.obj
 0001:000031c0       ??0ExampleFrameListener@@QAE@PAVRenderWindow@Ogre@@PAVCamera@2@_N2@Z 004041c0 f i CuteCar.obj
 0001:00003490       ??0Radian@Ogre@@QAE@M@Z    00404490 f i CuteCar.obj
 0001:000034b0       ??0Degree@Ogre@@QAE@M@Z    004044b0 f i CuteCar.obj
 0001:000034d0       ??4Degree@Ogre@@QAEABV01@ABM@Z 004044d0 f i CuteCar.obj
 0001:000034f0       ?processUnbufferedKeyInput@ExampleFrameListener@@UAE_NABUFrameEvent@Ogre@@@Z 004044f0 f i CuteCar.obj
 0001:00003e60       ??GDegree@Ogre@@QAE?AV01@XZ 00404e60 f i CuteCar.obj
 0001:00003e90       ??0Radian@Ogre@@QAE@ABVDegree@1@@Z 00404e90 f i CuteCar.obj
 0001:00003eb0       ?valueRadians@Degree@Ogre@@QBEMXZ 00404eb0 f i CuteCar.obj
 0001:00003ed0       ?showDebugOverlay@ExampleFrameListener@@QAEX_N@Z 00404ed0 f i CuteCar.obj
 0001:00003f10       ?frameStarted@ExampleFrameListener@@UAE_NABUFrameEvent@Ogre@@@Z 00404f10 f i CuteCar.obj
 0001:000040c0       ??4Radian@Ogre@@QAEABV01@ABM@Z 004050c0 f i CuteCar.obj
 0001:000040e0       ??4Degree@Ogre@@QAEABV01@ABV01@@Z 004050e0 f i CuteCar.obj
 0001:00004100       ??DDegree@Ogre@@QBE?AV01@M@Z 00405100 f i CuteCar.obj
 0001:00004130       ?processUnbufferedMouseInput@ExampleFrameListener@@QAE_NABUFrameEvent@Ogre@@@Z 00405130 f i CuteCar.obj
 0001:00004230       ??4Radian@Ogre@@QAEABV01@ABVDegree@1@@Z 00405230 f i CuteCar.obj
 0001:00004250       ?moveCamera@ExampleFrameListener@@QAEXXZ 00405250 f i CuteCar.obj
 0001:000042a0       ?frameEnded@ExampleFrameListener@@UAE_NABUFrameEvent@Ogre@@@Z 004052a0 f i CuteCar.obj
 0001:000042c0       ?updateStats@ExampleFrameListener@@IAEXXZ 004052c0 f i CuteCar.obj
 0001:00004ba0       ?switchMouseMode@ExampleFrameListener@@QAEXXZ 00405ba0 f i CuteCar.obj
 0001:00004be0       ?switchKeyMode@ExampleFrameListener@@QAEXXZ 00405be0 f i CuteCar.obj
 0001:00004c20       ?keyClicked@ExampleFrameListener@@UAEXPAVKeyEvent@Ogre@@@Z 00405c20 f i CuteCar.obj
 0001:00004c70       ?keyPressed@ExampleFrameListener@@UAEXPAVKeyEvent@Ogre@@@Z 00405c70 f i CuteCar.obj
 0001:00004c80       ?keyReleased@ExampleFrameListener@@UAEXPAVKeyEvent@Ogre@@@Z 00405c80 f i CuteCar.obj
 0001:00004c90       ??_EExampleFrameListener@@UAEPAXI@Z 00405c90 f i CuteCar.obj
 0001:00004c90       ??_GExampleFrameListener@@UAEPAXI@Z 00405c90 f i CuteCar.obj
 0001:00004cc0       ??1ExampleFrameListener@@UAE@XZ 00405cc0 f i CuteCar.obj
 0001:00004d90       ??_EEventProcessor@Ogre@@UAEPAXI@Z 00405d90 f i CuteCar.obj
 0001:00004d90       ??_GEventProcessor@Ogre@@UAEPAXI@Z 00405d90 f i CuteCar.obj
 0001:00004dc0       ?destroyScene@ExampleApplication@@MAEXXZ 00405dc0 f i CuteCar.obj
 0001:00004dd0       ?createViewports@ExampleApplication@@MAEXXZ 00405dd0 f i CuteCar.obj
 0001:00004e70       ?setupResources@ExampleApplication@@MAEXXZ 00405e70 f i CuteCar.obj
 0001:00005080       ?createResourceListener@ExampleApplication@@MAEXXZ 00406080 f i CuteCar.obj
 0001:00005090       ?loadResources@ExampleApplication@@MAEXXZ 00406090 f i CuteCar.obj
 0001:000050b0       ??_GExampleApplication@@UAEPAXI@Z 004060b0 f i CuteCar.obj
 0001:000050b0       ??_EExampleApplication@@UAEPAXI@Z 004060b0 f i CuteCar.obj
 0001:000050e0       ??1ExampleApplication@@UAE@XZ 004060e0 f i CuteCar.obj
 0001:00005170       ??_GRoot@Ogre@@QAEPAXI@Z   00406170 f i CuteCar.obj
 0001:000051a0       ??1CuteCarApplication@@UAE@XZ 004061a0 f i CuteCar.obj
 0001:000051c0       ?chooseSceneManager@CuteCarApplication@@UAEXXZ 004061c0 f i CuteCar.obj
 0001:000051f0       ?createCamera@CuteCarApplication@@UAEXXZ 004061f0 f i CuteCar.obj
 0001:00005300       ?createScene@CuteCarApplication@@UAEXXZ 00406300 f i CuteCar.obj
 0001:00005310       ?createFrameListener@CuteCarApplication@@UAEXXZ 00406310 f i CuteCar.obj
 0001:000053c0       ??0CuteCarFrameListener@@QAE@PAVRenderWindow@Ogre@@PAVCamera@2@PAVSceneManager@2@@Z 004063c0 f i CuteCar.obj
 0001:00006540       ??0VehicleInfo@@QAE@XZ     00407540 f i CuteCar.obj
 0001:000065c0       ?getNxScene@NxTerrain@@QAEPAVNxScene@@XZ 004075c0 f i CuteCar.obj
 0001:000065e0       ?initTerrainItem@NxTerrain@@QAEXPAVNxScene@@@Z 004075e0 f i CuteCar.obj
 0001:00006600       ?addScratchLine@NxTerrain@@QAEXXZ 00407600 f i CuteCar.obj
 0001:00006610       ?SetDefer@AudioClass@@QAEX_N@Z 00407610 f i CuteCar.obj
 0001:00006630       ?SetLoop@SoundClass@@QAEX_N@Z 00407630 f i CuteCar.obj
 0001:00006650       ?GetBuffer@SoundClass@@QAEPAUIDirectSoundBuffer@@XZ 00407650 f i CuteCar.obj
 0001:00006670       ?toNx@NxOgreConvertor@@SA?AVNxVec3@@ABVVector3@Ogre@@@Z 00407670 f i CuteCar.obj
 0001:000066a0       ??0NxVec3@@QAE@MMM@Z       004076a0 f i CuteCar.obj
 0001:000066d0       ?loadMain@CuteCarFrameListener@@QAEXXZ 004076d0 f i CuteCar.obj
 0001:000067f0       ?closesheet@CuteCarFrameListener@@QAEXXZ 004077f0 f i CuteCar.obj
 0001:00006960       ?setupEventHandlers@CuteCarFrameListener@@QAEXXZ 00407960 f i CuteCar.obj
 0001:00006d60       ?ModeSpeed@CuteCarFrameListener@@QAE_NABVEventArgs@CEGUI@@@Z 00407d60 f i CuteCar.obj
 0001:00006db0       ?playscheme@CuteCarFrameListener@@QAEXXZ 00407db0 f i CuteCar.obj
 0001:000078e0       ?ModeDeath@CuteCarFrameListener@@QAE_NABVEventArgs@CEGUI@@@Z 004088e0 f i CuteCar.obj
 0001:00007930       ?handleHelp@CuteCarFrameListener@@QAE_NABVEventArgs@CEGUI@@@Z 00408930 f i CuteCar.obj
 0001:00007a50       ?handlePlace@CuteCarFrameListener@@QAE_NABVEventArgs@CEGUI@@@Z 00408a50 f i CuteCar.obj
 0001:00008260       ?i2TimeString@CuteCarFrameListener@@QAE?AV?$basic_string@DU?$char_traits@D@std@@V?$allocator@D@2@@std@@H@Z 00409260 f i CuteCar.obj
 0001:00008330       ?handleQuit@CuteCarFrameListener@@QAE_NABVEventArgs@CEGUI@@@Z 00409330 f i CuteCar.obj
 0001:00008350       ?setTime@CuteCarFrameListener@@QAEXH@Z 00409350 f i CuteCar.obj
 0001:00008470       ?setSpeed@CuteCarFrameListener@@QAEXH@Z 00409470 f i CuteCar.obj
 0001:00008510       ?frameStarted@CuteCarFrameListener@@UAE_NABUFrameEvent@Ogre@@@Z 00409510 f i CuteCar.obj
 0001:00009b60       ?rand@NxMath@@SAHHH@Z      0040ab60 f i CuteCar.obj
 0001:00009b80       ?getItemId@NxTerrainItem@@QAEHXZ 0040ab80 f i CuteCar.obj
 0001:00009ba0       ?getNumUser@NxTerrain@@QAEHXZ 0040aba0 f i CuteCar.obj
 0001:00009bc0       ?getNumUser@NxAllVehicle@@QAEHXZ 0040abc0 f i CuteCar.obj
 0001:00009be0       ?createTerrainItem@NxTerrain@@QAEPAVNxTerrainItem@@W4ItemType@@ABVNxVec3@@M@Z 0040abe0 f i CuteCar.obj
 0001:00009c10       ?getItemPicked@NxTerrain@@QAEPAV?$NxArray@PAVItemPicked@@VNxAllocatorDefault@@@@XZ 0040ac10 f i CuteCar.obj
 0001:00009c30       ??_U@YAPAXI@Z              0040ac30 f i CuteCar.obj
 0001:00009c70       ?toOgre@NxOgreConvertor@@SA?AUAllVehicleInfoOgre@@ABUAllVehicleInfoNx@@@Z 0040ac70 f i CuteCar.obj
 0001:00009da0       ?toOgre@NxOgreConvertor@@SA?AVVector3@Ogre@@ABVNxVec3@@@Z 0040ada0 f i CuteCar.obj
 0001:00009dd0       ?toOgre@NxOgreConvertor@@SA?AVQuaternion@Ogre@@ABVNxQuat@@@Z 0040add0 f i CuteCar.obj
 0001:00009e00       ??0AllVehicleInfoOgre@@QAE@XZ 0040ae00 f i CuteCar.obj
 0001:00009e60       ??0AllVehicleInfoOgre@@QAE@ABU0@@Z 0040ae60 f i CuteCar.obj
 0001:00009f00       ?GameOver@CuteCarFrameListener@@QAEXXZ 0040af00 f i CuteCar.obj
 0001:0000a120       ?writeGrade@CuteCarFrameListener@@QAEXXZ 0040b120 f i CuteCar.obj
 0001:0000a8b0       ?setupGameOverEvent@CuteCarFrameListener@@QAEXXZ 0040b8b0 f i CuteCar.obj
 0001:0000aae0       ?handleReturn@CuteCarFrameListener@@QAE_NABVEventArgs@CEGUI@@@Z 0040bae0 f i CuteCar.obj
 0001:0000ab00       ?getStr@CuteCarFrameListener@@QAEPADXZ 0040bb00 f i CuteCar.obj
 0001:0000ab50       ?mouseMoved@CuteCarFrameListener@@UAEXPAVMouseEvent@Ogre@@@Z 0040bb50 f i CuteCar.obj
 0001:0000abd0       ?mouseDragged@CuteCarFrameListener@@UAEXPAVMouseEvent@Ogre@@@Z 0040bbd0 f i CuteCar.obj
 0001:0000abf0       ?mousePressed@CuteCarFrameListener@@UAEXPAVMouseEvent@Ogre@@@Z 0040bbf0 f i CuteCar.obj
 0001:0000ac30       ?mouseReleased@CuteCarFrameListener@@UAEXPAVMouseEvent@Ogre@@@Z 0040bc30 f i CuteCar.obj
 0001:0000ac70       ?mouseClicked@CuteCarFrameListener@@UAEXPAVMouseEvent@Ogre@@@Z 0040bc70 f i CuteCar.obj
 0001:0000ac80       ?mouseEntered@CuteCarFrameListener@@UAEXPAVMouseEvent@Ogre@@@Z 0040bc80 f i CuteCar.obj
 0001:0000ac90       ?mouseExited@CuteCarFrameListener@@UAEXPAVMouseEvent@Ogre@@@Z 0040bc90 f i CuteCar.obj
 0001:0000aca0       ?keyClicked@CuteCarFrameListener@@UAEXPAVKeyEvent@Ogre@@@Z 0040bca0 f i CuteCar.obj
 0001:0000acb0       ?keyPressed@CuteCarFrameListener@@UAEXPAVKeyEvent@Ogre@@@Z 0040bcb0 f i CuteCar.obj
 0001:0000b010       ?checkESC@CuteCarFrameListener@@QAEXXZ 0040c010 f i CuteCar.obj
 0001:0000b050       ?setupCheckHandler@CuteCarFrameListener@@QAEXXZ 0040c050 f i CuteCar.obj
 0001:0000b1e0       ?handleChecked@CuteCarFrameListener@@QAE_NABVEventArgs@CEGUI@@@Z 0040c1e0 f i CuteCar.obj
 0001:0000b210       ?handleResume@CuteCarFrameListener@@QAE_NABVEventArgs@CEGUI@@@Z 0040c210 f i CuteCar.obj
 0001:0000b250       ?keyReleased@CuteCarFrameListener@@UAEXPAVKeyEvent@Ogre@@@Z 0040c250 f i CuteCar.obj
 0001:0000b3d0       ??_GCuteCarFrameListener@@UAEPAXI@Z 0040c3d0 f i CuteCar.obj
 0001:0000b3d0       ??_ECuteCarFrameListener@@UAEPAXI@Z 0040c3d0 f i CuteCar.obj
 0001:0000b400       ??1CuteCarFrameListener@@UAE@XZ 0040c400 f i CuteCar.obj
 0001:0000b5f0       ?releasePhysics@NxTerrain@@QAEXXZ 0040c5f0 f i CuteCar.obj
 0001:0000b610       ??_GOgreCEGUIRenderer@CEGUI@@UAEPAXI@Z 0040c610 f i CuteCar.obj
 0001:0000b610       ??_EOgreCEGUIRenderer@CEGUI@@UAEPAXI@Z 0040c610 f i CuteCar.obj
 0001:0000b640       ??_GSystem@CEGUI@@UAEPAXI@Z 0040c640 f i CuteCar.obj
 0001:0000b640       ??_ESystem@CEGUI@@UAEPAXI@Z 0040c640 f i CuteCar.obj
 0001:0000b670       ??4AllVehicleInfoOgre@@QAEAAU0@ABU0@@Z 0040c670 f i CuteCar.obj
 0001:0000b710       ??_GCuteCarApplication@@UAEPAXI@Z 0040c710 f i CuteCar.obj
 0001:0000b710       ??_ECuteCarApplication@@UAEPAXI@Z 0040c710 f i CuteCar.obj
 0001:0000b740       ??0?$basic_string@DU?$char_traits@D@std@@V?$allocator@D@2@@std@@QAE@XZ 0040c740 f i CuteCar.obj
 0001:0000b770       ??0?$basic_string@DU?$char_traits@D@std@@V?$allocator@D@2@@std@@QAE@ABV01@@Z 0040c770 f i CuteCar.obj
 0001:0000b7c0       ??0?$basic_string@DU?$char_traits@D@std@@V?$allocator@D@2@@std@@QAE@PBD@Z 0040c7c0 f i CuteCar.obj
 0001:0000b800       ??1?$basic_string@DU?$char_traits@D@std@@V?$allocator@D@2@@std@@QAE@XZ 0040c800 f i CuteCar.obj
 0001:0000b820       ??4?$basic_string@DU?$char_traits@D@std@@V?$allocator@D@2@@std@@QAEAAV01@ABV01@@Z 0040c820 f i CuteCar.obj
 0001:0000b840       ??4?$basic_string@DU?$char_traits@D@std@@V?$allocator@D@2@@std@@QAEAAV01@PBD@Z 0040c840 f i CuteCar.obj
 0001:0000b860       ?c_str@?$basic_string@DU?$char_traits@D@std@@V?$allocator@D@2@@std@@QBEPBDXZ 0040c860 f i CuteCar.obj
 0001:0000b880       ?size@?$NxArray@PAVNxVehicle@@VNxAllocatorDefault@@@@QBEIXZ 0040c880 f i CuteCar.obj
 0001:0000b8a0       ?size@?$NxArray@PAVItemPicked@@VNxAllocatorDefault@@@@QBEIXZ 0040c8a0 f i CuteCar.obj
 0001:0000b8c0       ?clear@?$NxArray@PAVItemPicked@@VNxAllocatorDefault@@@@QAEXXZ 0040c8c0 f i CuteCar.obj
 0001:0000b8f0       ??A?$NxArray@PAVItemPicked@@VNxAllocatorDefault@@@@QAEAAPAVItemPicked@@I@Z 0040c8f0 f i CuteCar.obj
 0001:0000b910       ?begin@?$vector@W4ItemType@@V?$allocator@W4ItemType@@@std@@@std@@QAE?AViterator@12@XZ 0040c910 f i CuteCar.obj
 0001:0000b930       ?end@?$vector@W4ItemType@@V?$allocator@W4ItemType@@@std@@@std@@QAE?AViterator@12@XZ 0040c930 f i CuteCar.obj
 0001:0000b950       ?size@?$vector@W4ItemType@@V?$allocator@W4ItemType@@@std@@@std@@QBEIXZ 0040c950 f i CuteCar.obj
 0001:0000b990       ??A?$vector@W4ItemType@@V?$allocator@W4ItemType@@@std@@@std@@QAEAAW4ItemType@@I@Z 0040c990 f i CuteCar.obj
 0001:0000b9d0       ?erase@?$vector@W4ItemType@@V?$allocator@W4ItemType@@@std@@@std@@QAE?AViterator@12@V312@@Z 0040c9d0 f i CuteCar.obj
 0001:0000ba30       ??1?$RefPtr@VConnectionInterface@Event@CEGUI@@@CEGUI@@QAE@XZ 0040ca30 f i CuteCar.obj
 0001:0000ba60       ?hasMoreElements@?$MapIterator@V?$map@V?$basic_string@DU?$char_traits@D@std@@V?$allocator@D@2@@std@@PAV?$multimap@V?$basic_string@DU?$char_traits@D@std@@V?$allocator@D@2@@std@@V12@U?$less@V?$basic_string@DU?$char_traits@D@std@@V?$allocator@D@2@@std@@@2@V?$allocator@U?$pair@$$CBV?$basic_string@DU?$char_traits@D@std@@V?$allocator@D@2@@std@@V12@@std@@@2@@2@U?$less@V?$basic_string@DU?$char_traits@D@std@@V?$allocator@D@2@@std@@@2@V?$allocator@U?$pair@$$CBV?$basic_string@DU?$char_traits@D@std@@V?$allocator@D@2@@std@@PAV?$multimap@V?$basic_string@DU?$char_traits@D@std@@V?$allocator@D@2@@std@@V12@U?$less@V?$basic_string@DU?$char_traits@D@std@@V?$allocator@D@2@@std@@@2@V?$allocator@U?$pair@$$CBV?$basic_string@DU?$char_traits@D@std@@V?$allocator@D@2@@std@@V12@@std@@@2@@2@@std@@@2@@std@@@Ogre@@QBE_NXZ 0040ca60 f i CuteCar.obj
 0001:0000ba80       ?getNext@?$MapIterator@V?$map@V?$basic_string@DU?$char_traits@D@std@@V?$allocator@D@2@@std@@PAV?$multimap@V?$basic_string@DU?$char_traits@D@std@@V?$allocator@D@2@@std@@V12@U?$less@V?$basic_string@DU?$char_traits@D@std@@V?$allocator@D@2@@std@@@2@V?$allocator@U?$pair@$$CBV?$basic_string@DU?$char_traits@D@std@@V?$allocator@D@2@@std@@V12@@std@@@2@@2@U?$less@V?$basic_string@DU?$char_traits@D@std@@V?$allocator@D@2@@std@@@2@V?$allocator@U?$pair@$$CBV?$basic_string@DU?$char_traits@D@std@@V?$allocator@D@2@@std@@PAV?$multimap@V?$basic_string@DU?$char_traits@D@std@@V?$allocator@D@2@@std@@V12@U?$less@V?$basic_string@DU?$char_traits@D@std@@V?$allocator@D@2@@std@@@2@V?$allocator@U?$pair@$$CBV?$basic_string@DU?$char_traits@D@std@@V?$allocator@D@2@@std@@V12@@std@@@2@@2@@std@@@2@@std@@@Ogre@@QAEPAV?$multimap@V?$basic_string@DU?$char_traits@D@std@@V?$allocator@D@2@@std@@V12@U?$less@V?$basic_string@DU?$char_traits@D@std@@V?$allocator@D@2@@std@@@2@V?$allocator@U?$pair@$$CBV?$basic_string@DU?$char_traits@D@std@@V?$allocator@D@2@@std@@V12@@std@@@2@@std@@XZ 0040ca80 f i CuteCar.obj
 0001:0000bab0       ?peekNextKey@?$MapIterator@V?$map@V?$basic_string@DU?$char_traits@D@std@@V?$allocator@D@2@@std@@PAV?$multimap@V?$basic_string@DU?$char_traits@D@std@@V?$allocator@D@2@@std@@V12@U?$less@V?$basic_string@DU?$char_traits@D@std@@V?$allocator@D@2@@std@@@2@V?$allocator@U?$pair@$$CBV?$basic_string@DU?$char_traits@D@std@@V?$allocator@D@2@@std@@V12@@std@@@2@@2@U?$less@V?$basic_string@DU?$char_traits@D@std@@V?$allocator@D@2@@std@@@2@V?$allocator@U?$pair@$$CBV?$basic_string@DU?$char_traits@D@std@@V?$allocator@D@2@@std@@PAV?$multimap@V?$basic_string@DU?$char_traits@D@std@@V?$allocator@D@2@@std@@V12@U?$less@V?$basic_string@DU?$char_traits@D@std@@V?$allocator@D@2@@std@@@2@V?$allocator@U?$pair@$$CBV?$basic_string@DU?$char_traits@D@std@@V?$allocator@D@2@@std@@V12@@std@@@2@@2@@std@@@2@@std@@@Ogre@@QAE?AV?$basic_string@DU?$char_traits@D@std@@V?$allocator@D@2@@std@@XZ 0040cab0 f i CuteCar.obj
 0001:0000baf0       ?begin@?$_Tree@V?$_Tmap_traits@V?$basic_string@DU?$char_traits@D@std@@V?$allocator@D@2@@std@@V12@U?$less@V?$basic_string@DU?$char_traits@D@std@@V?$allocator@D@2@@std@@@2@V?$allocator@U?$pair@$$CBV?$basic_string@DU?$char_traits@D@std@@V?$allocator@D@2@@std@@V12@@std@@@2@$00@std@@@std@@QAE?AViterator@12@XZ 0040caf0 f i CuteCar.obj
 0001:0000bb20       ?end@?$_Tree@V?$_Tmap_traits@V?$basic_string@DU?$char_traits@D@std@@V?$allocator@D@2@@std@@V12@U?$less@V?$basic_string@DU?$char_traits@D@std@@V?$allocator@D@2@@std@@@2@V?$allocator@U?$pair@$$CBV?$basic_string@DU?$char_traits@D@std@@V?$allocator@D@2@@std@@V12@@std@@@2@$00@std@@@std@@QAE?AViterator@12@XZ 0040cb20 f i CuteCar.obj
 0001:0000bb40       ??0iterator@?$_Tree@V?$_Tmap_traits@V?$basic_string@DU?$char_traits@D@std@@V?$allocator@D@2@@std@@V12@U?$less@V?$basic_string@DU?$char_traits@D@std@@V?$allocator@D@2@@std@@@2@V?$allocator@U?$pair@$$CBV?$basic_string@DU?$char_traits@D@std@@V?$allocator@D@2@@std@@V12@@std@@@2@$00@std@@@std@@QAE@XZ 0040cb40 f i CuteCar.obj
 0001:0000bb60       ??Citerator@?$_Tree@V?$_Tmap_traits@V?$basic_string@DU?$char_traits@D@std@@V?$allocator@D@2@@std@@V12@U?$less@V?$basic_string@DU?$char_traits@D@std@@V?$allocator@D@2@@std@@@2@V?$allocator@U?$pair@$$CBV?$basic_string@DU?$char_traits@D@std@@V?$allocator@D@2@@std@@V12@@std@@@2@$00@std@@@std@@QBEPAU?$pair@$$CBV?$basic_string@DU?$char_traits@D@std@@V?$allocator@D@2@@std@@V12@@2@XZ 0040cb60 f i CuteCar.obj
 0001:0000bb80       ??Eiterator@?$_Tree@V?$_Tmap_traits@V?$basic_string@DU?$char_traits@D@std@@V?$allocator@D@2@@std@@V12@U?$less@V?$basic_string@DU?$char_traits@D@std@@V?$allocator@D@2@@std@@@2@V?$allocator@U?$pair@$$CBV?$basic_string@DU?$char_traits@D@std@@V?$allocator@D@2@@std@@V12@@std@@@2@$00@std@@@std@@QAEAAV012@XZ 0040cb80 f i CuteCar.obj
 0001:0000bba0       ??9const_iterator@?$_Tree@V?$_Tmap_traits@V?$basic_string@DU?$char_traits@D@std@@V?$allocator@D@2@@std@@V12@U?$less@V?$basic_string@DU?$char_traits@D@std@@V?$allocator@D@2@@std@@@2@V?$allocator@U?$pair@$$CBV?$basic_string@DU?$char_traits@D@std@@V?$allocator@D@2@@std@@V12@@std@@@2@$00@std@@@std@@QBE_NABV012@@Z 0040cba0 f i CuteCar.obj
 0001:0000bbd0       ??Eiterator@?$vector@W4ItemType@@V?$allocator@W4ItemType@@@std@@@std@@QAE?AV012@H@Z 0040cbd0 f i CuteCar.obj
 0001:0000bc00       ??9const_iterator@?$vector@W4ItemType@@V?$allocator@W4ItemType@@@std@@@std@@QBE_NABV012@@Z 0040cc00 f i CuteCar.obj
 0001:0000bc30       ?assign@?$basic_string@DU?$char_traits@D@std@@V?$allocator@D@2@@std@@QAEAAV12@ABV12@@Z 0040cc30 f i CuteCar.obj
 0001:0000bc60       ?assign@?$basic_string@DU?$char_traits@D@std@@V?$allocator@D@2@@std@@QAEAAV12@ABV12@II@Z 0040cc60 f i CuteCar.obj
 0001:0000bd20       ?copy@?$char_traits@D@std@@SAPADPADPBDI@Z 0040cd20 f i CuteCar.obj
 0001:0000bd50       ?size@?$basic_string@DU?$char_traits@D@std@@V?$allocator@D@2@@std@@QBEIXZ 0040cd50 f i CuteCar.obj
 0001:0000bd70       ?assign@?$basic_string@DU?$char_traits@D@std@@V?$allocator@D@2@@std@@QAEAAV12@PBD@Z 0040cd70 f i CuteCar.obj
 0001:0000bda0       ?length@?$char_traits@D@std@@SAIPBD@Z 0040cda0 f i CuteCar.obj
 0001:0000bde0       ?_Tidy@?$basic_string@DU?$char_traits@D@std@@V?$allocator@D@2@@std@@IAEX_NI@Z 0040cde0 f i CuteCar.obj
 0001:0000be60       ?_Myptr@?$basic_string@DU?$char_traits@D@std@@V?$allocator@D@2@@std@@QBEPBDXZ 0040ce60 f i CuteCar.obj
 0001:0000be90       ??0?$_String_val@DV?$allocator@D@std@@@std@@IAE@V?$allocator@D@1@@Z 0040ce90 f i CuteCar.obj
 0001:0000beb0       ??0?$allocator@D@std@@QAE@XZ 0040ceb0 f i CuteCar.obj
 0001:0000bec0       ??0?$allocator@D@std@@QAE@ABV01@@Z 0040cec0 f i CuteCar.obj
 0001:0000bed0       ?deallocate@?$allocator@D@std@@QAEXPADI@Z 0040ced0 f i CuteCar.obj
 0001:0000bef0       ?begin@?$NxArray@PAVItemPicked@@VNxAllocatorDefault@@@@QAEPAPAVItemPicked@@XZ 0040cef0 f i CuteCar.obj
 0001:0000bf00       ?end@?$NxArray@PAVItemPicked@@VNxAllocatorDefault@@@@QAEPAPAVItemPicked@@XZ 0040cf00 f i CuteCar.obj
 0001:0000bf20       ?destroy@?$NxArray@PAVItemPicked@@VNxAllocatorDefault@@@@AAEXPAPAVItemPicked@@0@Z 0040cf20 f i CuteCar.obj
 0001:0000bf50       ?_Destroy@?$vector@W4ItemType@@V?$allocator@W4ItemType@@@std@@@std@@IAEXPAW4ItemType@@0@Z 0040cf50 f i CuteCar.obj
 0001:0000bf80       ??Citerator@?$_Tree@V?$_Tmap_traits@V?$basic_string@DU?$char_traits@D@std@@V?$allocator@D@2@@std@@PAV?$multimap@V?$basic_string@DU?$char_traits@D@std@@V?$allocator@D@2@@std@@V12@U?$less@V?$basic_string@DU?$char_traits@D@std@@V?$allocator@D@2@@std@@@2@V?$allocator@U?$pair@$$CBV?$basic_string@DU?$char_traits@D@std@@V?$allocator@D@2@@std@@V12@@std@@@2@@2@U?$less@V?$basic_string@DU?$char_traits@D@std@@V?$allocator@D@2@@std@@@2@V?$allocator@U?$pair@$$CBV?$basic_string@DU?$char_traits@D@std@@V?$allocator@D@2@@std@@PAV?$multimap@V?$basic_string@DU?$char_traits@D@std@@V?$allocator@D@2@@std@@V12@U?$less@V?$basic_string@DU?$char_traits@D@std@@V?$allocator@D@2@@std@@@2@V?$allocator@U?$pair@$$CBV?$basic_string@DU?$char_traits@D@std@@V?$allocator@D@2@@std@@V12@@std@@@2@@2@@std@@@2@$0A@@std@@@std@@QBEPAU?$pair@$$CBV?$basic_string@DU?$char_traits@D@std@@V?$allocator@D@2@@std@@PAV?$multimap@V?$basic_string@DU?$char_traits@D@std@@V?$allocator@D@2@@std@@V12@U?$less@V?$basic_string@DU?$char_traits@D@std@@V?$allocator@D@2@@std@@@2@V?$allocator@U?$pair@$$CBV?$basic_string@DU?$char_traits@D@std@@V?$allocator@D@2@@std@@V12@@std@@@2@@2@@2@XZ 0040cf80 f i CuteCar.obj
 0001:0000bfa0       ??Eiterator@?$_Tree@V?$_Tmap_traits@V?$basic_string@DU?$char_traits@D@std@@V?$allocator@D@2@@std@@PAV?$multimap@V?$basic_string@DU?$char_traits@D@std@@V?$allocator@D@2@@std@@V12@U?$less@V?$basic_string@DU?$char_traits@D@std@@V?$allocator@D@2@@std@@@2@V?$allocator@U?$pair@$$CBV?$basic_string@DU?$char_traits@D@std@@V?$allocator@D@2@@std@@V12@@std@@@2@@2@U?$less@V?$basic_string@DU?$char_traits@D@std@@V?$allocator@D@2@@std@@@2@V?$allocator@U?$pair@$$CBV?$basic_string@DU?$char_traits@D@std@@V?$allocator@D@2@@std@@PAV?$multimap@V?$basic_string@DU?$char_traits@D@std@@V?$allocator@D@2@@std@@V12@U?$less@V?$basic_string@DU?$char_traits@D@std@@V?$allocator@D@2@@std@@@2@V?$allocator@U?$pair@$$CBV?$basic_string@DU?$char_traits@D@std@@V?$allocator@D@2@@std@@V12@@std@@@2@@2@@std@@@2@$0A@@std@@@std@@QAE?AV012@H@Z 0040cfa0 f i CuteCar.obj
 0001:0000bfd0       ??9const_iterator@?$_Tree@V?$_Tmap_traits@V?$basic_string@DU?$char_traits@D@std@@V?$allocator@D@2@@std@@PAV?$multimap@V?$basic_string@DU?$char_traits@D@std@@V?$allocator@D@2@@std@@V12@U?$less@V?$basic_string@DU?$char_traits@D@std@@V?$allocator@D@2@@std@@@2@V?$allocator@U?$pair@$$CBV?$basic_string@DU?$char_traits@D@std@@V?$allocator@D@2@@std@@V12@@std@@@2@@2@U?$less@V?$basic_string@DU?$char_traits@D@std@@V?$allocator@D@2@@std@@@2@V?$allocator@U?$pair@$$CBV?$basic_string@DU?$char_traits@D@std@@V?$allocator@D@2@@std@@PAV?$multimap@V?$basic_string@DU?$char_traits@D@std@@V?$allocator@D@2@@std@@V12@U?$less@V?$basic_string@DU?$char_traits@D@std@@V?$allocator@D@2@@std@@@2@V?$allocator@U?$pair@$$CBV?$basic_string@DU?$char_traits@D@std@@V?$allocator@D@2@@std@@V12@@std@@@2@@2@@std@@@2@$0A@@std@@@std@@QBE_NABV012@@Z 0040cfd0 f i CuteCar.obj
 0001:0000c000       ?_Lmost@?$_Tree@V?$_Tmap_traits@V?$basic_string@DU?$char_traits@D@std@@V?$allocator@D@2@@std@@V12@U?$less@V?$basic_string@DU?$char_traits@D@std@@V?$allocator@D@2@@std@@@2@V?$allocator@U?$pair@$$CBV?$basic_string@DU?$char_traits@D@std@@V?$allocator@D@2@@std@@V12@@std@@@2@$00@std@@@std@@IAEAAPAU_Node@?$_Tree_nod@V?$_Tmap_traits@V?$basic_string@DU?$char_traits@D@std@@V?$allocator@D@2@@std@@V12@U?$less@V?$basic_string@DU?$char_traits@D@std@@V?$allocator@D@2@@std@@@2@V?$allocator@U?$pair@$$CBV?$basic_string@DU?$char_traits@D@std@@V?$allocator@D@2@@std@@V12@@std@@@2@$00@std@@@2@XZ 0040d000 f i CuteCar.obj
 0001:0000c020       ??0iterator@?$_Tree@V?$_Tmap_traits@V?$basic_string@DU?$char_traits@D@std@@V?$allocator@D@2@@std@@V12@U?$less@V?$basic_string@DU?$char_traits@D@std@@V?$allocator@D@2@@std@@@2@V?$allocator@U?$pair@$$CBV?$basic_string@DU?$char_traits@D@std@@V?$allocator@D@2@@std@@V12@@std@@@2@$00@std@@@std@@QAE@PAU_Node@?$_Tree_nod@V?$_Tmap_traits@V?$basic_string@DU?$char_traits@D@std@@V?$allocator@D@2@@std@@V12@U?$less@V?$basic_string@DU?$char_traits@D@std@@V?$allocator@D@2@@std@@@2@V?$allocator@U?$pair@$$CBV?$basic_string@DU?$char_traits@D@std@@V?$allocator@D@2@@std@@V12@@std@@@2@$00@std@@@2@@Z 0040d020 f i CuteCar.obj
 0001:0000c040       ??Diterator@?$_Tree@V?$_Tmap_traits@V?$basic_string@DU?$char_traits@D@std@@V?$allocator@D@2@@std@@V12@U?$less@V?$basic_string@DU?$char_traits@D@std@@V?$allocator@D@2@@std@@@2@V?$allocator@U?$pair@$$CBV?$basic_string@DU?$char_traits@D@std@@V?$allocator@D@2@@std@@V12@@std@@@2@$00@std@@@std@@QBEAAU?$pair@$$CBV?$basic_string@DU?$char_traits@D@std@@V?$allocator@D@2@@std@@V12@@2@XZ 0040d040 f i CuteCar.obj
 0001:0000c060       ??0const_iterator@?$_Tree@V?$_Tmap_traits@V?$basic_string@DU?$char_traits@D@std@@V?$allocator@D@2@@std@@V12@U?$less@V?$basic_string@DU?$char_traits@D@std@@V?$allocator@D@2@@std@@@2@V?$allocator@U?$pair@$$CBV?$basic_string@DU?$char_traits@D@std@@V?$allocator@D@2@@std@@V12@@std@@@2@$00@std@@@std@@QAE@XZ 0040d060 f i CuteCar.obj
 0001:0000c080       ??Econst_iterator@?$_Tree@V?$_Tmap_traits@V?$basic_string@DU?$char_traits@D@std@@V?$allocator@D@2@@std@@V12@U?$less@V?$basic_string@DU?$char_traits@D@std@@V?$allocator@D@2@@std@@@2@V?$allocator@U?$pair@$$CBV?$basic_string@DU?$char_traits@D@std@@V?$allocator@D@2@@std@@V12@@std@@@2@$00@std@@@std@@QAEAAV012@XZ 0040d080 f i CuteCar.obj
 0001:0000c0a0       ??8const_iterator@?$_Tree@V?$_Tmap_traits@V?$basic_string@DU?$char_traits@D@std@@V?$allocator@D@2@@std@@V12@U?$less@V?$basic_string@DU?$char_traits@D@std@@V?$allocator@D@2@@std@@@2@V?$allocator@U?$pair@$$CBV?$basic_string@DU?$char_traits@D@std@@V?$allocator@D@2@@std@@V12@@std@@@2@$00@std@@@std@@QBE_NABV012@@Z 0040d0a0 f i CuteCar.obj
 0001:0000c0c0       ??0iterator@?$vector@W4ItemType@@V?$allocator@W4ItemType@@@std@@@std@@QAE@PAW4ItemType@@@Z 0040d0c0 f i CuteCar.obj
 0001:0000c0e0       ??Diterator@?$vector@W4ItemType@@V?$allocator@W4ItemType@@@std@@@std@@QBEAAW4ItemType@@XZ 0040d0e0 f i CuteCar.obj
 0001:0000c100       ??Eiterator@?$vector@W4ItemType@@V?$allocator@W4ItemType@@@std@@@std@@QAEAAV012@XZ 0040d100 f i CuteCar.obj
 0001:0000c120       ??Hiterator@?$vector@W4ItemType@@V?$allocator@W4ItemType@@@std@@@std@@QBE?AV012@H@Z 0040d120 f i CuteCar.obj
 0001:0000c150       ??8const_iterator@?$vector@W4ItemType@@V?$allocator@W4ItemType@@@std@@@std@@QBE_NABV012@@Z 0040d150 f i CuteCar.obj
 0001:0000c170       ?assign@?$basic_string@DU?$char_traits@D@std@@V?$allocator@D@2@@std@@QAEAAV12@PBDI@Z 0040d170 f i CuteCar.obj
 0001:0000c1f0       ?erase@?$basic_string@DU?$char_traits@D@std@@V?$allocator@D@2@@std@@QAEAAV12@II@Z 0040d1f0 f i CuteCar.obj
 0001:0000c280       ?move@?$char_traits@D@std@@SAPADPADPBDI@Z 0040d280 f i CuteCar.obj
 0001:0000c2a0       ?_Eos@?$basic_string@DU?$char_traits@D@std@@V?$allocator@D@2@@std@@IAEXI@Z 0040d2a0 f i CuteCar.obj
 0001:0000c2e0       ?assign@?$char_traits@D@std@@SAXAADABD@Z 0040d2e0 f i CuteCar.obj
 0001:0000c2f0       ?_Grow@?$basic_string@DU?$char_traits@D@std@@V?$allocator@D@2@@std@@IAE_NI_N@Z 0040d2f0 f i CuteCar.obj
 0001:0000c390       ?_Myptr@?$basic_string@DU?$char_traits@D@std@@V?$allocator@D@2@@std@@QAEPADXZ 0040d390 f i CuteCar.obj
 0001:0000c3c0       ??Diterator@?$_Tree@V?$_Tmap_traits@V?$basic_string@DU?$char_traits@D@std@@V?$allocator@D@2@@std@@PAV?$multimap@V?$basic_string@DU?$char_traits@D@std@@V?$allocator@D@2@@std@@V12@U?$less@V?$basic_string@DU?$char_traits@D@std@@V?$allocator@D@2@@std@@@2@V?$allocator@U?$pair@$$CBV?$basic_string@DU?$char_traits@D@std@@V?$allocator@D@2@@std@@V12@@std@@@2@@2@U?$less@V?$basic_string@DU?$char_traits@D@std@@V?$allocator@D@2@@std@@@2@V?$allocator@U?$pair@$$CBV?$basic_string@DU?$char_traits@D@std@@V?$allocator@D@2@@std@@PAV?$multimap@V?$basic_string@DU?$char_traits@D@std@@V?$allocator@D@2@@std@@V12@U?$less@V?$basic_string@DU?$char_traits@D@std@@V?$allocator@D@2@@std@@@2@V?$allocator@U?$pair@$$CBV?$basic_string@DU?$char_traits@D@std@@V?$allocator@D@2@@std@@V12@@std@@@2@@2@@std@@@2@$0A@@std@@@std@@QBEAAU?$pair@$$CBV?$basic_string@DU?$char_traits@D@std@@V?$allocator@D@2@@std@@PAV?$multimap@V?$basic_string@DU?$char_traits@D@std@@V?$allocator@D@2@@std@@V12@U?$less@V?$basic_string@DU?$char_traits@D@std@@V?$allocator@D@2@@std@@@2@V?$allocator@U?$pair@$$CBV?$basic_string@DU?$char_traits@D@std@@V?$allocator@D@2@@std@@V12@@std@@@2@@2@@2@XZ 0040d3c0 f i CuteCar.obj
 0001:0000c3e0       ??Eiterator@?$_Tree@V?$_Tmap_traits@V?$basic_string@DU?$char_traits@D@std@@V?$allocator@D@2@@std@@PAV?$multimap@V?$basic_string@DU?$char_traits@D@std@@V?$allocator@D@2@@std@@V12@U?$less@V?$basic_string@DU?$char_traits@D@std@@V?$allocator@D@2@@std@@@2@V?$allocator@U?$pair@$$CBV?$basic_string@DU?$char_traits@D@std@@V?$allocator@D@2@@std@@V12@@std@@@2@@2@U?$less@V?$basic_string@DU?$char_traits@D@std@@V?$allocator@D@2@@std@@@2@V?$allocator@U?$pair@$$CBV?$basic_string@DU?$char_traits@D@std@@V?$allocator@D@2@@std@@PAV?$multimap@V?$basic_string@DU?$char_traits@D@std@@V?$allocator@D@2@@std@@V12@U?$less@V?$basic_string@DU?$char_traits@D@std@@V?$allocator@D@2@@std@@@2@V?$allocator@U?$pair@$$CBV?$basic_string@DU?$char_traits@D@std@@V?$allocator@D@2@@std@@V12@@std@@@2@@2@@std@@@2@$0A@@std@@@std@@QAEAAV012@XZ 0040d3e0 f i CuteCar.obj
 0001:0000c400       ??8const_iterator@?$_Tree@V?$_Tmap_traits@V?$basic_string@DU?$char_traits@D@std@@V?$allocator@D@2@@std@@PAV?$multimap@V?$basic_string@DU?$char_traits@D@std@@V?$allocator@D@2@@std@@V12@U?$less@V?$basic_string@DU?$char_traits@D@std@@V?$allocator@D@2@@std@@@2@V?$allocator@U?$pair@$$CBV?$basic_string@DU?$char_traits@D@std@@V?$allocator@D@2@@std@@V12@@std@@@2@@2@U?$less@V?$basic_string@DU?$char_traits@D@std@@V?$allocator@D@2@@std@@@2@V?$allocator@U?$pair@$$CBV?$basic_string@DU?$char_traits@D@std@@V?$allocator@D@2@@std@@PAV?$multimap@V?$basic_string@DU?$char_traits@D@std@@V?$allocator@D@2@@std@@V12@U?$less@V?$basic_string@DU?$char_traits@D@std@@V?$allocator@D@2@@std@@@2@V?$allocator@U?$pair@$$CBV?$basic_string@DU?$char_traits@D@std@@V?$allocator@D@2@@std@@V12@@std@@@2@@2@@std@@@2@$0A@@std@@@std@@QBE_NABV012@@Z 0040d400 f i CuteCar.obj
 0001:0000c420       ?_Left@?$_Tree@V?$_Tmap_traits@V?$basic_string@DU?$char_traits@D@std@@V?$allocator@D@2@@std@@V12@U?$less@V?$basic_string@DU?$char_traits@D@std@@V?$allocator@D@2@@std@@@2@V?$allocator@U?$pair@$$CBV?$basic_string@DU?$char_traits@D@std@@V?$allocator@D@2@@std@@V12@@std@@@2@$00@std@@@std@@KAAAPAU_Node@?$_Tree_nod@V?$_Tmap_traits@V?$basic_string@DU?$char_traits@D@std@@V?$allocator@D@2@@std@@V12@U?$less@V?$basic_string@DU?$char_traits@D@std@@V?$allocator@D@2@@std@@@2@V?$allocator@U?$pair@$$CBV?$basic_string@DU?$char_traits@D@std@@V?$allocator@D@2@@std@@V12@@std@@@2@$00@std@@@2@PAU342@@Z 0040d420 f i CuteCar.obj
 0001:0000c430       ??0const_iterator@?$_Tree@V?$_Tmap_traits@V?$basic_string@DU?$char_traits@D@std@@V?$allocator@D@2@@std@@V12@U?$less@V?$basic_string@DU?$char_traits@D@std@@V?$allocator@D@2@@std@@@2@V?$allocator@U?$pair@$$CBV?$basic_string@DU?$char_traits@D@std@@V?$allocator@D@2@@std@@V12@@std@@@2@$00@std@@@std@@QAE@PAU_Node@?$_Tree_nod@V?$_Tmap_traits@V?$basic_string@DU?$char_traits@D@std@@V?$allocator@D@2@@std@@V12@U?$less@V?$basic_string@DU?$char_traits@D@std@@V?$allocator@D@2@@std@@@2@V?$allocator@U?$pair@$$CBV?$basic_string@DU?$char_traits@D@std@@V?$allocator@D@2@@std@@V12@@std@@@2@$00@std@@@2@@Z 0040d430 f i CuteCar.obj
 0001:0000c450       ??Dconst_iterator@?$_Tree@V?$_Tmap_traits@V?$basic_string@DU?$char_traits@D@std@@V?$allocator@D@2@@std@@V12@U?$less@V?$basic_string@DU?$char_traits@D@std@@V?$allocator@D@2@@std@@@2@V?$allocator@U?$pair@$$CBV?$basic_string@DU?$char_traits@D@std@@V?$allocator@D@2@@std@@V12@@std@@@2@$00@std@@@std@@QBEABU?$pair@$$CBV?$basic_string@DU?$char_traits@D@std@@V?$allocator@D@2@@std@@V12@@2@XZ 0040d450 f i CuteCar.obj
 0001:0000c470       ?_Inc@const_iterator@?$_Tree@V?$_Tmap_traits@V?$basic_string@DU?$char_traits@D@std@@V?$allocator@D@2@@std@@V12@U?$less@V?$basic_string@DU?$char_traits@D@std@@V?$allocator@D@2@@std@@@2@V?$allocator@U?$pair@$$CBV?$basic_string@DU?$char_traits@D@std@@V?$allocator@D@2@@std@@V12@@std@@@2@$00@std@@@std@@QAEXXZ 0040d470 f i CuteCar.obj
 0001:0000c530       ??Yiterator@?$vector@W4ItemType@@V?$allocator@W4ItemType@@@std@@@std@@QAEAAV012@H@Z 0040d530 f i CuteCar.obj
 0001:0000c550       ??0const_iterator@?$vector@W4ItemType@@V?$allocator@W4ItemType@@@std@@@std@@QAE@PAW4ItemType@@@Z 0040d550 f i CuteCar.obj
 0001:0000c570       ??Dconst_iterator@?$vector@W4ItemType@@V?$allocator@W4ItemType@@@std@@@std@@QBEABW4ItemType@@XZ 0040d570 f i CuteCar.obj
 0001:0000c580       ?max_size@?$basic_string@DU?$char_traits@D@std@@V?$allocator@D@2@@std@@QBEIXZ 0040d580 f i CuteCar.obj
 0001:0000c5c0       ?_Copy@?$basic_string@DU?$char_traits@D@std@@V?$allocator@D@2@@std@@IAEXII@Z 0040d5c0 f i CuteCar.obj
 0001:0000c720       ?allocate@?$allocator@D@std@@QAEPADI@Z 0040d720 f i CuteCar.obj
 0001:0000c740       ?_Inside@?$basic_string@DU?$char_traits@D@std@@V?$allocator@D@2@@std@@IAE_NPBD@Z 0040d740 f i CuteCar.obj
 0001:0000c780       ??Dconst_iterator@?$_Tree@V?$_Tmap_traits@V?$basic_string@DU?$char_traits@D@std@@V?$allocator@D@2@@std@@PAV?$multimap@V?$basic_string@DU?$char_traits@D@std@@V?$allocator@D@2@@std@@V12@U?$less@V?$basic_string@DU?$char_traits@D@std@@V?$allocator@D@2@@std@@@2@V?$allocator@U?$pair@$$CBV?$basic_string@DU?$char_traits@D@std@@V?$allocator@D@2@@std@@V12@@std@@@2@@2@U?$less@V?$basic_string@DU?$char_traits@D@std@@V?$allocator@D@2@@std@@@2@V?$allocator@U?$pair@$$CBV?$basic_string@DU?$char_traits@D@std@@V?$allocator@D@2@@std@@PAV?$multimap@V?$basic_string@DU?$char_traits@D@std@@V?$allocator@D@2@@std@@V12@U?$less@V?$basic_string@DU?$char_traits@D@std@@V?$allocator@D@2@@std@@@2@V?$allocator@U?$pair@$$CBV?$basic_string@DU?$char_traits@D@std@@V?$allocator@D@2@@std@@V12@@std@@@2@@2@@std@@@2@$0A@@std@@@std@@QBEABU?$pair@$$CBV?$basic_string@DU?$char_traits@D@std@@V?$allocator@D@2@@std@@PAV?$multimap@V?$basic_string@DU?$char_traits@D@std@@V?$allocator@D@2@@std@@V12@U?$less@V?$basic_string@DU?$char_traits@D@std@@V?$allocator@D@2@@std@@@2@V?$allocator@U?$pair@$$CBV?$basic_string@DU?$char_traits@D@std@@V?$allocator@D@2@@std@@V12@@std@@@2@@2@@2@XZ 0040d780 f i CuteCar.obj
 0001:0000c7a0       ??Econst_iterator@?$_Tree@V?$_Tmap_traits@V?$basic_string@DU?$char_traits@D@std@@V?$allocator@D@2@@std@@PAV?$multimap@V?$basic_string@DU?$char_traits@D@std@@V?$allocator@D@2@@std@@V12@U?$less@V?$basic_string@DU?$char_traits@D@std@@V?$allocator@D@2@@std@@@2@V?$allocator@U?$pair@$$CBV?$basic_string@DU?$char_traits@D@std@@V?$allocator@D@2@@std@@V12@@std@@@2@@2@U?$less@V?$basic_string@DU?$char_traits@D@std@@V?$allocator@D@2@@std@@@2@V?$allocator@U?$pair@$$CBV?$basic_string@DU?$char_traits@D@std@@V?$allocator@D@2@@std@@PAV?$multimap@V?$basic_string@DU?$char_traits@D@std@@V?$allocator@D@2@@std@@V12@U?$less@V?$basic_string@DU?$char_traits@D@std@@V?$allocator@D@2@@std@@@2@V?$allocator@U?$pair@$$CBV?$basic_string@DU?$char_traits@D@std@@V?$allocator@D@2@@std@@V12@@std@@@2@@2@@std@@@2@$0A@@std@@@std@@QAEAAV012@XZ 0040d7a0 f i CuteCar.obj
 0001:0000c7c0       ?_Isnil@?$_Tree@V?$_Tmap_traits@V?$basic_string@DU?$char_traits@D@std@@V?$allocator@D@2@@std@@V12@U?$less@V?$basic_string@DU?$char_traits@D@std@@V?$allocator@D@2@@std@@@2@V?$allocator@U?$pair@$$CBV?$basic_string@DU?$char_traits@D@std@@V?$allocator@D@2@@std@@V12@@std@@@2@$00@std@@@std@@KAAADPAU_Node@?$_Tree_nod@V?$_Tmap_traits@V?$basic_string@DU?$char_traits@D@std@@V?$allocator@D@2@@std@@V12@U?$less@V?$basic_string@DU?$char_traits@D@std@@V?$allocator@D@2@@std@@@2@V?$allocator@U?$pair@$$CBV?$basic_string@DU?$char_traits@D@std@@V?$allocator@D@2@@std@@V12@@std@@@2@$00@std@@@2@@Z 0040d7c0 f i CuteCar.obj
 0001:0000c7d0       ?_Parent@?$_Tree@V?$_Tmap_traits@V?$basic_string@DU?$char_traits@D@std@@V?$allocator@D@2@@std@@V12@U?$less@V?$basic_string@DU?$char_traits@D@std@@V?$allocator@D@2@@std@@@2@V?$allocator@U?$pair@$$CBV?$basic_string@DU?$char_traits@D@std@@V?$allocator@D@2@@std@@V12@@std@@@2@$00@std@@@std@@KAAAPAU_Node@?$_Tree_nod@V?$_Tmap_traits@V?$basic_string@DU?$char_traits@D@std@@V?$allocator@D@2@@std@@V12@U?$less@V?$basic_string@DU?$char_traits@D@std@@V?$allocator@D@2@@std@@@2@V?$allocator@U?$pair@$$CBV?$basic_string@DU?$char_traits@D@std@@V?$allocator@D@2@@std@@V12@@std@@@2@$00@std@@@2@PAU342@@Z 0040d7d0 f i CuteCar.obj
 0001:0000c7e0       ?_Right@?$_Tree@V?$_Tmap_traits@V?$basic_string@DU?$char_traits@D@std@@V?$allocator@D@2@@std@@V12@U?$less@V?$basic_string@DU?$char_traits@D@std@@V?$allocator@D@2@@std@@@2@V?$allocator@U?$pair@$$CBV?$basic_string@DU?$char_traits@D@std@@V?$allocator@D@2@@std@@V12@@std@@@2@$00@std@@@std@@KAAAPAU_Node@?$_Tree_nod@V?$_Tmap_traits@V?$basic_string@DU?$char_traits@D@std@@V?$allocator@D@2@@std@@V12@U?$less@V?$basic_string@DU?$char_traits@D@std@@V?$allocator@D@2@@std@@@2@V?$allocator@U?$pair@$$CBV?$basic_string@DU?$char_traits@D@std@@V?$allocator@D@2@@std@@V12@@std@@@2@$00@std@@@2@PAU342@@Z 0040d7e0 f i CuteCar.obj
 0001:0000c7f0       ?_Myval@?$_Tree@V?$_Tmap_traits@V?$basic_string@DU?$char_traits@D@std@@V?$allocator@D@2@@std@@V12@U?$less@V?$basic_string@DU?$char_traits@D@std@@V?$allocator@D@2@@std@@@2@V?$allocator@U?$pair@$$CBV?$basic_string@DU?$char_traits@D@std@@V?$allocator@D@2@@std@@V12@@std@@@2@$00@std@@@std@@KAAAU?$pair@$$CBV?$basic_string@DU?$char_traits@D@std@@V?$allocator@D@2@@std@@V12@@2@PAU_Node@?$_Tree_nod@V?$_Tmap_traits@V?$basic_string@DU?$char_traits@D@std@@V?$allocator@D@2@@std@@V12@U?$less@V?$basic_string@DU?$char_traits@D@std@@V?$allocator@D@2@@std@@@2@V?$allocator@U?$pair@$$CBV?$basic_string@DU?$char_traits@D@std@@V?$allocator@D@2@@std@@V12@@std@@@2@$00@std@@@2@@Z 0040d7f0 f i CuteCar.obj
 0001:0000c800       ?_Min@?$_Tree@V?$_Tmap_traits@V?$basic_string@DU?$char_traits@D@std@@V?$allocator@D@2@@std@@V12@U?$less@V?$basic_string@DU?$char_traits@D@std@@V?$allocator@D@2@@std@@@2@V?$allocator@U?$pair@$$CBV?$basic_string@DU?$char_traits@D@std@@V?$allocator@D@2@@std@@V12@@std@@@2@$00@std@@@std@@KAPAU_Node@?$_Tree_nod@V?$_Tmap_traits@V?$basic_string@DU?$char_traits@D@std@@V?$allocator@D@2@@std@@V12@U?$less@V?$basic_string@DU?$char_traits@D@std@@V?$allocator@D@2@@std@@@2@V?$allocator@U?$pair@$$CBV?$basic_string@DU?$char_traits@D@std@@V?$allocator@D@2@@std@@V12@@std@@@2@$00@std@@@2@PAU342@@Z 0040d800 f i CuteCar.obj
 0001:0000c840       ?max_size@?$allocator@D@std@@QBEIXZ 0040d840 f i CuteCar.obj
 0001:0000c870       ?_Myval@?$_Tree@V?$_Tmap_traits@V?$basic_string@DU?$char_traits@D@std@@V?$allocator@D@2@@std@@PAV?$multimap@V?$basic_string@DU?$char_traits@D@std@@V?$allocator@D@2@@std@@V12@U?$less@V?$basic_string@DU?$char_traits@D@std@@V?$allocator@D@2@@std@@@2@V?$allocator@U?$pair@$$CBV?$basic_string@DU?$char_traits@D@std@@V?$allocator@D@2@@std@@V12@@std@@@2@@2@U?$less@V?$basic_string@DU?$char_traits@D@std@@V?$allocator@D@2@@std@@@2@V?$allocator@U?$pair@$$CBV?$basic_string@DU?$char_traits@D@std@@V?$allocator@D@2@@std@@PAV?$multimap@V?$basic_string@DU?$char_traits@D@std@@V?$allocator@D@2@@std@@V12@U?$less@V?$basic_string@DU?$char_traits@D@std@@V?$allocator@D@2@@std@@@2@V?$allocator@U?$pair@$$CBV?$basic_string@DU?$char_traits@D@std@@V?$allocator@D@2@@std@@V12@@std@@@2@@2@@std@@@2@$0A@@std@@@std@@KAAAU?$pair@$$CBV?$basic_string@DU?$char_traits@D@std@@V?$allocator@D@2@@std@@PAV?$multimap@V?$basic_string@DU?$char_traits@D@std@@V?$allocator@D@2@@std@@V12@U?$less@V?$basic_string@DU?$char_traits@D@std@@V?$allocator@D@2@@std@@@2@V?$allocator@U?$pair@$$CBV?$basic_string@DU?$char_traits@D@std@@V?$allocator@D@2@@std@@V12@@std@@@2@@2@@2@PAU_Node@?$_Tree_nod@V?$_Tmap_traits@V?$basic_string@DU?$char_traits@D@std@@V?$allocator@D@2@@std@@PAV?$multimap@V?$basic_string@DU?$char_traits@D@std@@V?$allocator@D@2@@std@@V12@U?$less@V?$basic_string@DU?$char_traits@D@std@@V?$allocator@D@2@@std@@@2@V?$allocator@U?$pair@$$CBV?$basic_string@DU?$char_traits@D@std@@V?$allocator@D@2@@std@@V12@@std@@@2@@2@U?$less@V?$basic_string@DU?$char_traits@D@std@@V?$allocator@D@2@@std@@@2@V?$allocator@U?$pair@$$CBV?$basic_string@DU?$char_traits@D@std@@V?$allocator@D@2@@std@@PAV?$multimap@V?$basic_string@DU?$char_traits@D@std@@V?$allocator@D@2@@std@@V12@U?$less@V?$basic_string@DU?$char_traits@D@std@@V?$allocator@D@2@@std@@@2@V?$allocator@U?$pair@$$CBV?$basic_string@DU?$char_traits@D@std@@V?$allocator@D@2@@std@@V12@@std@@@2@@2@@std@@@2@$0A@@std@@@2@@Z 0040d870 f i CuteCar.obj
 0001:0000c880       ?_Inc@const_iterator@?$_Tree@V?$_Tmap_traits@V?$basic_string@DU?$char_traits@D@std@@V?$allocator@D@2@@std@@PAV?$multimap@V?$basic_string@DU?$char_traits@D@std@@V?$allocator@D@2@@std@@V12@U?$less@V?$basic_string@DU?$char_traits@D@std@@V?$allocator@D@2@@std@@@2@V?$allocator@U?$pair@$$CBV?$basic_string@DU?$char_traits@D@std@@V?$allocator@D@2@@std@@V12@@std@@@2@@2@U?$less@V?$basic_string@DU?$char_traits@D@std@@V?$allocator@D@2@@std@@@2@V?$allocator@U?$pair@$$CBV?$basic_string@DU?$char_traits@D@std@@V?$allocator@D@2@@std@@PAV?$multimap@V?$basic_string@DU?$char_traits@D@std@@V?$allocator@D@2@@std@@V12@U?$less@V?$basic_string@DU?$char_traits@D@std@@V?$allocator@D@2@@std@@@2@V?$allocator@U?$pair@$$CBV?$basic_string@DU?$char_traits@D@std@@V?$allocator@D@2@@std@@V12@@std@@@2@@2@@std@@@2@$0A@@std@@@std@@QAEXXZ 0040d880 f i CuteCar.obj
 0001:0000c940       ?_Isnil@?$_Tree@V?$_Tmap_traits@V?$basic_string@DU?$char_traits@D@std@@V?$allocator@D@2@@std@@PAV?$multimap@V?$basic_string@DU?$char_traits@D@std@@V?$allocator@D@2@@std@@V12@U?$less@V?$basic_string@DU?$char_traits@D@std@@V?$allocator@D@2@@std@@@2@V?$allocator@U?$pair@$$CBV?$basic_string@DU?$char_traits@D@std@@V?$allocator@D@2@@std@@V12@@std@@@2@@2@U?$less@V?$basic_string@DU?$char_traits@D@std@@V?$allocator@D@2@@std@@@2@V?$allocator@U?$pair@$$CBV?$basic_string@DU?$char_traits@D@std@@V?$allocator@D@2@@std@@PAV?$multimap@V?$basic_string@DU?$char_traits@D@std@@V?$allocator@D@2@@std@@V12@U?$less@V?$basic_string@DU?$char_traits@D@std@@V?$allocator@D@2@@std@@@2@V?$allocator@U?$pair@$$CBV?$basic_string@DU?$char_traits@D@std@@V?$allocator@D@2@@std@@V12@@std@@@2@@2@@std@@@2@$0A@@std@@@std@@KAAADPAU_Node@?$_Tree_nod@V?$_Tmap_traits@V?$basic_string@DU?$char_traits@D@std@@V?$allocator@D@2@@std@@PAV?$multimap@V?$basic_string@DU?$char_traits@D@std@@V?$allocator@D@2@@std@@V12@U?$less@V?$basic_string@DU?$char_traits@D@std@@V?$allocator@D@2@@std@@@2@V?$allocator@U?$pair@$$CBV?$basic_string@DU?$char_traits@D@std@@V?$allocator@D@2@@std@@V12@@std@@@2@@2@U?$less@V?$basic_string@DU?$char_traits@D@std@@V?$allocator@D@2@@std@@@2@V?$allocator@U?$pair@$$CBV?$basic_string@DU?$char_traits@D@std@@V?$allocator@D@2@@std@@PAV?$multimap@V?$basic_string@DU?$char_traits@D@std@@V?$allocator@D@2@@std@@V12@U?$less@V?$basic_string@DU?$char_traits@D@std@@V?$allocator@D@2@@std@@@2@V?$allocator@U?$pair@$$CBV?$basic_string@DU?$char_traits@D@std@@V?$allocator@D@2@@std@@V12@@std@@@2@@2@@std@@@2@$0A@@std@@@2@@Z 0040d940 f i CuteCar.obj
 0001:0000c950       ?_Parent@?$_Tree@V?$_Tmap_traits@V?$basic_string@DU?$char_traits@D@std@@V?$allocator@D@2@@std@@PAV?$multimap@V?$basic_string@DU?$char_traits@D@std@@V?$allocator@D@2@@std@@V12@U?$less@V?$basic_string@DU?$char_traits@D@std@@V?$allocator@D@2@@std@@@2@V?$allocator@U?$pair@$$CBV?$basic_string@DU?$char_traits@D@std@@V?$allocator@D@2@@std@@V12@@std@@@2@@2@U?$less@V?$basic_string@DU?$char_traits@D@std@@V?$allocator@D@2@@std@@@2@V?$allocator@U?$pair@$$CBV?$basic_string@DU?$char_traits@D@std@@V?$allocator@D@2@@std@@PAV?$multimap@V?$basic_string@DU?$char_traits@D@std@@V?$allocator@D@2@@std@@V12@U?$less@V?$basic_string@DU?$char_traits@D@std@@V?$allocator@D@2@@std@@@2@V?$allocator@U?$pair@$$CBV?$basic_string@DU?$char_traits@D@std@@V?$allocator@D@2@@std@@V12@@std@@@2@@2@@std@@@2@$0A@@std@@@std@@KAAAPAU_Node@?$_Tree_nod@V?$_Tmap_traits@V?$basic_string@DU?$char_traits@D@std@@V?$allocator@D@2@@std@@PAV?$multimap@V?$basic_string@DU?$char_traits@D@std@@V?$allocator@D@2@@std@@V12@U?$less@V?$basic_string@DU?$char_traits@D@std@@V?$allocator@D@2@@std@@@2@V?$allocator@U?$pair@$$CBV?$basic_string@DU?$char_traits@D@std@@V?$allocator@D@2@@std@@V12@@std@@@2@@2@U?$less@V?$basic_string@DU?$char_traits@D@std@@V?$allocator@D@2@@std@@@2@V?$allocator@U?$pair@$$CBV?$basic_string@DU?$char_traits@D@std@@V?$allocator@D@2@@std@@PAV?$multimap@V?$basic_string@DU?$char_traits@D@std@@V?$allocator@D@2@@std@@V12@U?$less@V?$basic_string@DU?$char_traits@D@std@@V?$allocator@D@2@@std@@@2@V?$allocator@U?$pair@$$CBV?$basic_string@DU?$char_traits@D@std@@V?$allocator@D@2@@std@@V12@@std@@@2@@2@@std@@@2@$0A@@std@@@2@PAU342@@Z 0040d950 f i CuteCar.obj
 0001:0000c960       ?_Right@?$_Tree@V?$_Tmap_traits@V?$basic_string@DU?$char_traits@D@std@@V?$allocator@D@2@@std@@PAV?$multimap@V?$basic_string@DU?$char_traits@D@std@@V?$allocator@D@2@@std@@V12@U?$less@V?$basic_string@DU?$char_traits@D@std@@V?$allocator@D@2@@std@@@2@V?$allocator@U?$pair@$$CBV?$basic_string@DU?$char_traits@D@std@@V?$allocator@D@2@@std@@V12@@std@@@2@@2@U?$less@V?$basic_string@DU?$char_traits@D@std@@V?$allocator@D@2@@std@@@2@V?$allocator@U?$pair@$$CBV?$basic_string@DU?$char_traits@D@std@@V?$allocator@D@2@@std@@PAV?$multimap@V?$basic_string@DU?$char_traits@D@std@@V?$allocator@D@2@@std@@V12@U?$less@V?$basic_string@DU?$char_traits@D@std@@V?$allocator@D@2@@std@@@2@V?$allocator@U?$pair@$$CBV?$basic_string@DU?$char_traits@D@std@@V?$allocator@D@2@@std@@V12@@std@@@2@@2@@std@@@2@$0A@@std@@@std@@KAAAPAU_Node@?$_Tree_nod@V?$_Tmap_traits@V?$basic_string@DU?$char_traits@D@std@@V?$allocator@D@2@@std@@PAV?$multimap@V?$basic_string@DU?$char_traits@D@std@@V?$allocator@D@2@@std@@V12@U?$less@V?$basic_string@DU?$char_traits@D@std@@V?$allocator@D@2@@std@@@2@V?$allocator@U?$pair@$$CBV?$basic_string@DU?$char_traits@D@std@@V?$allocator@D@2@@std@@V12@@std@@@2@@2@U?$less@V?$basic_string@DU?$char_traits@D@std@@V?$allocator@D@2@@std@@@2@V?$allocator@U?$pair@$$CBV?$basic_string@DU?$char_traits@D@std@@V?$allocator@D@2@@std@@PAV?$multimap@V?$basic_string@DU?$char_traits@D@std@@V?$allocator@D@2@@std@@V12@U?$less@V?$basic_string@DU?$char_traits@D@std@@V?$allocator@D@2@@std@@@2@V?$allocator@U?$pair@$$CBV?$basic_string@DU?$char_traits@D@std@@V?$allocator@D@2@@std@@V12@@std@@@2@@2@@std@@@2@$0A@@std@@@2@PAU342@@Z 0040d960 f i CuteCar.obj
 0001:0000c970       ?_Min@?$_Tree@V?$_Tmap_traits@V?$basic_string@DU?$char_traits@D@std@@V?$allocator@D@2@@std@@PAV?$multimap@V?$basic_string@DU?$char_traits@D@std@@V?$allocator@D@2@@std@@V12@U?$less@V?$basic_string@DU?$char_traits@D@std@@V?$allocator@D@2@@std@@@2@V?$allocator@U?$pair@$$CBV?$basic_string@DU?$char_traits@D@std@@V?$allocator@D@2@@std@@V12@@std@@@2@@2@U?$less@V?$basic_string@DU?$char_traits@D@std@@V?$allocator@D@2@@std@@@2@V?$allocator@U?$pair@$$CBV?$basic_string@DU?$char_traits@D@std@@V?$allocator@D@2@@std@@PAV?$multimap@V?$basic_string@DU?$char_traits@D@std@@V?$allocator@D@2@@std@@V12@U?$less@V?$basic_string@DU?$char_traits@D@std@@V?$allocator@D@2@@std@@@2@V?$allocator@U?$pair@$$CBV?$basic_string@DU?$char_traits@D@std@@V?$allocator@D@2@@std@@V12@@std@@@2@@2@@std@@@2@$0A@@std@@@std@@KAPAU_Node@?$_Tree_nod@V?$_Tmap_traits@V?$basic_string@DU?$char_traits@D@std@@V?$allocator@D@2@@std@@PAV?$multimap@V?$basic_string@DU?$char_traits@D@std@@V?$allocator@D@2@@std@@V12@U?$less@V?$basic_string@DU?$char_traits@D@std@@V?$allocator@D@2@@std@@@2@V?$allocator@U?$pair@$$CBV?$basic_string@DU?$char_traits@D@std@@V?$allocator@D@2@@std@@V12@@std@@@2@@2@U?$less@V?$basic_string@DU?$char_traits@D@std@@V?$allocator@D@2@@std@@@2@V?$allocator@U?$pair@$$CBV?$basic_string@DU?$char_traits@D@std@@V?$allocator@D@2@@std@@PAV?$multimap@V?$basic_string@DU?$char_traits@D@std@@V?$allocator@D@2@@std@@V12@U?$less@V?$basic_string@DU?$char_traits@D@std@@V?$allocator@D@2@@std@@@2@V?$allocator@U?$pair@$$CBV?$basic_string@DU?$char_traits@D@std@@V?$allocator@D@2@@std@@V12@@std@@@2@@2@@std@@@2@$0A@@std@@@2@PAU342@@Z 0040d970 f i CuteCar.obj
 0001:0000c9b0       ?_Left@?$_Tree@V?$_Tmap_traits@V?$basic_string@DU?$char_traits@D@std@@V?$allocator@D@2@@std@@PAV?$multimap@V?$basic_string@DU?$char_traits@D@std@@V?$allocator@D@2@@std@@V12@U?$less@V?$basic_string@DU?$char_traits@D@std@@V?$allocator@D@2@@std@@@2@V?$allocator@U?$pair@$$CBV?$basic_string@DU?$char_traits@D@std@@V?$allocator@D@2@@std@@V12@@std@@@2@@2@U?$less@V?$basic_string@DU?$char_traits@D@std@@V?$allocator@D@2@@std@@@2@V?$allocator@U?$pair@$$CBV?$basic_string@DU?$char_traits@D@std@@V?$allocator@D@2@@std@@PAV?$multimap@V?$basic_string@DU?$char_traits@D@std@@V?$allocator@D@2@@std@@V12@U?$less@V?$basic_string@DU?$char_traits@D@std@@V?$allocator@D@2@@std@@@2@V?$allocator@U?$pair@$$CBV?$basic_string@DU?$char_traits@D@std@@V?$allocator@D@2@@std@@V12@@std@@@2@@2@@std@@@2@$0A@@std@@@std@@KAAAPAU_Node@?$_Tree_nod@V?$_Tmap_traits@V?$basic_string@DU?$char_traits@D@std@@V?$allocator@D@2@@std@@PAV?$multimap@V?$basic_string@DU?$char_traits@D@std@@V?$allocator@D@2@@std@@V12@U?$less@V?$basic_string@DU?$char_traits@D@std@@V?$allocator@D@2@@std@@@2@V?$allocator@U?$pair@$$CBV?$basic_string@DU?$char_traits@D@std@@V?$allocator@D@2@@std@@V12@@std@@@2@@2@U?$less@V?$basic_string@DU?$char_traits@D@std@@V?$allocator@D@2@@std@@@2@V?$allocator@U?$pair@$$CBV?$basic_string@DU?$char_traits@D@std@@V?$allocator@D@2@@std@@PAV?$multimap@V?$basic_string@DU?$char_traits@D@std@@V?$allocator@D@2@@std@@V12@U?$less@V?$basic_string@DU?$char_traits@D@std@@V?$allocator@D@2@@std@@@2@V?$allocator@U?$pair@$$CBV?$basic_string@DU?$char_traits@D@std@@V?$allocator@D@2@@std@@V12@@std@@@2@@2@@std@@@2@$0A@@std@@@2@PAU342@@Z 0040d9b0 f i CuteCar.obj
 0001:0000c9c0       ??$?HDU?$char_traits@D@std@@V?$allocator@D@1@@std@@YA?AV?$basic_string@DU?$char_traits@D@std@@V?$allocator@D@2@@0@PBDABV10@@Z 0040d9c0 f i CuteCar.obj
 0001:0000ca40       ??Y?$basic_string@DU?$char_traits@D@std@@V?$allocator@D@2@@std@@QAEAAV01@ABV01@@Z 0040da40 f i CuteCar.obj
 0001:0000ca60       ?append@?$basic_string@DU?$char_traits@D@std@@V?$allocator@D@2@@std@@QAEAAV12@ABV12@@Z 0040da60 f i CuteCar.obj
 0001:0000ca90       ?append@?$basic_string@DU?$char_traits@D@std@@V?$allocator@D@2@@std@@QAEAAV12@ABV12@II@Z 0040da90 f i CuteCar.obj
 0001:0000cb50       ??$?HDU?$char_traits@D@std@@V?$allocator@D@1@@std@@YA?AV?$basic_string@DU?$char_traits@D@std@@V?$allocator@D@2@@0@ABV10@PBD@Z 0040db50 f i CuteCar.obj
 0001:0000cbd0       ??Y?$basic_string@DU?$char_traits@D@std@@V?$allocator@D@2@@std@@QAEAAV01@PBD@Z 0040dbd0 f i CuteCar.obj
 0001:0000cbf0       ?append@?$basic_string@DU?$char_traits@D@std@@V?$allocator@D@2@@std@@QAEAAV12@PBD@Z 0040dbf0 f i CuteCar.obj
 0001:0000cc20       ?append@?$basic_string@DU?$char_traits@D@std@@V?$allocator@D@2@@std@@QAEAAV12@PBDI@Z 0040dc20 f i CuteCar.obj
 0001:0000ccd0       ??$?HDU?$char_traits@D@std@@V?$allocator@D@1@@std@@YA?AV?$basic_string@DU?$char_traits@D@std@@V?$allocator@D@2@@0@ABV10@0@Z 0040dcd0 f i CuteCar.obj
 0001:0000cd50       ??$?0VCuteCarFrameListener@@@?$SubscriberTemplate@_NABVEventArgs@CEGUI@@@CEGUI@@QAE@P8CuteCarFrameListener@@AE_NABVEventArgs@1@@ZPAV2@@Z 0040dd50 f i CuteCar.obj
 0001:0000cdd0       ??$copy@PAW4ItemType@@PAW41@@std@@YAPAW4ItemType@@PAW41@00@Z 0040ddd0 f i CuteCar.obj
 0001:0000ce10       ??$_Allocate@D@std@@YAPADIPAD@Z 0040de10 f i CuteCar.obj
 0001:0000ce30       ??$_Destroy_range@W4ItemType@@V?$allocator@W4ItemType@@@std@@@std@@YAXPAW4ItemType@@0AAV?$allocator@W4ItemType@@@0@@Z 0040de30 f i CuteCar.obj
 0001:0000ce70       ??0?$_memberBinder@VCuteCarFrameListener@@_NABVEventArgs@CEGUI@@@CEGUI@@QAE@P8CuteCarFrameListener@@AE_NABVEventArgs@1@@ZPAV2@@Z 0040de70 f i CuteCar.obj
 0001:0000ceb0       ??R?$_memberBinder@VCuteCarFrameListener@@_NABVEventArgs@CEGUI@@@CEGUI@@UBE_NABVEventArgs@1@@Z 0040deb0 f i CuteCar.obj
 0001:0000cee0       ??_E?$_memberBinder@VCuteCarFrameListener@@_NABVEventArgs@CEGUI@@@CEGUI@@UAEPAXI@Z 0040dee0 f i CuteCar.obj
 0001:0000cee0       ??_G?$_memberBinder@VCuteCarFrameListener@@_NABVEventArgs@CEGUI@@@CEGUI@@UAEPAXI@Z 0040dee0 f i CuteCar.obj
 0001:0000cf10       ??0?$SubscriberInterface@_NABVEventArgs@CEGUI@@@CEGUI@@QAE@XZ 0040df10 f i CuteCar.obj
 0001:0000cf30       ??_G?$SubscriberInterface@_NABVEventArgs@CEGUI@@@CEGUI@@UAEPAXI@Z 0040df30 f i CuteCar.obj
 0001:0000cf30       ??_E?$SubscriberInterface@_NABVEventArgs@CEGUI@@@CEGUI@@UAEPAXI@Z 0040df30 f i CuteCar.obj
 0001:0000cf60       ??1?$SubscriberInterface@_NABVEventArgs@CEGUI@@@CEGUI@@UAE@XZ 0040df60 f i CuteCar.obj
 0001:0000cf80       ??1?$_memberBinder@VCuteCarFrameListener@@_NABVEventArgs@CEGUI@@@CEGUI@@UAE@XZ 0040df80 f i CuteCar.obj
 0001:0000cfa0       ??$_Ptr_cat@PAW4ItemType@@PAW41@@std@@YA?AU_Nonscalar_ptr_iterator_tag@0@AAPAW4ItemType@@0@Z 0040dfa0 f i CuteCar.obj
 0001:0000cfb0       ??$_Copy_opt@PAW4ItemType@@PAW41@@std@@YAPAW4ItemType@@PAW41@00U_Nonscalar_ptr_iterator_tag@0@@Z 0040dfb0 f i CuteCar.obj
 0001:0000cfe0       ??$_Destroy_range@W4ItemType@@V?$allocator@W4ItemType@@@std@@@std@@YAXPAW4ItemType@@0AAV?$allocator@W4ItemType@@@0@U_Nonscalar_ptr_iterator_tag@0@@Z 0040dfe0 f i CuteCar.obj
 0001:0000d010       ?destroy@?$allocator@W4ItemType@@@std@@QAEXPAW4ItemType@@@Z 0040e010 f i CuteCar.obj
 0001:0000d030       ??$_Destroy@W4ItemType@@@std@@YAXPAW4ItemType@@@Z 0040e030 f i CuteCar.obj
 0001:0000d040       ??_EEventProcessor@Ogre@@W3AEPAXI@Z 0040e040 f i CuteCar.obj
 0001:0000d050       ?processEvent@EventProcessor@Ogre@@WCA@AEXPAVInputEvent@2@@Z 0040e050 f i CuteCar.obj
 0001:0000d060       ??_EEventProcessor@Ogre@@WCE@AEPAXI@Z 0040e060 f i CuteCar.obj
 0001:0000d070       ?getLeft@EventProcessor@Ogre@@WCA@BEMXZ 0040e070 f i CuteCar.obj
 0001:0000d080       ?getTop@EventProcessor@Ogre@@WCA@BEMXZ 0040e080 f i CuteCar.obj
 0001:0000d090       ?getPositionTargetParent@EventProcessor@Ogre@@WCA@BEPAVPositionTarget@2@XZ 0040e090 f i CuteCar.obj
 0001:0000d0a0       ?isKeyEnabled@EventProcessor@Ogre@@WCA@BE_NXZ 0040e0a0 f i CuteCar.obj
 0001:0000d0b0       ?processEvent@EventProcessor@Ogre@@WDM@AEXPAVInputEvent@2@@Z 0040e0b0 f i CuteCar.obj
 0001:0000d0c0       ??_EEventProcessor@Ogre@@WEA@AEPAXI@Z 0040e0c0 f i CuteCar.obj
 0001:0000d0d0       ??_ECuteCarFrameListener@@W3AEPAXI@Z 0040e0d0 f i CuteCar.obj
 0001:0000d0e0       ??_ECuteCarFrameListener@@WFI@AEPAXI@Z 0040e0e0 f i CuteCar.obj
 0001:0000d0f0       ??_ECuteCarFrameListener@@WFM@AEPAXI@Z 0040e0f0 f i CuteCar.obj
 0001:0000d100       ??_EExampleFrameListener@@W3AEPAXI@Z 0040e100 f i CuteCar.obj
 0001:0000d110       ??0id@locale@std@@QAE@I@Z  0040e110 f i CuteCar.obj
 0001:0000d130       ??0NxAllVehicle@@IAE@XZ    0040e130 f   NxAllVehicle.obj
 0001:0000d1d0       ??1NxAllVehicle@@MAE@XZ    0040e1d0 f   NxAllVehicle.obj
 0001:0000d230       ?getSingleton@NxAllVehicle@@SAPAV1@XZ 0040e230 f   NxAllVehicle.obj
 0001:0000d2e0       ?addVehicle@NxAllVehicle@@QAEPAVNxVehicle@@ABVNxVec3@@VVehicleInfo@@V?$basic_string@DU?$char_traits@D@std@@V?$allocator@D@2@@std@@PAVNxScene@@PAVNxPhysicsSDK@@@Z 0040e2e0 f   NxAllVehicle.obj
 0001:0000df90       ?setCurrentUser@NxAllVehicle@@QAEHABV?$basic_string@DU?$char_traits@D@std@@V?$allocator@D@2@@std@@@Z 0040ef90 f   NxAllVehicle.obj
 0001:0000e050       ?getUserVehicle@NxAllVehicle@@QAEPAVNxVehicle@@XZ 0040f050 f   NxAllVehicle.obj
 0001:0000e080       ?setOilAmount@NxAllVehicle@@QAEXH@Z 0040f080 f   NxAllVehicle.obj
 0001:0000e0b0       ?getOilAmount@NxAllVehicle@@QAEHXZ 0040f0b0 f   NxAllVehicle.obj
 0001:0000e0e0       ?setLoopNum@NxAllVehicle@@QAEXH@Z 0040f0e0 f   NxAllVehicle.obj
 0001:0000e110       ?getLoopNum@NxAllVehicle@@QAEHXZ 0040f110 f   NxAllVehicle.obj
 0001:0000e140       ?killUserVehicle@NxAllVehicle@@QAEXXZ 0040f140 f   NxAllVehicle.obj
 0001:0000e180       ?changeUserVehicle@NxAllVehicle@@QAEPAVNxVehicle@@XZ 0040f180 f   NxAllVehicle.obj
 0001:0000e1f0       ?control@NxAllVehicle@@QAEXHH_N@Z 0040f1f0 f   NxAllVehicle.obj
 0001:0000e240       ?standUp@NxAllVehicle@@QAEXXZ 0040f240 f   NxAllVehicle.obj
 0001:0000e270       ?setToBeginning@NxAllVehicle@@QAEXABVNxVec3@@@Z 0040f270 f   NxAllVehicle.obj
 0001:0000e2b0       ?updateAllVehicle@NxAllVehicle@@QAEXM@Z 0040f2b0 f   NxAllVehicle.obj
 0001:0000e310       ?getVehicleInfo@NxAllVehicle@@QAEPAUAllVehicleInfoNx@@XZ 0040f310 f   NxAllVehicle.obj
 0001:0000e540       ?getUserVelocity@NxAllVehicle@@QAEMXZ 0040f540 f   NxAllVehicle.obj
 0001:0000e570       ?setToSlip@NxAllVehicle@@QAEXXZ 0040f570 f   NxAllVehicle.obj
 0001:0000e5a0       ?cancleSlip@NxAllVehicle@@QAEXXZ 0040f5a0 f   NxAllVehicle.obj
 0001:0000e5d0       ?setMaxVelocity@NxAllVehicle@@QAEXM@Z 0040f5d0 f   NxAllVehicle.obj
 0001:0000e600       ??_GNxAllVehicle@@MAEPAXI@Z 0040f600 f i NxAllVehicle.obj
 0001:0000e600       ??_ENxAllVehicle@@MAEPAXI@Z 0040f600 f i NxAllVehicle.obj
 0001:0000e630       ??4NxVec3@@QAEABV0@ABV0@@Z 0040f630 f i NxAllVehicle.obj
 0001:0000e670       ?set@NxVec3@@QAEXMMM@Z     0040f670 f i NxAllVehicle.obj
 0001:0000e6a0       ??0NxWheelDesc@@QAE@XZ     0040f6a0 f i NxAllVehicle.obj
 0001:0000e6c0       ??0NxVec3@@QAE@XZ          0040f6c0 f i NxAllVehicle.obj
 0001:0000e6d0       ?setToDefault@NxWheelDesc@@QAEXXZ 0040f6d0 f i NxAllVehicle.obj
 0001:0000e760       ?setToCorvette@NxVehicleMotorDesc@@QAEXXZ 0040f760 f i NxAllVehicle.obj
 0001:0000e7f0       ?insert@NxLinearInterpolationValues@@QAEXMM@Z 0040f7f0 f i NxAllVehicle.obj
 0001:0000e870       ?max@NxMath@@SAMMM@Z       0040f870 f i NxAllVehicle.obj
 0001:0000e8a0       ?min@NxMath@@SAMMM@Z       0040f8a0 f i NxAllVehicle.obj
 0001:0000e8d0       ??0NxVehicleGearDesc@@QAE@XZ 0040f8d0 f i NxAllVehicle.obj
 0001:0000e8f0       ?setToDefault@NxVehicleGearDesc@@QAEXXZ 0040f8f0 f i NxAllVehicle.obj
 0001:0000e900       ?setToCorvette@NxVehicleGearDesc@@QAEXXZ 0040f900 f i NxAllVehicle.obj
 0001:0000e960       ??0NxQuat@@QAE@XZ          0040f960 f i NxAllVehicle.obj
 0001:0000e970       ?fromAngleAxis@NxQuat@@QAEXMABVNxVec3@@@Z 0040f970 f i NxAllVehicle.obj
 0001:0000ea70       ?sqrt@NxMath@@SAMM@Z       0040fa70 f i NxAllVehicle.obj
 0001:0000ea90       _sqrtf                     0040fa90 f i NxAllVehicle.obj
 0001:0000eab0       ?degToRad@NxMath@@SAMM@Z   0040fab0 f i NxAllVehicle.obj
 0001:0000eac0       ?sin@NxMath@@SAMM@Z        0040fac0 f i NxAllVehicle.obj
 0001:0000eae0       _sinf                      0040fae0 f i NxAllVehicle.obj
 0001:0000eb00       ?cos@NxMath@@SAMM@Z        0040fb00 f i NxAllVehicle.obj
 0001:0000eb20       _cosf                      0040fb20 f i NxAllVehicle.obj
 0001:0000eb40       ??0NxVehicleDesc@@QAE@XZ   0040fb40 f i NxAllVehicle.obj
 0001:0000ebd0       ?setToDefault@NxVehicleDesc@@QAEXXZ 0040fbd0 f i NxAllVehicle.obj
 0001:0000ec30       ??0NxBoxShapeDesc@@QAE@XZ  0040fc30 f i NxAllVehicle.obj
 0001:0000eca0       ??0NxShapeDesc@@IAE@W4NxShapeType@@@Z 0040fca0 f i NxAllVehicle.obj
 0001:0000ed20       ??1NxMat34@@QAE@XZ         0040fd20 f i NxAllVehicle.obj
 0001:0000ed40       ??1NxMat33@@QAE@XZ         0040fd40 f i NxAllVehicle.obj
 0001:0000ed50       ??0NxMat34@@QAE@_N@Z       0040fd50 f i NxAllVehicle.obj
 0001:0000edc0       ?zero@NxVec3@@QAEXXZ       0040fdc0 f i NxAllVehicle.obj
 0001:0000edf0       ??0NxMat33@@QAE@XZ         0040fdf0 f i NxAllVehicle.obj
 0001:0000ee00       ?id@NxMat33@@QAEXXZ        0040fe00 f i NxAllVehicle.obj
 0001:0000ee70       ??0NxGroupsMask@@QAE@XZ    0040fe70 f i NxAllVehicle.obj
 0001:0000ee80       ??1NxGroupsMask@@QAE@XZ    0040fe80 f i NxAllVehicle.obj
 0001:0000ee90       ??_ENxShapeDesc@@UAEPAXI@Z 0040fe90 f i NxAllVehicle.obj
 0001:0000ee90       ??_GNxShapeDesc@@UAEPAXI@Z 0040fe90 f i NxAllVehicle.obj
 0001:0000eec0       ??1NxShapeDesc@@UAE@XZ     0040fec0 f i NxAllVehicle.obj
 0001:0000ef20       ?setToDefault@NxShapeDesc@@UAEXXZ 0040ff20 f i NxAllVehicle.obj
 0001:0000efc0       ?id@NxMat34@@QAEXXZ        0040ffc0 f i NxAllVehicle.obj
 0001:0000efe0       ?isValid@NxShapeDesc@@UBE_NXZ 0040ffe0 f i NxAllVehicle.obj
 0001:0000f080       ?isFinite@NxMat34@@QBE_NXZ 00410080 f i NxAllVehicle.obj
 0001:0000f0c0       ?isFinite@NxVec3@@QBE_NXZ  004100c0 f i NxAllVehicle.obj
 0001:0000f130       ?isFinite@NxMath@@SA_NM@Z  00410130 f i NxAllVehicle.obj
 0001:0000f150       ?isFinite@NxMat33@@QBE_NXZ 00410150 f i NxAllVehicle.obj
 0001:0000f250       ??_ENxBoxShapeDesc@@UAEPAXI@Z 00410250 f i NxAllVehicle.obj
 0001:0000f250       ??_GNxBoxShapeDesc@@UAEPAXI@Z 00410250 f i NxAllVehicle.obj
 0001:0000f280       ??1NxBoxShapeDesc@@UAE@XZ  00410280 f i NxAllVehicle.obj
 0001:0000f2a0       ?setToDefault@NxBoxShapeDesc@@UAEXXZ 004102a0 f i NxAllVehicle.obj
 0001:0000f2c0       ?isValid@NxBoxShapeDesc@@UBE_NXZ 004102c0 f i NxAllVehicle.obj
 0001:0000f330       ??0NxConvexMeshDesc@@QAE@XZ 00410330 f i NxAllVehicle.obj
 0001:0000f350       ?setToDefault@NxConvexMeshDesc@@QAEXXZ 00410350 f i NxAllVehicle.obj
 0001:0000f3a0       ??0NxConvexShapeDesc@@QAE@XZ 004103a0 f i NxAllVehicle.obj
 0001:0000f400       ??_GNxConvexShapeDesc@@UAEPAXI@Z 00410400 f i NxAllVehicle.obj
 0001:0000f400       ??_ENxConvexShapeDesc@@UAEPAXI@Z 00410400 f i NxAllVehicle.obj
 0001:0000f430       ??1NxConvexShapeDesc@@UAE@XZ 00410430 f i NxAllVehicle.obj
 0001:0000f450       ?setToDefault@NxConvexShapeDesc@@UAEXXZ 00410450 f i NxAllVehicle.obj
 0001:0000f480       ?isValid@NxConvexShapeDesc@@UBE_NXZ 00410480 f i NxAllVehicle.obj
 0001:0000f4a0       ?setOilAmount@NxVehicle@@QAEXH@Z 004104a0 f i NxAllVehicle.obj
 0001:0000f4c0       ?getActor@NxVehicle@@QAEPAVNxActor@@XZ 004104c0 f i NxAllVehicle.obj
 0001:0000f4e0       ??1NxVehicleDesc@@QAE@XZ   004104e0 f i NxAllVehicle.obj
 0001:0000f530       ??0NxVehicleMotorDesc@@QAE@XZ 00410530 f i NxAllVehicle.obj
 0001:0000f550       ??0NxLinearInterpolationValues@@QAE@XZ 00410550 f i NxAllVehicle.obj
 0001:0000f580       ??1NxVehicleMotorDesc@@QAE@XZ 00410580 f i NxAllVehicle.obj
 0001:0000f5a0       ??1NxLinearInterpolationValues@@QAE@XZ 004105a0 f i NxAllVehicle.obj
 0001:0000f5c0       ??1?$map@MMU?$less@M@std@@V?$allocator@U?$pair@$$CBMM@std@@@2@@std@@QAE@XZ 004105c0 f i NxAllVehicle.obj
 0001:0000f5e0       ?getOilAmount@NxVehicle@@QAEHXZ 004105e0 f i NxAllVehicle.obj
 0001:0000f600       ?setLoopNum@NxVehicle@@QAEXH@Z 00410600 f i NxAllVehicle.obj
 0001:0000f620       ?getLoopNum@NxVehicle@@QAEHXZ 00410620 f i NxAllVehicle.obj
 0001:0000f640       ??_EAllVehicleInfoNx@@QAEPAXI@Z 00410640 f i NxAllVehicle.obj
 0001:0000f6b0       ??0AllVehicleInfoNx@@QAE@XZ 004106b0 f i NxAllVehicle.obj
 0001:0000f700       ??1AllVehicleInfoNx@@QAE@XZ 00410700 f i NxAllVehicle.obj
 0001:0000f720       ??4AllVehicleInfoNx@@QAEAAU0@ABU0@@Z 00410720 f i NxAllVehicle.obj
 0001:0000f7c0       ??4NxQuat@@QAEAAV0@ABV0@@Z 004107c0 f i NxAllVehicle.obj
 0001:0000f800       ?getDriveVelocity@NxVehicle@@QAEMXZ 00410800 f i NxAllVehicle.obj
 0001:0000f840       ?setMaxVelocity@NxVehicle@@QAEXM@Z 00410840 f i NxAllVehicle.obj
 0001:0000f860       ??0?$map@MMU?$less@M@std@@V?$allocator@U?$pair@$$CBMM@std@@@2@@std@@QAE@XZ 00410860 f i NxAllVehicle.obj
 0001:0000f890       ??A?$map@MMU?$less@M@std@@V?$allocator@U?$pair@$$CBMM@std@@@2@@std@@QAEAAMABM@Z 00410890 f i NxAllVehicle.obj
 0001:0000f930       ??1?$_Tree@V?$_Tmap_traits@MMU?$less@M@std@@V?$allocator@U?$pair@$$CBMM@std@@@2@$0A@@std@@@std@@QAE@XZ 00410930 f i NxAllVehicle.obj
 0001:0000f950       ?empty@?$_Tree@V?$_Tmap_traits@MMU?$less@M@std@@V?$allocator@U?$pair@$$CBMM@std@@@2@$0A@@std@@@std@@QBE_NXZ 00410950 f i NxAllVehicle.obj
 0001:0000f970       ?size@?$_Tree@V?$_Tmap_traits@MMU?$less@M@std@@V?$allocator@U?$pair@$$CBMM@std@@@2@$0A@@std@@@std@@QBEIXZ 00410970 f i NxAllVehicle.obj
 0001:0000f990       ??8const_iterator@?$_Tree@V?$_Tmap_traits@MMU?$less@M@std@@V?$allocator@U?$pair@$$CBMM@std@@@2@$0A@@std@@@std@@QBE_NABV012@@Z 00410990 f i NxAllVehicle.obj
 0001:0000f9b0       ??0?$NxArray@PAVNxShapeDesc@@VNxAllocatorDefault@@@@QAE@XZ 004109b0 f i NxAllVehicle.obj
 0001:0000f9e0       ??1?$NxArray@PAVNxShapeDesc@@VNxAllocatorDefault@@@@QAE@XZ 004109e0 f i NxAllVehicle.obj
 0001:0000fa30       ?pushBack@?$NxArray@PAVNxShapeDesc@@VNxAllocatorDefault@@@@QAEXABQAVNxShapeDesc@@@Z 00410a30 f i NxAllVehicle.obj
 0001:0000fa80       ?size@?$NxArray@PAVNxShapeDesc@@VNxAllocatorDefault@@@@QBEIXZ 00410a80 f i NxAllVehicle.obj
 0001:0000faa0       ??0?$NxArray@PAVNxWheelDesc@@VNxAllocatorDefault@@@@QAE@XZ 00410aa0 f i NxAllVehicle.obj
 0001:0000fad0       ??1?$NxArray@PAVNxWheelDesc@@VNxAllocatorDefault@@@@QAE@XZ 00410ad0 f i NxAllVehicle.obj
 0001:0000fb20       ?pushBack@?$NxArray@PAVNxWheelDesc@@VNxAllocatorDefault@@@@QAEXABQAVNxWheelDesc@@@Z 00410b20 f i NxAllVehicle.obj
 0001:0000fb70       ?size@?$NxArray@PAVNxWheelDesc@@VNxAllocatorDefault@@@@QBEIXZ 00410b70 f i NxAllVehicle.obj
 0001:0000fb90       ?clear@?$NxArray@PAVNxWheelDesc@@VNxAllocatorDefault@@@@QAEXXZ 00410b90 f i NxAllVehicle.obj
 0001:0000fbc0       ??0?$NxArray@PAVNxVehicle@@VNxAllocatorDefault@@@@QAE@XZ 00410bc0 f i NxAllVehicle.obj
 0001:0000fbf0       ??1?$NxArray@PAVNxVehicle@@VNxAllocatorDefault@@@@QAE@XZ 00410bf0 f i NxAllVehicle.obj
 0001:0000fc40       ?pushBack@?$NxArray@PAVNxVehicle@@VNxAllocatorDefault@@@@QAEXABQAVNxVehicle@@@Z 00410c40 f i NxAllVehicle.obj
 0001:0000fc90       ?clear@?$NxArray@PAVNxVehicle@@VNxAllocatorDefault@@@@QAEXXZ 00410c90 f i NxAllVehicle.obj
 0001:0000fcc0       ??A?$NxArray@PAVNxVehicle@@VNxAllocatorDefault@@@@QAEAAPAVNxVehicle@@I@Z 00410cc0 f i NxAllVehicle.obj
 0001:0000fce0       ??0?$NxArray@HVNxAllocatorDefault@@@@QAE@XZ 00410ce0 f i NxAllVehicle.obj
 0001:0000fd10       ??1?$NxArray@HVNxAllocatorDefault@@@@QAE@XZ 00410d10 f i NxAllVehicle.obj
 0001:0000fd60       ?pushBack@?$NxArray@HVNxAllocatorDefault@@@@QAEXABH@Z 00410d60 f i NxAllVehicle.obj
 0001:0000fdb0       ?clear@?$NxArray@HVNxAllocatorDefault@@@@QAEXXZ 00410db0 f i NxAllVehicle.obj
 0001:0000fde0       ??A?$NxArray@HVNxAllocatorDefault@@@@QAEAAHI@Z 00410de0 f i NxAllVehicle.obj
 0001:0000fe00       ??0?$NxArray@VNxVec3@@VNxAllocatorDefault@@@@QAE@XZ 00410e00 f i NxAllVehicle.obj
 0001:0000fe30       ??1?$NxArray@VNxVec3@@VNxAllocatorDefault@@@@QAE@XZ 00410e30 f i NxAllVehicle.obj
 0001:0000fe80       ?size@?$NxArray@VNxVec3@@VNxAllocatorDefault@@@@QBEIXZ 00410e80 f i NxAllVehicle.obj
 0001:0000fea0       ?pushBack@?$NxArray@VNxVec3@@VNxAllocatorDefault@@@@QAEXABVNxVec3@@@Z 00410ea0 f i NxAllVehicle.obj
 0001:0000fef0       ?pushBack@?$NxArray@VNxVec3@@VNxAllocatorDefault@@@@QAEAAVNxVec3@@XZ 00410ef0 f i NxAllVehicle.obj
 0001:0000ff40       ??A?$NxArray@VNxVec3@@VNxAllocatorDefault@@@@QAEAAVNxVec3@@I@Z 00410f40 f i NxAllVehicle.obj
 0001:0000ff60       ?_Key@?$_Tree@V?$_Tmap_traits@MMU?$less@M@std@@V?$allocator@U?$pair@$$CBMM@std@@@2@$0A@@std@@@std@@KAABMPAU_Node@?$_Tree_nod@V?$_Tmap_traits@MMU?$less@M@std@@V?$allocator@U?$pair@$$CBMM@std@@@2@$0A@@std@@@2@@Z 00410f60 f i NxAllVehicle.obj
 0001:0000ff80       ??0?$_Tree@V?$_Tmap_traits@MMU?$less@M@std@@V?$allocator@U?$pair@$$CBMM@std@@@2@$0A@@std@@@std@@QAE@ABU?$less@M@1@ABV?$allocator@U?$pair@$$CBMM@std@@@1@@Z 00410f80 f i NxAllVehicle.obj
 0001:0000ffc0       ?end@?$_Tree@V?$_Tmap_traits@MMU?$less@M@std@@V?$allocator@U?$pair@$$CBMM@std@@@2@$0A@@std@@@std@@QAE?AViterator@12@XZ 00410fc0 f i NxAllVehicle.obj
 0001:0000ffe0       ?insert@?$_Tree@V?$_Tmap_traits@MMU?$less@M@std@@V?$allocator@U?$pair@$$CBMM@std@@@2@$0A@@std@@@std@@QAE?AViterator@12@V312@ABU?$pair@$$CBMM@2@@Z 00410fe0 f i NxAllVehicle.obj
 0001:000105b0       ?begin@?$_Tree@V?$_Tmap_traits@MMU?$less@M@std@@V?$allocator@U?$pair@$$CBMM@std@@@2@$0A@@std@@@std@@QAE?AViterator@12@XZ 004115b0 f i NxAllVehicle.obj
 0001:000105e0       ?lower_bound@?$_Tree@V?$_Tmap_traits@MMU?$less@M@std@@V?$allocator@U?$pair@$$CBMM@std@@@2@$0A@@std@@@std@@QAE?AViterator@12@ABM@Z 004115e0 f i NxAllVehicle.obj
 0001:00010610       ?_Lbound@?$_Tree@V?$_Tmap_traits@MMU?$less@M@std@@V?$allocator@U?$pair@$$CBMM@std@@@2@$0A@@std@@@std@@IBEPAU_Node@?$_Tree_nod@V?$_Tmap_traits@MMU?$less@M@std@@V?$allocator@U?$pair@$$CBMM@std@@@2@$0A@@std@@@2@ABM@Z 00411610 f i NxAllVehicle.obj
 0001:000106a0       ?_Lmost@?$_Tree@V?$_Tmap_traits@MMU?$less@M@std@@V?$allocator@U?$pair@$$CBMM@std@@@2@$0A@@std@@@std@@IAEAAPAU_Node@?$_Tree_nod@V?$_Tmap_traits@MMU?$less@M@std@@V?$allocator@U?$pair@$$CBMM@std@@@2@$0A@@std@@@2@XZ 004116a0 f i NxAllVehicle.obj
 0001:000106c0       ?_Rmost@?$_Tree@V?$_Tmap_traits@MMU?$less@M@std@@V?$allocator@U?$pair@$$CBMM@std@@@2@$0A@@std@@@std@@IAEAAPAU_Node@?$_Tree_nod@V?$_Tmap_traits@MMU?$less@M@std@@V?$allocator@U?$pair@$$CBMM@std@@@2@$0A@@std@@@2@XZ 004116c0 f i NxAllVehicle.obj
 0001:000106e0       ?_Tidy@?$_Tree@V?$_Tmap_traits@MMU?$less@M@std@@V?$allocator@U?$pair@$$CBMM@std@@@2@$0A@@std@@@std@@IAEXXZ 004116e0 f i NxAllVehicle.obj
 0001:00010790       ?erase@?$_Tree@V?$_Tmap_traits@MMU?$less@M@std@@V?$allocator@U?$pair@$$CBMM@std@@@2@$0A@@std@@@std@@QAE?AViterator@12@V312@0@Z 00411790 f i NxAllVehicle.obj
 0001:00010830       ?clear@?$_Tree@V?$_Tmap_traits@MMU?$less@M@std@@V?$allocator@U?$pair@$$CBMM@std@@@2@$0A@@std@@@std@@QAEXXZ 00411830 f i NxAllVehicle.obj
 0001:00010890       ??9const_iterator@?$_Tree@V?$_Tmap_traits@MMU?$less@M@std@@V?$allocator@U?$pair@$$CBMM@std@@@2@$0A@@std@@@std@@QBE_NABV012@@Z 00411890 f i NxAllVehicle.obj
 0001:000108c0       ?_Erase@?$_Tree@V?$_Tmap_traits@MMU?$less@M@std@@V?$allocator@U?$pair@$$CBMM@std@@@2@$0A@@std@@@std@@IAEXPAU_Node@?$_Tree_nod@V?$_Tmap_traits@MMU?$less@M@std@@V?$allocator@U?$pair@$$CBMM@std@@@2@$0A@@std@@@2@@Z 004118c0 f i NxAllVehicle.obj
 0001:00010940       ?_Root@?$_Tree@V?$_Tmap_traits@MMU?$less@M@std@@V?$allocator@U?$pair@$$CBMM@std@@@2@$0A@@std@@@std@@IAEAAPAU_Node@?$_Tree_nod@V?$_Tmap_traits@MMU?$less@M@std@@V?$allocator@U?$pair@$$CBMM@std@@@2@$0A@@std@@@2@XZ 00411940 f i NxAllVehicle.obj
 0001:00010960       ??0?$allocator@U?$pair@$$CBMM@std@@@std@@QAE@XZ 00411960 f i NxAllVehicle.obj
 0001:00010970       ??R?$less@M@std@@QBE_NABM0@Z 00411970 f i NxAllVehicle.obj
 0001:000109b0       ?_Mynode@const_iterator@?$_Tree@V?$_Tmap_traits@MMU?$less@M@std@@V?$allocator@U?$pair@$$CBMM@std@@@2@$0A@@std@@@std@@QBEPAU_Node@?$_Tree_nod@V?$_Tmap_traits@MMU?$less@M@std@@V?$allocator@U?$pair@$$CBMM@std@@@2@$0A@@std@@@3@XZ 004119b0 f i NxAllVehicle.obj
 0001:000109c0       ??0?$pair@$$CBMM@std@@QAE@ABM0@Z 004119c0 f i NxAllVehicle.obj
 0001:000109f0       ?reserve@?$NxArray@PAVNxShapeDesc@@VNxAllocatorDefault@@@@QAEXI@Z 004119f0 f i NxAllVehicle.obj
 0001:00010a90       ?deallocate@?$NxArray@PAVNxShapeDesc@@VNxAllocatorDefault@@@@AAEXPAPAVNxShapeDesc@@@Z 00411a90 f i NxAllVehicle.obj
 0001:00010ac0       ?free@NxAllocatorDefault@@QAEXPAX@Z 00411ac0 f i NxAllVehicle.obj
 0001:00010ae0       ?destroy@?$NxArray@PAVNxShapeDesc@@VNxAllocatorDefault@@@@AAEXPAPAVNxShapeDesc@@0@Z 00411ae0 f i NxAllVehicle.obj
 0001:00010b10       ?reserve@?$NxArray@PAVNxWheelDesc@@VNxAllocatorDefault@@@@QAEXI@Z 00411b10 f i NxAllVehicle.obj
 0001:00010bb0       ?begin@?$NxArray@PAVNxWheelDesc@@VNxAllocatorDefault@@@@QAEPAPAVNxWheelDesc@@XZ 00411bb0 f i NxAllVehicle.obj
 0001:00010bc0       ?end@?$NxArray@PAVNxWheelDesc@@VNxAllocatorDefault@@@@QAEPAPAVNxWheelDesc@@XZ 00411bc0 f i NxAllVehicle.obj
 0001:00010be0       ?deallocate@?$NxArray@PAVNxWheelDesc@@VNxAllocatorDefault@@@@AAEXPAPAVNxWheelDesc@@@Z 00411be0 f i NxAllVehicle.obj
 0001:00010c10       ?destroy@?$NxArray@PAVNxWheelDesc@@VNxAllocatorDefault@@@@AAEXPAPAVNxWheelDesc@@0@Z 00411c10 f i NxAllVehicle.obj
 0001:00010c40       ?reserve@?$NxArray@PAVNxVehicle@@VNxAllocatorDefault@@@@QAEXI@Z 00411c40 f i NxAllVehicle.obj
 0001:00010ce0       ?begin@?$NxArray@PAVNxVehicle@@VNxAllocatorDefault@@@@QAEPAPAVNxVehicle@@XZ 00411ce0 f i NxAllVehicle.obj
 0001:00010cf0       ?end@?$NxArray@PAVNxVehicle@@VNxAllocatorDefault@@@@QAEPAPAVNxVehicle@@XZ 00411cf0 f i NxAllVehicle.obj
 0001:00010d10       ?deallocate@?$NxArray@PAVNxVehicle@@VNxAllocatorDefault@@@@AAEXPAPAVNxVehicle@@@Z 00411d10 f i NxAllVehicle.obj
 0001:00010d40       ?destroy@?$NxArray@PAVNxVehicle@@VNxAllocatorDefault@@@@AAEXPAPAVNxVehicle@@0@Z 00411d40 f i NxAllVehicle.obj
 0001:00010d70       ?reserve@?$NxArray@HVNxAllocatorDefault@@@@QAEXI@Z 00411d70 f i NxAllVehicle.obj
 0001:00010e10       ?size@?$NxArray@HVNxAllocatorDefault@@@@QBEIXZ 00411e10 f i NxAllVehicle.obj
 0001:00010e30       ?begin@?$NxArray@HVNxAllocatorDefault@@@@QAEPAHXZ 00411e30 f i NxAllVehicle.obj
 0001:00010e40       ?end@?$NxArray@HVNxAllocatorDefault@@@@QAEPAHXZ 00411e40 f i NxAllVehicle.obj
 0001:00010e60       ?deallocate@?$NxArray@HVNxAllocatorDefault@@@@AAEXPAH@Z 00411e60 f i NxAllVehicle.obj
 0001:00010e90       ?destroy@?$NxArray@HVNxAllocatorDefault@@@@AAEXPAH0@Z 00411e90 f i NxAllVehicle.obj
 0001:00010ec0       ?reserve@?$NxArray@VNxVec3@@VNxAllocatorDefault@@@@QAEXI@Z 00411ec0 f i NxAllVehicle.obj
 0001:00010f60       ?deallocate@?$NxArray@VNxVec3@@VNxAllocatorDefault@@@@AAEXPAVNxVec3@@@Z 00411f60 f i NxAllVehicle.obj
 0001:00010f90       ?destroy@?$NxArray@VNxVec3@@VNxAllocatorDefault@@@@AAEXPAVNxVec3@@0@Z 00411f90 f i NxAllVehicle.obj
 0001:00010fc0       ??Diterator@?$_Tree@V?$_Tmap_traits@MMU?$less@M@std@@V?$allocator@U?$pair@$$CBMM@std@@@2@$0A@@std@@@std@@QBEAAU?$pair@$$CBMM@2@XZ 00411fc0 f i NxAllVehicle.obj
 0001:00010fe0       ??Dconst_iterator@?$_Tree@V?$_Tmap_traits@MMU?$less@M@std@@V?$allocator@U?$pair@$$CBMM@std@@@2@$0A@@std@@@std@@QBEABU?$pair@$$CBMM@2@XZ 00411fe0 f i NxAllVehicle.obj
 0001:00011000       ?_Isnil@?$_Tree@V?$_Tmap_traits@MMU?$less@M@std@@V?$allocator@U?$pair@$$CBMM@std@@@2@$0A@@std@@@std@@KAAADPAU_Node@?$_Tree_nod@V?$_Tmap_traits@MMU?$less@M@std@@V?$allocator@U?$pair@$$CBMM@std@@@2@$0A@@std@@@2@@Z 00412000 f i NxAllVehicle.obj
 0001:00011010       ?_Left@?$_Tree@V?$_Tmap_traits@MMU?$less@M@std@@V?$allocator@U?$pair@$$CBMM@std@@@2@$0A@@std@@@std@@KAAAPAU_Node@?$_Tree_nod@V?$_Tmap_traits@MMU?$less@M@std@@V?$allocator@U?$pair@$$CBMM@std@@@2@$0A@@std@@@2@PAU342@@Z 00412010 f i NxAllVehicle.obj
 0001:00011020       ?_Parent@?$_Tree@V?$_Tmap_traits@MMU?$less@M@std@@V?$allocator@U?$pair@$$CBMM@std@@@2@$0A@@std@@@std@@KAAAPAU_Node@?$_Tree_nod@V?$_Tmap_traits@MMU?$less@M@std@@V?$allocator@U?$pair@$$CBMM@std@@@2@$0A@@std@@@2@PAU342@@Z 00412020 f i NxAllVehicle.obj
 0001:00011030       ?_Right@?$_Tree@V?$_Tmap_traits@MMU?$less@M@std@@V?$allocator@U?$pair@$$CBMM@std@@@2@$0A@@std@@@std@@KAAAPAU_Node@?$_Tree_nod@V?$_Tmap_traits@MMU?$less@M@std@@V?$allocator@U?$pair@$$CBMM@std@@@2@$0A@@std@@@2@PAU342@@Z 00412030 f i NxAllVehicle.obj
 0001:00011040       ?_Myval@?$_Tree@V?$_Tmap_traits@MMU?$less@M@std@@V?$allocator@U?$pair@$$CBMM@std@@@2@$0A@@std@@@std@@KAAAU?$pair@$$CBMM@2@PAU_Node@?$_Tree_nod@V?$_Tmap_traits@MMU?$less@M@std@@V?$allocator@U?$pair@$$CBMM@std@@@2@$0A@@std@@@2@@Z 00412040 f i NxAllVehicle.obj
 0001:00011050       ?insert@?$_Tree@V?$_Tmap_traits@MMU?$less@M@std@@V?$allocator@U?$pair@$$CBMM@std@@@2@$0A@@std@@@std@@QAE?AU?$pair@Viterator@?$_Tree@V?$_Tmap_traits@MMU?$less@M@std@@V?$allocator@U?$pair@$$CBMM@std@@@2@$0A@@std@@@std@@_N@2@ABU?$pair@$$CBMM@2@@Z 00412050 f i NxAllVehicle.obj
 0001:00011200       ?erase@?$_Tree@V?$_Tmap_traits@MMU?$less@M@std@@V?$allocator@U?$pair@$$CBMM@std@@@2@$0A@@std@@@std@@QAE?AViterator@12@V312@@Z 00412200 f i NxAllVehicle.obj
 0001:000119b0       ??0out_of_range@std@@QAE@ABV?$basic_string@DU?$char_traits@D@std@@V?$allocator@D@2@@1@@Z 004129b0 f i NxAllVehicle.obj
 0001:000119e0       ??0logic_error@std@@QAE@ABV?$basic_string@DU?$char_traits@D@std@@V?$allocator@D@2@@1@@Z 004129e0 f i NxAllVehicle.obj
 0001:00011a40       ?what@logic_error@std@@UBEPBDXZ 00412a40 f i NxAllVehicle.obj
 0001:00011a60       ??_Elogic_error@std@@UAEPAXI@Z 00412a60 f i NxAllVehicle.obj
 0001:00011a60       ??_Glogic_error@std@@UAEPAXI@Z 00412a60 f i NxAllVehicle.obj
 0001:00011a90       ??1logic_error@std@@UAE@XZ 00412a90 f i NxAllVehicle.obj
 0001:00011af0       ??1out_of_range@std@@UAE@XZ 00412af0 f i NxAllVehicle.obj
 0001:00011b10       ??_Eout_of_range@std@@UAEPAXI@Z 00412b10 f i NxAllVehicle.obj
 0001:00011b10       ??_Gout_of_range@std@@UAEPAXI@Z 00412b10 f i NxAllVehicle.obj
 0001:00011b40       ??0logic_error@std@@QAE@ABV01@@Z 00412b40 f i NxAllVehicle.obj
 0001:00011bb0       ?_Init@?$_Tree@V?$_Tmap_traits@MMU?$less@M@std@@V?$allocator@U?$pair@$$CBMM@std@@@2@$0A@@std@@@std@@IAEXXZ 00412bb0 f i NxAllVehicle.obj
 0001:00011c20       ?_Insert@?$_Tree@V?$_Tmap_traits@MMU?$less@M@std@@V?$allocator@U?$pair@$$CBMM@std@@@2@$0A@@std@@@std@@IAE?AViterator@12@_NPAU_Node@?$_Tree_nod@V?$_Tmap_traits@MMU?$less@M@std@@V?$allocator@U?$pair@$$CBMM@std@@@2@$0A@@std@@@2@ABU?$pair@$$CBMM@2@@Z 00412c20 f i NxAllVehicle.obj
 0001:00012080       ??0length_error@std@@QAE@ABV?$basic_string@DU?$char_traits@D@std@@V?$allocator@D@2@@1@@Z 00413080 f i NxAllVehicle.obj
 0001:000120b0       ??1length_error@std@@UAE@XZ 004130b0 f i NxAllVehicle.obj
 0001:000120d0       ??_Glength_error@std@@UAEPAXI@Z 004130d0 f i NxAllVehicle.obj
 0001:000120d0       ??_Elength_error@std@@UAEPAXI@Z 004130d0 f i NxAllVehicle.obj
 0001:00012100       ??0length_error@std@@QAE@ABV01@@Z 00413100 f i NxAllVehicle.obj
 0001:00012130       ?_Max@?$_Tree@V?$_Tmap_traits@MMU?$less@M@std@@V?$allocator@U?$pair@$$CBMM@std@@@2@$0A@@std@@@std@@KAPAU_Node@?$_Tree_nod@V?$_Tmap_traits@MMU?$less@M@std@@V?$allocator@U?$pair@$$CBMM@std@@@2@$0A@@std@@@2@PAU342@@Z 00413130 f i NxAllVehicle.obj
 0001:00012170       ?_Min@?$_Tree@V?$_Tmap_traits@MMU?$less@M@std@@V?$allocator@U?$pair@$$CBMM@std@@@2@$0A@@std@@@std@@KAPAU_Node@?$_Tree_nod@V?$_Tmap_traits@MMU?$less@M@std@@V?$allocator@U?$pair@$$CBMM@std@@@2@$0A@@std@@@2@PAU342@@Z 00413170 f i NxAllVehicle.obj
 0001:000121b0       ?_Root@?$_Tree@V?$_Tmap_traits@MMU?$less@M@std@@V?$allocator@U?$pair@$$CBMM@std@@@2@$0A@@std@@@std@@IBEAAPAU_Node@?$_Tree_nod@V?$_Tmap_traits@MMU?$less@M@std@@V?$allocator@U?$pair@$$CBMM@std@@@2@$0A@@std@@@2@XZ 004131b0 f i NxAllVehicle.obj
 0001:000121d0       ??0?$_Tree_val@V?$_Tmap_traits@MMU?$less@M@std@@V?$allocator@U?$pair@$$CBMM@std@@@2@$0A@@std@@@std@@IAE@ABU?$less@M@1@V?$allocator@U?$pair@$$CBMM@std@@@1@@Z 004131d0 f i NxAllVehicle.obj
 0001:00012210       ?_Kfn@?$_Tmap_traits@MMU?$less@M@std@@V?$allocator@U?$pair@$$CBMM@std@@@2@$0A@@std@@SAABMABU?$pair@$$CBMM@2@@Z 00413210 f i NxAllVehicle.obj
 0001:00012220       ??0?$allocator@U?$pair@$$CBMM@std@@@std@@QAE@ABV01@@Z 00413220 f i NxAllVehicle.obj
 0001:00012230       ?deallocate@?$allocator@U_Node@?$_Tree_nod@V?$_Tmap_traits@MMU?$less@M@std@@V?$allocator@U?$pair@$$CBMM@std@@@2@$0A@@std@@@std@@@std@@QAEXPAU_Node@?$_Tree_nod@V?$_Tmap_traits@MMU?$less@M@std@@V?$allocator@U?$pair@$$CBMM@std@@@2@$0A@@std@@@2@I@Z 00413230 f i NxAllVehicle.obj
 0001:00012250       ?destroy@?$allocator@U_Node@?$_Tree_nod@V?$_Tmap_traits@MMU?$less@M@std@@V?$allocator@U?$pair@$$CBMM@std@@@2@$0A@@std@@@std@@@std@@QAEXPAU_Node@?$_Tree_nod@V?$_Tmap_traits@MMU?$less@M@std@@V?$allocator@U?$pair@$$CBMM@std@@@2@$0A@@std@@@2@@Z 00413250 f i NxAllVehicle.obj
 0001:00012270       ?destroy@?$allocator@PAU_Node@?$_Tree_nod@V?$_Tmap_traits@MMU?$less@M@std@@V?$allocator@U?$pair@$$CBMM@std@@@2@$0A@@std@@@std@@@std@@QAEXPAPAU_Node@?$_Tree_nod@V?$_Tmap_traits@MMU?$less@M@std@@V?$allocator@U?$pair@$$CBMM@std@@@2@$0A@@std@@@2@@Z 00413270 f i NxAllVehicle.obj
 0001:00012290       ?capacity@?$NxArray@PAVNxShapeDesc@@VNxAllocatorDefault@@@@QBEIXZ 00413290 f i NxAllVehicle.obj
 0001:000122d0       ?copy@?$NxArray@PAVNxShapeDesc@@VNxAllocatorDefault@@@@AAEPAPAVNxShapeDesc@@PBQAV2@0PAPAV2@@Z 004132d0 f i NxAllVehicle.obj
 0001:00012310       ?allocate@?$NxArray@PAVNxShapeDesc@@VNxAllocatorDefault@@@@AAEPAPAVNxShapeDesc@@I@Z 00413310 f i NxAllVehicle.obj
 0001:00012350       ?mallocDEBUG@NxAllocatorDefault@@QAEPAXIPBDH0W4NxMemoryType@@@Z 00413350 f i NxAllVehicle.obj
 0001:00012370       ?capacity@?$NxArray@PAVNxWheelDesc@@VNxAllocatorDefault@@@@QBEIXZ 00413370 f i NxAllVehicle.obj
 0001:000123b0       ?copy@?$NxArray@PAVNxWheelDesc@@VNxAllocatorDefault@@@@AAEPAPAVNxWheelDesc@@PBQAV2@0PAPAV2@@Z 004133b0 f i NxAllVehicle.obj
 0001:000123f0       ?allocate@?$NxArray@PAVNxWheelDesc@@VNxAllocatorDefault@@@@AAEPAPAVNxWheelDesc@@I@Z 004133f0 f i NxAllVehicle.obj
 0001:00012430       ?capacity@?$NxArray@PAVNxVehicle@@VNxAllocatorDefault@@@@QBEIXZ 00413430 f i NxAllVehicle.obj
 0001:00012470       ?copy@?$NxArray@PAVNxVehicle@@VNxAllocatorDefault@@@@AAEPAPAVNxVehicle@@PBQAV2@0PAPAV2@@Z 00413470 f i NxAllVehicle.obj
 0001:000124b0       ?allocate@?$NxArray@PAVNxVehicle@@VNxAllocatorDefault@@@@AAEPAPAVNxVehicle@@I@Z 004134b0 f i NxAllVehicle.obj
 0001:000124f0       ?capacity@?$NxArray@HVNxAllocatorDefault@@@@QBEIXZ 004134f0 f i NxAllVehicle.obj
 0001:00012530       ?copy@?$NxArray@HVNxAllocatorDefault@@@@AAEPAHPBH0PAH@Z 00413530 f i NxAllVehicle.obj
 0001:00012570       ?allocate@?$NxArray@HVNxAllocatorDefault@@@@AAEPAHI@Z 00413570 f i NxAllVehicle.obj
 0001:000125b0       ?capacity@?$NxArray@VNxVec3@@VNxAllocatorDefault@@@@QBEIXZ 004135b0 f i NxAllVehicle.obj
 0001:000125f0       ?copy@?$NxArray@VNxVec3@@VNxAllocatorDefault@@@@AAEPAVNxVec3@@PBV2@0PAV2@@Z 004135f0 f i NxAllVehicle.obj
 0001:00012630       ?allocate@?$NxArray@VNxVec3@@VNxAllocatorDefault@@@@AAEPAVNxVec3@@I@Z 00413630 f i NxAllVehicle.obj
 0001:00012670       ??0iterator@?$_Tree@V?$_Tmap_traits@MMU?$less@M@std@@V?$allocator@U?$pair@$$CBMM@std@@@2@$0A@@std@@@std@@QAE@XZ 00413670 f i NxAllVehicle.obj
 0001:00012690       ??0iterator@?$_Tree@V?$_Tmap_traits@MMU?$less@M@std@@V?$allocator@U?$pair@$$CBMM@std@@@2@$0A@@std@@@std@@QAE@PAU_Node@?$_Tree_nod@V?$_Tmap_traits@MMU?$less@M@std@@V?$allocator@U?$pair@$$CBMM@std@@@2@$0A@@std@@@2@@Z 00413690 f i NxAllVehicle.obj
 0001:000126b0       ??0const_iterator@?$_Tree@V?$_Tmap_traits@MMU?$less@M@std@@V?$allocator@U?$pair@$$CBMM@std@@@2@$0A@@std@@@std@@QAE@PAU_Node@?$_Tree_nod@V?$_Tmap_traits@MMU?$less@M@std@@V?$allocator@U?$pair@$$CBMM@std@@@2@$0A@@std@@@2@@Z 004136b0 f i NxAllVehicle.obj
 0001:000126d0       ??Eiterator@?$_Tree@V?$_Tmap_traits@MMU?$less@M@std@@V?$allocator@U?$pair@$$CBMM@std@@@2@$0A@@std@@@std@@QAEAAV012@XZ 004136d0 f i NxAllVehicle.obj
 0001:000126f0       ??Econst_iterator@?$_Tree@V?$_Tmap_traits@MMU?$less@M@std@@V?$allocator@U?$pair@$$CBMM@std@@@2@$0A@@std@@@std@@QAEAAV012@XZ 004136f0 f i NxAllVehicle.obj
 0001:00012710       ?_Inc@const_iterator@?$_Tree@V?$_Tmap_traits@MMU?$less@M@std@@V?$allocator@U?$pair@$$CBMM@std@@@2@$0A@@std@@@std@@QAEXXZ 00413710 f i NxAllVehicle.obj
 0001:000127d0       ??Eiterator@?$_Tree@V?$_Tmap_traits@MMU?$less@M@std@@V?$allocator@U?$pair@$$CBMM@std@@@2@$0A@@std@@@std@@QAE?AV012@H@Z 004137d0 f i NxAllVehicle.obj
 0001:00012800       ??Fiterator@?$_Tree@V?$_Tmap_traits@MMU?$less@M@std@@V?$allocator@U?$pair@$$CBMM@std@@@2@$0A@@std@@@std@@QAEAAV012@XZ 00413800 f i NxAllVehicle.obj
 0001:00012820       ??Fconst_iterator@?$_Tree@V?$_Tmap_traits@MMU?$less@M@std@@V?$allocator@U?$pair@$$CBMM@std@@@2@$0A@@std@@@std@@QAEAAV012@XZ 00413820 f i NxAllVehicle.obj
 0001:00012840       ?_Dec@const_iterator@?$_Tree@V?$_Tmap_traits@MMU?$less@M@std@@V?$allocator@U?$pair@$$CBMM@std@@@2@$0A@@std@@@std@@QAEXXZ 00413840 f i NxAllVehicle.obj
 0001:00012920       ??0out_of_range@std@@QAE@ABV01@@Z 00413920 f i NxAllVehicle.obj
 0001:00012950       ?_Color@?$_Tree@V?$_Tmap_traits@MMU?$less@M@std@@V?$allocator@U?$pair@$$CBMM@std@@@2@$0A@@std@@@std@@KAAADPAU_Node@?$_Tree_nod@V?$_Tmap_traits@MMU?$less@M@std@@V?$allocator@U?$pair@$$CBMM@std@@@2@$0A@@std@@@2@@Z 00413950 f i NxAllVehicle.obj
 0001:00012960       ?max_size@?$_Tree@V?$_Tmap_traits@MMU?$less@M@std@@V?$allocator@U?$pair@$$CBMM@std@@@2@$0A@@std@@@std@@QBEIXZ 00413960 f i NxAllVehicle.obj
 0001:00012980       ?_Lrotate@?$_Tree@V?$_Tmap_traits@MMU?$less@M@std@@V?$allocator@U?$pair@$$CBMM@std@@@2@$0A@@std@@@std@@IAEXPAU_Node@?$_Tree_nod@V?$_Tmap_traits@MMU?$less@M@std@@V?$allocator@U?$pair@$$CBMM@std@@@2@$0A@@std@@@2@@Z 00413980 f i NxAllVehicle.obj
 0001:00012ab0       ?_Rrotate@?$_Tree@V?$_Tmap_traits@MMU?$less@M@std@@V?$allocator@U?$pair@$$CBMM@std@@@2@$0A@@std@@@std@@IAEXPAU_Node@?$_Tree_nod@V?$_Tmap_traits@MMU?$less@M@std@@V?$allocator@U?$pair@$$CBMM@std@@@2@$0A@@std@@@2@@Z 00413ab0 f i NxAllVehicle.obj
 0001:00012be0       ?_Buynode@?$_Tree@V?$_Tmap_traits@MMU?$less@M@std@@V?$allocator@U?$pair@$$CBMM@std@@@2@$0A@@std@@@std@@IAEPAU_Node@?$_Tree_nod@V?$_Tmap_traits@MMU?$less@M@std@@V?$allocator@U?$pair@$$CBMM@std@@@2@$0A@@std@@@2@XZ 00413be0 f i NxAllVehicle.obj
 0001:00012d50       ?_Buynode@?$_Tree@V?$_Tmap_traits@MMU?$less@M@std@@V?$allocator@U?$pair@$$CBMM@std@@@2@$0A@@std@@@std@@IAEPAU_Node@?$_Tree_nod@V?$_Tmap_traits@MMU?$less@M@std@@V?$allocator@U?$pair@$$CBMM@std@@@2@$0A@@std@@@2@PAU342@00ABU?$pair@$$CBMM@2@D@Z 00413d50 f i NxAllVehicle.obj
 0001:00012e20       ??2@YAPAXIPAX@Z            00413e20 f i NxAllVehicle.obj
 0001:00012e30       ??3@YAXPAX0@Z              00413e30 f i NxAllVehicle.obj
 0001:00012e40       ??0?$_Tree_ptr@V?$_Tmap_traits@MMU?$less@M@std@@V?$allocator@U?$pair@$$CBMM@std@@@2@$0A@@std@@@std@@IAE@ABU?$less@M@1@V?$allocator@U?$pair@$$CBMM@std@@@1@@Z 00413e40 f i NxAllVehicle.obj
 0001:00012e80       ??0const_iterator@?$_Tree@V?$_Tmap_traits@MMU?$less@M@std@@V?$allocator@U?$pair@$$CBMM@std@@@2@$0A@@std@@@std@@QAE@XZ 00413e80 f i NxAllVehicle.obj
 0001:00012ea0       ??0?$pair@Viterator@?$_Tree@V?$_Tmap_traits@MMU?$less@M@std@@V?$allocator@U?$pair@$$CBMM@std@@@2@$0A@@std@@@std@@_N@std@@QAE@ABViterator@?$_Tree@V?$_Tmap_traits@MMU?$less@M@std@@V?$allocator@U?$pair@$$CBMM@std@@@2@$0A@@std@@@1@AB_N@Z 00413ea0 f i NxAllVehicle.obj
 0001:00012ed0       ??0?$_Tree_nod@V?$_Tmap_traits@MMU?$less@M@std@@V?$allocator@U?$pair@$$CBMM@std@@@2@$0A@@std@@@std@@IAE@ABU?$less@M@1@V?$allocator@U?$pair@$$CBMM@std@@@1@@Z 00413ed0 f i NxAllVehicle.obj
 0001:00012f00       ?max_size@?$allocator@U?$pair@$$CBMM@std@@@std@@QBEIXZ 00413f00 f i NxAllVehicle.obj
 0001:00012f30       ?allocate@?$allocator@U_Node@?$_Tree_nod@V?$_Tmap_traits@MMU?$less@M@std@@V?$allocator@U?$pair@$$CBMM@std@@@2@$0A@@std@@@std@@@std@@QAEPAU_Node@?$_Tree_nod@V?$_Tmap_traits@MMU?$less@M@std@@V?$allocator@U?$pair@$$CBMM@std@@@2@$0A@@std@@@2@I@Z 00413f30 f i NxAllVehicle.obj
 0001:00012f50       ?construct@?$allocator@PAU_Node@?$_Tree_nod@V?$_Tmap_traits@MMU?$less@M@std@@V?$allocator@U?$pair@$$CBMM@std@@@2@$0A@@std@@@std@@@std@@QAEXPAPAU_Node@?$_Tree_nod@V?$_Tmap_traits@MMU?$less@M@std@@V?$allocator@U?$pair@$$CBMM@std@@@2@$0A@@std@@@2@ABQAU342@@Z 00413f50 f i NxAllVehicle.obj
 0001:00012f70       ??0_Node@?$_Tree_nod@V?$_Tmap_traits@MMU?$less@M@std@@V?$allocator@U?$pair@$$CBMM@std@@@2@$0A@@std@@@std@@QAE@PAU012@00ABU?$pair@$$CBMM@2@D@Z 00413f70 f i NxAllVehicle.obj
 0001:00012fc0       ??0?$_Tmap_traits@MMU?$less@M@std@@V?$allocator@U?$pair@$$CBMM@std@@@2@$0A@@std@@QAE@U?$less@M@1@@Z 00413fc0 f i NxAllVehicle.obj
 0001:00012fd0       ??$?8DU?$char_traits@D@std@@V?$allocator@D@1@@std@@YA_NABV?$basic_string@DU?$char_traits@D@std@@V?$allocator@D@2@@0@0@Z 00413fd0 f i NxAllVehicle.obj
 0001:00012ff0       ??$swap@D@std@@YAXAAD0@Z   00413ff0 f i NxAllVehicle.obj
 0001:00013020       ??$_Destroy@U_Node@?$_Tree_nod@V?$_Tmap_traits@MMU?$less@M@std@@V?$allocator@U?$pair@$$CBMM@std@@@2@$0A@@std@@@std@@@std@@YAXPAU_Node@?$_Tree_nod@V?$_Tmap_traits@MMU?$less@M@std@@V?$allocator@U?$pair@$$CBMM@std@@@2@$0A@@std@@@0@@Z 00414020 f i NxAllVehicle.obj
 0001:00013030       ??$_Destroy@PAU_Node@?$_Tree_nod@V?$_Tmap_traits@MMU?$less@M@std@@V?$allocator@U?$pair@$$CBMM@std@@@2@$0A@@std@@@std@@@std@@YAXPAPAU_Node@?$_Tree_nod@V?$_Tmap_traits@MMU?$less@M@std@@V?$allocator@U?$pair@$$CBMM@std@@@2@$0A@@std@@@0@@Z 00414030 f i NxAllVehicle.obj
 0001:00013040       ??$?0U?$pair@$$CBMM@std@@@?$allocator@PAU_Node@?$_Tree_nod@V?$_Tmap_traits@MMU?$less@M@std@@V?$allocator@U?$pair@$$CBMM@std@@@2@$0A@@std@@@std@@@std@@QAE@ABV?$allocator@U?$pair@$$CBMM@std@@@1@@Z 00414040 f i NxAllVehicle.obj
 0001:00013050       ??$?0U?$pair@$$CBMM@std@@@?$allocator@U_Node@?$_Tree_nod@V?$_Tmap_traits@MMU?$less@M@std@@V?$allocator@U?$pair@$$CBMM@std@@@2@$0A@@std@@@std@@@std@@QAE@ABV?$allocator@U?$pair@$$CBMM@std@@@1@@Z 00414050 f i NxAllVehicle.obj
 0001:00013060       ??$_Allocate@U_Node@?$_Tree_nod@V?$_Tmap_traits@MMU?$less@M@std@@V?$allocator@U?$pair@$$CBMM@std@@@2@$0A@@std@@@std@@@std@@YAPAU_Node@?$_Tree_nod@V?$_Tmap_traits@MMU?$less@M@std@@V?$allocator@U?$pair@$$CBMM@std@@@2@$0A@@std@@@0@IPAU120@@Z 00414060 f i NxAllVehicle.obj
 0001:00013080       ??$_Construct@PAU_Node@?$_Tree_nod@V?$_Tmap_traits@MMU?$less@M@std@@V?$allocator@U?$pair@$$CBMM@std@@@2@$0A@@std@@@std@@PAU123@@std@@YAXPAPAU_Node@?$_Tree_nod@V?$_Tmap_traits@MMU?$less@M@std@@V?$allocator@U?$pair@$$CBMM@std@@@2@$0A@@std@@@0@ABQAU120@@Z 00414080 f i NxAllVehicle.obj
 0001:000130c0       ?compare@?$basic_string@DU?$char_traits@D@std@@V?$allocator@D@2@@std@@QBEHABV12@@Z 004140c0 f i NxAllVehicle.obj
 0001:000130f0       ?compare@?$basic_string@DU?$char_traits@D@std@@V?$allocator@D@2@@std@@QBEHIIPBDI@Z 004140f0 f i NxAllVehicle.obj
 0001:000131b0       ?compare@?$char_traits@D@std@@SAHPBD0I@Z 004141b0 f i NxAllVehicle.obj
 0001:000131f0       ??0NxTerrain@@QAE@XZ       004141f0 f   NxTerrain.obj
 0001:00013250       ??1NxTerrain@@UAE@XZ       00414250 f   NxTerrain.obj
 0001:00013270       ?initNx@NxTerrain@@QAEXXZ  00414270 f   NxTerrain.obj
 0001:000134b0       ?chooseTrigMaterial@NxTerrain@@QAEMIM@Z 004144b0 f   NxTerrain.obj
 0001:000135f0       ?createNxTerrain@NxTerrain@@QAEXXZ 004145f0 f   NxTerrain.obj
 0001:00013c60       ?simulate@NxTerrain@@QAEXMHH_N@Z 00414c60 f   NxTerrain.obj
 0001:00013d20       ?getOilAmount@NxTerrain@@QAEHXZ 00414d20 f   NxTerrain.obj
 0001:00013d40       ?setOilAmount@NxTerrain@@QAEXH@Z 00414d40 f   NxTerrain.obj
 0001:00013d60       ?getLoopNum@NxTerrain@@QAEHXZ 00414d60 f   NxTerrain.obj
 0001:00013d80       ?setLoopNum@NxTerrain@@QAEXH@Z 00414d80 f   NxTerrain.obj
 0001:00013da0       ?control@NxTerrain@@QAEXHH_N@Z 00414da0 f   NxTerrain.obj
 0001:00013dd0       ?standUp@NxTerrain@@QAEXXZ 00414dd0 f   NxTerrain.obj
 0001:00013df0       ?setToBeginning@NxTerrain@@QAEXABVNxVec3@@@Z 00414df0 f   NxTerrain.obj
 0001:00013e10       ?addUser@NxTerrain@@QAEXABVNxVec3@@VVehicleInfo@@V?$basic_string@DU?$char_traits@D@std@@V?$allocator@D@2@@std@@@Z 00414e10 f   NxTerrain.obj
 0001:00013ea0       ?getAllVehicleInfo@NxTerrain@@QAEPAUAllVehicleInfoNx@@XZ 00414ea0 f   NxTerrain.obj
 0001:00013ec0       ?getVelocity@NxTerrain@@QAEMXZ 00414ec0 f   NxTerrain.obj
 0001:00013ee0       ?userControl@NxTerrain@@QAEHABV?$basic_string@DU?$char_traits@D@std@@V?$allocator@D@2@@std@@@Z 00414ee0 f   NxTerrain.obj
 0001:00013f00       ?useSlipProp@NxTerrain@@QAEXXZ 00414f00 f   NxTerrain.obj
 0001:00013f20       ?setMaxVelocity@NxTerrain@@QAEXM@Z 00414f20 f   NxTerrain.obj
 0001:00013f40       ?cancelSlipProp@NxTerrain@@QAEXXZ 00414f40 f   NxTerrain.obj
 0001:00013f60       ?useFlashProp@NxTerrain@@QAEXXZ 00414f60 f   NxTerrain.obj
 0001:00013f70       ?cancelFlashProp@NxTerrain@@QAEXXZ 00414f70 f   NxTerrain.obj
 0001:00013f80       ??_GNxTerrain@@UAEPAXI@Z   00414f80 f i NxTerrain.obj
 0001:00013f80       ??_ENxTerrain@@UAEPAXI@Z   00414f80 f i NxTerrain.obj
 0001:00013fb0       ??0NxPhysicsSDKDesc@@QAE@XZ 00414fb0 f i NxTerrain.obj
 0001:00013fd0       ?setToDefault@NxPhysicsSDKDesc@@QAEXXZ 00414fd0 f i NxTerrain.obj
 0001:00014000       ??0NxSceneDesc@@QAE@XZ     00415000 f i NxTerrain.obj
 0001:00014030       ?setToDefault@NxSceneDesc@@QAEXXZ 00415030 f i NxTerrain.obj
 0001:000140e0       ?normalize@NxVec3@@QAEMXZ  004150e0 f i NxTerrain.obj
 0001:00014150       ?magnitude@NxVec3@@QBEMXZ  00415150 f i NxTerrain.obj
 0001:00014190       ??GNxVec3@@QBE?AV0@ABV0@@Z 00415190 f i NxTerrain.obj
 0001:000141e0       ?cross@NxVec3@@QBE?AV1@ABV1@@Z 004151e0 f i NxTerrain.obj
 0001:00014220       ??0NxVec3@@QAE@ABV0@@Z     00415220 f i NxTerrain.obj
 0001:00014260       ?cross@NxVec3@@QAEXABV1@0@Z 00415260 f i NxTerrain.obj
 0001:000142e0       ??XNxVec3@@QAEAAV0@M@Z     004152e0 f i NxTerrain.obj
 0001:00014320       ??0NxActorDesc@@QAE@XZ     00415320 f i NxTerrain.obj
 0001:000143a0       ??0NxActorDescBase@@QAE@XZ 004153a0 f i NxTerrain.obj
 0001:000143c0       ??1NxActorDescBase@@QAE@XZ 004153c0 f i NxTerrain.obj
 0001:000143e0       ?setToDefault@NxActorDesc@@QAEXXZ 004153e0 f i NxTerrain.obj
 0001:00014400       ?setToDefault@NxActorDescBase@@QAEXXZ 00415400 f i NxTerrain.obj
 0001:00014450       ??0NxMaterialDesc@@QAE@XZ  00415450 f i NxTerrain.obj
 0001:00014480       ?setToDefault@NxMaterialDesc@@QAEXXZ 00415480 f i NxTerrain.obj
 0001:00014500       ??0NxTriangleMeshDesc@@QAE@XZ 00415500 f i NxTerrain.obj
 0001:00014520       ??0NxSimpleTriangleMesh@@QAE@XZ 00415520 f i NxTerrain.obj
 0001:00014540       ?setToDefault@NxSimpleTriangleMesh@@QAEXXZ 00415540 f i NxTerrain.obj
 0001:00014590       ?setToDefault@NxTriangleMeshDesc@@QAEXXZ 00415590 f i NxTerrain.obj
 0001:000145e0       ??0NxTriangleMeshShapeDesc@@QAE@XZ 004155e0 f i NxTerrain.obj
 0001:00014640       ??_ENxTriangleMeshShapeDesc@@UAEPAXI@Z 00415640 f i NxTerrain.obj
 0001:00014640       ??_GNxTriangleMeshShapeDesc@@UAEPAXI@Z 00415640 f i NxTerrain.obj
 0001:00014670       ??1NxTriangleMeshShapeDesc@@UAE@XZ 00415670 f i NxTerrain.obj
 0001:00014690       ?setToDefault@NxTriangleMeshShapeDesc@@UAEXXZ 00415690 f i NxTerrain.obj
 0001:000146c0       ?isValid@NxTriangleMeshShapeDesc@@UBE_NXZ 004156c0 f i NxTerrain.obj
 0001:000146e0       ??1NxActorDesc@@QAE@XZ     004156e0 f i NxTerrain.obj
 0001:00014730       ?clear@?$NxArray@PAVNxShapeDesc@@VNxAllocatorDefault@@@@QAEXXZ 00415730 f i NxTerrain.obj
 0001:00014760       ?begin@?$NxArray@PAVNxShapeDesc@@VNxAllocatorDefault@@@@QAEPAPAVNxShapeDesc@@XZ 00415760 f i NxTerrain.obj
 0001:00014770       ?end@?$NxArray@PAVNxShapeDesc@@VNxAllocatorDefault@@@@QAEPAPAVNxShapeDesc@@XZ 00415770 f i NxTerrain.obj
 0001:00014790       ??0NxTerrainItem@@IAE@W4ItemType@@@Z 00415790 f   NxTerrainItem.obj
 0001:000147c0       ??1NxTerrainItem@@MAE@XZ   004157c0 f   NxTerrainItem.obj
 0001:000147e0       ?initTerrainItem@NxTerrainItem@@SAXPAVNxScene@@@Z 004157e0 f   NxTerrainItem.obj
 0001:00014810       ?createTerrainItem@NxTerrainItem@@SAPAV1@W4ItemType@@ABVNxVec3@@M@Z 00415810 f   NxTerrainItem.obj
 0001:00014a10       ?addScratchLine@NxTerrainItem@@SAXXZ 00415a10 f   NxTerrainItem.obj
 0001:00014d70       ?getItemPicked@NxTerrainItem@@SAPAV?$NxArray@PAVItemPicked@@VNxAllocatorDefault@@@@_N@Z 00415d70 f   NxTerrainItem.obj
 0001:00014d80       ??_GNxTerrainItem@@MAEPAXI@Z 00415d80 f i NxTerrainItem.obj
 0001:00014d80       ??_ENxTerrainItem@@MAEPAXI@Z 00415d80 f i NxTerrainItem.obj
 0001:00014db0       ?isValid@NxActorDesc@@QBE_NXZ 00415db0 f i NxTerrainItem.obj
 0001:00014e50       ?isValid@NxActorDescBase@@QBE_NXZ 00415e50 f i NxTerrainItem.obj
 0001:00014eb0       ?isValid@NxBodyDesc@@QBE_NXZ 00415eb0 f i NxTerrainItem.obj
 0001:00014f50       ?isValidInternal@NxActorDescBase@@IBE_N_N@Z 00415f50 f i NxTerrainItem.obj
 0001:00015080       ?isZero@NxVec3@@QBEHXZ     00416080 f i NxTerrainItem.obj
 0001:000150b0       ??A?$NxArray@PAVNxShapeDesc@@VNxAllocatorDefault@@@@QBEABQAVNxShapeDesc@@I@Z 004160b0 f i NxTerrainItem.obj
 0001:000150d0       ??0?$NxArray@PAVItemPicked@@VNxAllocatorDefault@@@@QAE@XZ 004160d0 f i NxTerrainItem.obj
 0001:00015100       ??0ItemTrigger@NxTerrainItem@@QAE@XZ 00416100 f i NxTerrainItem.obj
 0001:00015120       ?onTrigger@ItemTrigger@NxTerrainItem@@UAEXAAVNxShape@@0W4NxShapeFlag@@@Z 00416120 f i NxTerrainItem.obj
 0001:00015450       ?getItemType@NxTerrainItem@@QAE?AW4ItemType@@XZ 00416450 f i NxTerrainItem.obj
 0001:00015470       ??0ItemPicked@@QAE@XZ      00416470 f i NxTerrainItem.obj
 0001:00015490       ??0NxUserTriggerReport@@QAE@XZ 00416490 f i NxTerrainItem.obj
 0001:000154b0       ?push_back@?$NxArray@PAVItemPicked@@VNxAllocatorDefault@@@@QAEXABQAVItemPicked@@@Z 004164b0 f i NxTerrainItem.obj
 0001:000154d0       ?pushBack@?$NxArray@PAVItemPicked@@VNxAllocatorDefault@@@@QAEXABQAVItemPicked@@@Z 004164d0 f i NxTerrainItem.obj
 0001:00015520       ?reserve@?$NxArray@PAVItemPicked@@VNxAllocatorDefault@@@@QAEXI@Z 00416520 f i NxTerrainItem.obj
 0001:000155c0       ?deallocate@?$NxArray@PAVItemPicked@@VNxAllocatorDefault@@@@AAEXPAPAVItemPicked@@@Z 004165c0 f i NxTerrainItem.obj
 0001:000155f0       ?capacity@?$NxArray@PAVItemPicked@@VNxAllocatorDefault@@@@QBEIXZ 004165f0 f i NxTerrainItem.obj
 0001:00015630       ?copy@?$NxArray@PAVItemPicked@@VNxAllocatorDefault@@@@AAEPAPAVItemPicked@@PBQAV2@0PAPAV2@@Z 00416630 f i NxTerrainItem.obj
 0001:00015670       ?allocate@?$NxArray@PAVItemPicked@@VNxAllocatorDefault@@@@AAEPAPAVItemPicked@@I@Z 00416670 f i NxTerrainItem.obj
 0001:000156b0       ??1?$NxArray@PAVItemPicked@@VNxAllocatorDefault@@@@QAE@XZ 004166b0 f i NxTerrainItem.obj
 0001:00015700       ??0NxVehicle@@AAE@XZ       00416700 f   NxVehicle.obj
 0001:00015840       ??1NxVehicle@@QAE@XZ       00416840 f   NxVehicle.obj
 0001:00015980       ?_createVehicle@NxVehicle@@CAPAV1@PAVNxScene@@PAVNxVehicleDesc@@@Z 00416980 f   NxVehicle.obj
 0001:00015ff0       ?createVehicle@NxVehicle@@SAPAV1@PAVNxScene@@PAVNxVehicleDesc@@V?$basic_string@DU?$char_traits@D@std@@V?$allocator@D@2@@std@@@Z 00416ff0 f   NxVehicle.obj
 0001:00016080       ?getInfoForOgre@NxVehicle@@QAE?AUAllVehicleInfoNx@@XZ 00417080 f   NxVehicle.obj
 0001:00016400       ?handleContactPair@NxVehicle@@QAEXAAVNxContactPair@@I@Z 00417400 f   NxVehicle.obj
 0001:00016410       ?updateVehicle@NxVehicle@@QAEXM@Z 00417410 f   NxVehicle.obj
 0001:00016ab0       ?_computeMostTouchedActor@NxVehicle@@AAEXXZ 00417ab0 f   NxVehicle.obj
 0001:00016c20       ?_controlSteering@NxVehicle@@AAEXM_N@Z 00417c20 f   NxVehicle.obj
 0001:00016d00       ?_computeLocalVelocity@NxVehicle@@AAEXXZ 00417d00 f   NxVehicle.obj
 0001:00016e00       ?_controlAcceleration@NxVehicle@@AAEXM_N@Z 00417e00 f   NxVehicle.obj
 0001:00016e30       ?setBrake@NxVehicle@@QAEXM@Z 00417e30 f   NxVehicle.obj
 0001:00016e40       ?control@NxVehicle@@QAEXM_NM00@Z 00417e40 f   NxVehicle.obj
 0001:00016fa0       ?_computeAxisTorque@NxVehicle@@AAEMXZ 00417fa0 f   NxVehicle.obj
 0001:00017060       ?_computeRpmFromWheels@NxVehicle@@AAEMXZ 00418060 f   NxVehicle.obj
 0001:000170f0       ?_computeMotorRpm@NxVehicle@@AAEMM@Z 004180f0 f   NxVehicle.obj
 0001:000171e0       ?_getGearRatio@NxVehicle@@AAEMXZ 004181e0 f   NxVehicle.obj
 0001:00017210       ?gearUp@NxVehicle@@QAEXXZ  00418210 f   NxVehicle.obj
 0001:00017240       ?gearDown@NxVehicle@@QAEXXZ 00418240 f   NxVehicle.obj
 0001:00017270       ?applyRandomForce@NxVehicle@@QAEXXZ 00418270 f   NxVehicle.obj
 0001:00017340       ?standUp@NxVehicle@@QAEXXZ 00418340 f   NxVehicle.obj
 0001:000174c0       ?setToBeginning@NxVehicle@@QAEXABVNxVec3@@@Z 004184c0 f   NxVehicle.obj
 0001:00017630       ?_updateRpms@NxVehicle@@AAEXXZ 00418630 f   NxVehicle.obj
 0001:00017680       ?getVehicleName@NxVehicle@@QAE?AV?$basic_string@DU?$char_traits@D@std@@V?$allocator@D@2@@std@@XZ 00418680 f   NxVehicle.obj
 0001:000176c0       ?setToSlip@NxVehicle@@QAEXXZ 004186c0 f   NxVehicle.obj
 0001:00017750       ?cancleSlip@NxVehicle@@QAEXXZ 00418750 f   NxVehicle.obj
 0001:000177e0       ?isValid@NxVehicleDesc@@QBE_NXZ 004187e0 f i NxVehicle.obj
 0001:00017850       ?isValid@NxWheelDesc@@QBE_NXZ 00418850 f i NxVehicle.obj
 0001:00017890       ??0NxBodyDesc@@QAE@XZ      00418890 f i NxVehicle.obj
 0001:00017900       ?setToDefault@NxBodyDesc@@QAEXXZ 00418900 f i NxVehicle.obj
 0001:000179a0       ?createVehicleGears@NxVehicleGears@@SAPAV1@ABVNxVehicleGearDesc@@@Z 004189a0 f i NxVehicle.obj
 0001:00017a80       ?isValid@NxVehicleGearDesc@@QBE_NXZ 00418a80 f i NxVehicle.obj
 0001:00017b90       ?getMaxNumOfGears@NxVehicleGearDesc@@QBEIXZ 00418b90 f i NxVehicle.obj
 0001:00017ba0       ??0NxVehicleGears@@QAE@XZ  00418ba0 f i NxVehicle.obj
 0001:00017bc0       ?createMotor@NxVehicleMotor@@SAPAV1@ABVNxVehicleMotorDesc@@@Z 00418bc0 f i NxVehicle.obj
 0001:00017cf0       ?getValueAtIndex@NxLinearInterpolationValues@@QBEMH@Z 00418cf0 f i NxVehicle.obj
 0001:00017d40       ?getSize@NxLinearInterpolationValues@@QBEIXZ 00418d40 f i NxVehicle.obj
 0001:00017d60       ?isValid@NxVehicleMotorDesc@@QBE_NXZ 00418d60 f i NxVehicle.obj
 0001:00017dd0       ??0NxVehicleMotor@@QAE@XZ  00418dd0 f i NxVehicle.obj
 0001:00017df0       ??4NxLinearInterpolationValues@@QAEAAV0@ABV0@@Z 00418df0 f i NxVehicle.obj
 0001:00017e30       ??4?$map@MMU?$less@M@std@@V?$allocator@U?$pair@$$CBMM@std@@@2@@std@@QAEAAV01@ABV01@@Z 00418e30 f i NxVehicle.obj
 0001:00017e50       ??1NxBodyDesc@@QAE@XZ      00418e50 f i NxVehicle.obj
 0001:00017e70       ??_GNxVehicle@@QAEPAXI@Z   00418e70 f i NxVehicle.obj
 0001:00017ea0       ?sign@NxMath@@SAMM@Z       00418ea0 f i NxVehicle.obj
 0001:00017ed0       ?radToDeg@NxMath@@SAMM@Z   00418ed0 f i NxVehicle.obj
 0001:00017ee0       ?acos@NxMath@@SAMM@Z       00418ee0 f i NxVehicle.obj
 0001:00017f30       _acosf                     00418f30 f i NxVehicle.obj
 0001:00017f50       ??0NxQuat@@QAE@MABVNxVec3@@@Z 00418f50 f i NxVehicle.obj
 0001:00017f70       ?multiply@NxQuat@@QAEXABV1@0@Z 00418f70 f i NxVehicle.obj
 0001:00018080       ?rotate@NxQuat@@QBEXAAVNxVec3@@@Z 00419080 f i NxVehicle.obj
 0001:00018150       ?multiply@NxQuat@@QAEXABV1@ABVNxVec3@@@Z 00419150 f i NxVehicle.obj
 0001:00018230       ??0AllVehicleInfoNx@@QAE@ABU0@@Z 00419230 f i NxVehicle.obj
 0001:000182d0       ??0NxQuat@@QAE@ABV0@@Z     004192d0 f i NxVehicle.obj
 0001:00018310       ?atan@@YAMM@Z              00419310 f i NxVehicle.obj
 0001:00018330       _atanf                     00419330 f i NxVehicle.obj
 0001:00018350       ?abs@NxMath@@SAMM@Z        00419350 f i NxVehicle.obj
 0001:00018370       _fabsf                     00419370 f i NxVehicle.obj
 0001:00018390       ?clamp@NxMath@@SAMMMM@Z    00419390 f i NxVehicle.obj
 0001:000183c0       ?pow@NxMath@@SAMMM@Z       004193c0 f i NxVehicle.obj
 0001:000183e0       _powf                      004193e0 f i NxVehicle.obj
 0001:00018410       ?tan@NxMath@@SAMM@Z        00419410 f i NxVehicle.obj
 0001:00018430       _tanf                      00419430 f i NxVehicle.obj
 0001:00018450       ?atan@NxMath@@SAMM@Z       00419450 f i NxVehicle.obj
 0001:00018470       ?magnitudeSquared@NxVec3@@QBEMXZ 00419470 f i NxVehicle.obj
 0001:000184b0       ??GNxVec3@@QBE?AV0@XZ      004194b0 f i NxVehicle.obj
 0001:000184f0       ?inverseRotate@NxQuat@@QBEXAAVNxVec3@@@Z 004194f0 f i NxVehicle.obj
 0001:000185e0       ??DNxMat34@@QBE?AVNxVec3@@ABV1@@Z 004195e0 f i NxVehicle.obj
 0001:00018620       ?multiply@NxMat34@@QBEXABVNxVec3@@AAV2@@Z 00419620 f i NxVehicle.obj
 0001:00018660       ??HNxVec3@@QBE?AV0@ABV0@@Z 00419660 f i NxVehicle.obj
 0001:000186b0       ??DNxMat33@@QBE?AVNxVec3@@ABV1@@Z 004196b0 f i NxVehicle.obj
 0001:000186f0       ?multiply@NxMat33@@QBEXABVNxVec3@@AAV2@@Z 004196f0 f i NxVehicle.obj
 0001:000187a0       ?hasGroundContact@NxWheel@@QBE_NXZ 004197a0 f i NxVehicle.obj
 0001:000187c0       ?getWheelFlag@NxWheel@@QBE_NW4NxWheelFlags@@@Z 004197c0 f i NxVehicle.obj
 0001:000187e0       ??1?$map@PAVNxActor@@IU?$less@PAVNxActor@@@std@@V?$allocator@U?$pair@QAVNxActor@@I@std@@@3@@std@@QAE@XZ 004197e0 f i NxVehicle.obj
 0001:00018800       ?setRpm@NxVehicleMotor@@QAEXM@Z 00419800 f i NxVehicle.obj
 0001:00018820       ?getTorque@NxVehicleMotor@@QBEMXZ 00419820 f i NxVehicle.obj
 0001:00018840       ?getValue@NxLinearInterpolationValues@@QBEMM@Z 00419840 f i NxVehicle.obj
 0001:00018950       ?getMinRpm@NxVehicleMotor@@QBEMXZ 00419950 f i NxVehicle.obj
 0001:00018970       ?changeGears@NxVehicleMotor@@QBEHPBVNxVehicleGears@@M@Z 00419970 f i NxVehicle.obj
 0001:000189e0       ?getGear@NxVehicleGears@@QBEHXZ 004199e0 f i NxVehicle.obj
 0001:00018a00       ?getMaxGear@NxVehicleGears@@QBEHXZ 00419a00 f i NxVehicle.obj
 0001:00018a10       ?getCurrentRatio@NxVehicleGears@@QBEMXZ 00419a10 f i NxVehicle.obj
 0001:00018a30       ?getRatio@NxVehicleGears@@QBEMH@Z 00419a30 f i NxVehicle.obj
 0001:00018a70       ?gearUp@NxVehicleGears@@QAEXXZ 00419a70 f i NxVehicle.obj
 0001:00018aa0       ?min@NxMath@@SAHHH@Z       00419aa0 f i NxVehicle.obj
 0001:00018ad0       ?gearDown@NxVehicleGears@@QAEXXZ 00419ad0 f i NxVehicle.obj
 0001:00018b00       ?max@NxMath@@SAHHH@Z       00419b00 f i NxVehicle.obj
 0001:00018b30       ?rand@NxMath@@SAMMM@Z      00419b30 f i NxVehicle.obj
 0001:00018b60       ??0NxTireFunctionDesc@@QAE@XZ 00419b60 f i NxVehicle.obj
 0001:00018b80       ?setToDefault@NxTireFunctionDesc@@UAEXXZ 00419b80 f i NxVehicle.obj
 0001:00018bc0       ?isValid@NxTireFunctionDesc@@UBE_NXZ 00419bc0 f i NxVehicle.obj
 0001:00018c40       ??0NxTireFunctionDesc@@QAE@ABV0@@Z 00419c40 f i NxVehicle.obj
 0001:00018ca0       ??4?$_Tree@V?$_Tmap_traits@MMU?$less@M@std@@V?$allocator@U?$pair@$$CBMM@std@@@2@$0A@@std@@@std@@QAEAAV01@ABV01@@Z 00419ca0 f i NxVehicle.obj
 0001:00018cf0       ?begin@?$_Tree@V?$_Tmap_traits@MMU?$less@M@std@@V?$allocator@U?$pair@$$CBMM@std@@@2@$0A@@std@@@std@@QBE?AVconst_iterator@12@XZ 00419cf0 f i NxVehicle.obj
 0001:00018d20       ?end@?$_Tree@V?$_Tmap_traits@MMU?$less@M@std@@V?$allocator@U?$pair@$$CBMM@std@@@2@$0A@@std@@@std@@QBE?AVconst_iterator@12@XZ 00419d20 f i NxVehicle.obj
 0001:00018d40       ?lower_bound@?$_Tree@V?$_Tmap_traits@MMU?$less@M@std@@V?$allocator@U?$pair@$$CBMM@std@@@2@$0A@@std@@@std@@QBE?AVconst_iterator@12@ABM@Z 00419d40 f i NxVehicle.obj
 0001:00018d70       ??Cconst_iterator@?$_Tree@V?$_Tmap_traits@MMU?$less@M@std@@V?$allocator@U?$pair@$$CBMM@std@@@2@$0A@@std@@@std@@QBEPBU?$pair@$$CBMM@2@XZ 00419d70 f i NxVehicle.obj
 0001:00018d90       ??Fconst_iterator@?$_Tree@V?$_Tmap_traits@MMU?$less@M@std@@V?$allocator@U?$pair@$$CBMM@std@@@2@$0A@@std@@@std@@QAE?AV012@H@Z 00419d90 f i NxVehicle.obj
 0001:00018dc0       ??A?$NxArray@PAVNxShapeDesc@@VNxAllocatorDefault@@@@QAEAAPAVNxShapeDesc@@I@Z 00419dc0 f i NxVehicle.obj
 0001:00018de0       ??A?$NxArray@PAVNxWheelDesc@@VNxAllocatorDefault@@@@QBEABQAVNxWheelDesc@@I@Z 00419de0 f i NxVehicle.obj
 0001:00018e00       ??A?$NxArray@PAVNxWheelDesc@@VNxAllocatorDefault@@@@QAEAAPAVNxWheelDesc@@I@Z 00419e00 f i NxVehicle.obj
 0001:00018e20       ??0?$NxArray@PAVNxWheel@@VNxAllocatorDefault@@@@QAE@XZ 00419e20 f i NxVehicle.obj
 0001:00018e50       ??1?$NxArray@PAVNxWheel@@VNxAllocatorDefault@@@@QAE@XZ 00419e50 f i NxVehicle.obj
 0001:00018ea0       ?size@?$NxArray@PAVNxWheel@@VNxAllocatorDefault@@@@QBEIXZ 00419ea0 f i NxVehicle.obj
 0001:00018ec0       ?pushBack@?$NxArray@PAVNxWheel@@VNxAllocatorDefault@@@@QAEXABQAVNxWheel@@@Z 00419ec0 f i NxVehicle.obj
 0001:00018f10       ??A?$NxArray@PAVNxWheel@@VNxAllocatorDefault@@@@QAEAAPAVNxWheel@@I@Z 00419f10 f i NxVehicle.obj
 0001:00018f30       ??0?$map@PAVNxActor@@IU?$less@PAVNxActor@@@std@@V?$allocator@U?$pair@QAVNxActor@@I@std@@@3@@std@@QAE@XZ 00419f30 f i NxVehicle.obj
 0001:00018f60       ??A?$map@PAVNxActor@@IU?$less@PAVNxActor@@@std@@V?$allocator@U?$pair@QAVNxActor@@I@std@@@3@@std@@QAEAAIABQAVNxActor@@@Z 00419f60 f i NxVehicle.obj
 0001:00019000       ??1?$_Tree@V?$_Tmap_traits@PAVNxActor@@IU?$less@PAVNxActor@@@std@@V?$allocator@U?$pair@QAVNxActor@@I@std@@@3@$0A@@std@@@std@@QAE@XZ 0041a000 f i NxVehicle.obj
 0001:00019020       ?begin@?$_Tree@V?$_Tmap_traits@PAVNxActor@@IU?$less@PAVNxActor@@@std@@V?$allocator@U?$pair@QAVNxActor@@I@std@@@3@$0A@@std@@@std@@QAE?AViterator@12@XZ 0041a020 f i NxVehicle.obj
 0001:00019050       ?end@?$_Tree@V?$_Tmap_traits@PAVNxActor@@IU?$less@PAVNxActor@@@std@@V?$allocator@U?$pair@QAVNxActor@@I@std@@@3@$0A@@std@@@std@@QAE?AViterator@12@XZ 0041a050 f i NxVehicle.obj
 0001:00019070       ?find@?$_Tree@V?$_Tmap_traits@PAVNxActor@@IU?$less@PAVNxActor@@@std@@V?$allocator@U?$pair@QAVNxActor@@I@std@@@3@$0A@@std@@@std@@QAE?AViterator@12@ABQAVNxActor@@@Z 0041a070 f i NxVehicle.obj
 0001:00019100       ??Citerator@?$_Tree@V?$_Tmap_traits@PAVNxActor@@IU?$less@PAVNxActor@@@std@@V?$allocator@U?$pair@QAVNxActor@@I@std@@@3@$0A@@std@@@std@@QBEPAU?$pair@QAVNxActor@@I@2@XZ 0041a100 f i NxVehicle.obj
 0001:00019120       ??Eiterator@?$_Tree@V?$_Tmap_traits@PAVNxActor@@IU?$less@PAVNxActor@@@std@@V?$allocator@U?$pair@QAVNxActor@@I@std@@@3@$0A@@std@@@std@@QAEAAV012@XZ 0041a120 f i NxVehicle.obj
 0001:00019140       ??8const_iterator@?$_Tree@V?$_Tmap_traits@PAVNxActor@@IU?$less@PAVNxActor@@@std@@V?$allocator@U?$pair@QAVNxActor@@I@std@@@3@$0A@@std@@@std@@QBE_NABV012@@Z 0041a140 f i NxVehicle.obj
 0001:00019160       ??9const_iterator@?$_Tree@V?$_Tmap_traits@PAVNxActor@@IU?$less@PAVNxActor@@@std@@V?$allocator@U?$pair@QAVNxActor@@I@std@@@3@$0A@@std@@@std@@QBE_NABV012@@Z 0041a160 f i NxVehicle.obj
 0001:00019190       ?_Copy@?$_Tree@V?$_Tmap_traits@MMU?$less@M@std@@V?$allocator@U?$pair@$$CBMM@std@@@2@$0A@@std@@@std@@IAEXABV12@@Z 0041a190 f i NxVehicle.obj
 0001:00019250       ?_Lmost@?$_Tree@V?$_Tmap_traits@MMU?$less@M@std@@V?$allocator@U?$pair@$$CBMM@std@@@2@$0A@@std@@@std@@IBEAAPAU_Node@?$_Tree_nod@V?$_Tmap_traits@MMU?$less@M@std@@V?$allocator@U?$pair@$$CBMM@std@@@2@$0A@@std@@@2@XZ 0041a250 f i NxVehicle.obj
 0001:00019270       ?reserve@?$NxArray@PAVNxWheel@@VNxAllocatorDefault@@@@QAEXI@Z 0041a270 f i NxVehicle.obj
 0001:00019310       ?deallocate@?$NxArray@PAVNxWheel@@VNxAllocatorDefault@@@@AAEXPAPAVNxWheel@@@Z 0041a310 f i NxVehicle.obj
 0001:00019340       ?destroy@?$NxArray@PAVNxWheel@@VNxAllocatorDefault@@@@AAEXPAPAVNxWheel@@0@Z 0041a340 f i NxVehicle.obj
 0001:00019370       ?_Key@?$_Tree@V?$_Tmap_traits@PAVNxActor@@IU?$less@PAVNxActor@@@std@@V?$allocator@U?$pair@QAVNxActor@@I@std@@@3@$0A@@std@@@std@@KAABQAVNxActor@@PAU_Node@?$_Tree_nod@V?$_Tmap_traits@PAVNxActor@@IU?$less@PAVNxActor@@@std@@V?$allocator@U?$pair@QAVNxActor@@I@std@@@3@$0A@@std@@@2@@Z 0041a370 f i NxVehicle.obj
 0001:00019390       ??0?$_Tree@V?$_Tmap_traits@PAVNxActor@@IU?$less@PAVNxActor@@@std@@V?$allocator@U?$pair@QAVNxActor@@I@std@@@3@$0A@@std@@@std@@QAE@ABU?$less@PAVNxActor@@@1@ABV?$allocator@U?$pair@QAVNxActor@@I@std@@@1@@Z 0041a390 f i NxVehicle.obj
 0001:000193d0       ?insert@?$_Tree@V?$_Tmap_traits@PAVNxActor@@IU?$less@PAVNxActor@@@std@@V?$allocator@U?$pair@QAVNxActor@@I@std@@@3@$0A@@std@@@std@@QAE?AViterator@12@V312@ABU?$pair@QAVNxActor@@I@2@@Z 0041a3d0 f i NxVehicle.obj
 0001:000199a0       ?lower_bound@?$_Tree@V?$_Tmap_traits@PAVNxActor@@IU?$less@PAVNxActor@@@std@@V?$allocator@U?$pair@QAVNxActor@@I@std@@@3@$0A@@std@@@std@@QAE?AViterator@12@ABQAVNxActor@@@Z 0041a9a0 f i NxVehicle.obj
 0001:000199d0       ?_Lmost@?$_Tree@V?$_Tmap_traits@PAVNxActor@@IU?$less@PAVNxActor@@@std@@V?$allocator@U?$pair@QAVNxActor@@I@std@@@3@$0A@@std@@@std@@IAEAAPAU_Node@?$_Tree_nod@V?$_Tmap_traits@PAVNxActor@@IU?$less@PAVNxActor@@@std@@V?$allocator@U?$pair@QAVNxActor@@I@std@@@3@$0A@@std@@@2@XZ 0041a9d0 f i NxVehicle.obj
 0001:000199f0       ?_Tidy@?$_Tree@V?$_Tmap_traits@PAVNxActor@@IU?$less@PAVNxActor@@@std@@V?$allocator@U?$pair@QAVNxActor@@I@std@@@3@$0A@@std@@@std@@IAEXXZ 0041a9f0 f i NxVehicle.obj
 0001:00019aa0       ??0?$allocator@U?$pair@QAVNxActor@@I@std@@@std@@QAE@XZ 0041aaa0 f i NxVehicle.obj
 0001:00019ab0       ??R?$less@PAVNxActor@@@std@@QBE_NABQAVNxActor@@0@Z 0041aab0 f i NxVehicle.obj
 0001:00019ad0       ??0iterator@?$_Tree@V?$_Tmap_traits@PAVNxActor@@IU?$less@PAVNxActor@@@std@@V?$allocator@U?$pair@QAVNxActor@@I@std@@@3@$0A@@std@@@std@@QAE@PAU_Node@?$_Tree_nod@V?$_Tmap_traits@PAVNxActor@@IU?$less@PAVNxActor@@@std@@V?$allocator@U?$pair@QAVNxActor@@I@std@@@3@$0A@@std@@@2@@Z 0041aad0 f i NxVehicle.obj
 0001:00019af0       ??Diterator@?$_Tree@V?$_Tmap_traits@PAVNxActor@@IU?$less@PAVNxActor@@@std@@V?$allocator@U?$pair@QAVNxActor@@I@std@@@3@$0A@@std@@@std@@QBEAAU?$pair@QAVNxActor@@I@2@XZ 0041aaf0 f i NxVehicle.obj
 0001:00019b10       ??Econst_iterator@?$_Tree@V?$_Tmap_traits@PAVNxActor@@IU?$less@PAVNxActor@@@std@@V?$allocator@U?$pair@QAVNxActor@@I@std@@@3@$0A@@std@@@std@@QAEAAV012@XZ 0041ab10 f i NxVehicle.obj
 0001:00019b30       ?_Mynode@const_iterator@?$_Tree@V?$_Tmap_traits@PAVNxActor@@IU?$less@PAVNxActor@@@std@@V?$allocator@U?$pair@QAVNxActor@@I@std@@@3@$0A@@std@@@std@@QBEPAU_Node@?$_Tree_nod@V?$_Tmap_traits@PAVNxActor@@IU?$less@PAVNxActor@@@std@@V?$allocator@U?$pair@QAVNxActor@@I@std@@@3@$0A@@std@@@3@XZ 0041ab30 f i NxVehicle.obj
 0001:00019b40       ??0?$pair@QAVNxActor@@I@std@@QAE@ABQAVNxActor@@ABI@Z 0041ab40 f i NxVehicle.obj
 0001:00019b70       ?_Copy@?$_Tree@V?$_Tmap_traits@MMU?$less@M@std@@V?$allocator@U?$pair@$$CBMM@std@@@2@$0A@@std@@@std@@IAEPAU_Node@?$_Tree_nod@V?$_Tmap_traits@MMU?$less@M@std@@V?$allocator@U?$pair@$$CBMM@std@@@2@$0A@@std@@@2@PAU342@0@Z 0041ab70 f i NxVehicle.obj
 0001:00019cc0       ?capacity@?$NxArray@PAVNxWheel@@VNxAllocatorDefault@@@@QBEIXZ 0041acc0 f i NxVehicle.obj
 0001:00019d00       ?copy@?$NxArray@PAVNxWheel@@VNxAllocatorDefault@@@@AAEPAPAVNxWheel@@PBQAV2@0PAPAV2@@Z 0041ad00 f i NxVehicle.obj
 0001:00019d40       ?allocate@?$NxArray@PAVNxWheel@@VNxAllocatorDefault@@@@AAEPAPAVNxWheel@@I@Z 0041ad40 f i NxVehicle.obj
 0001:00019d80       ?_Isnil@?$_Tree@V?$_Tmap_traits@PAVNxActor@@IU?$less@PAVNxActor@@@std@@V?$allocator@U?$pair@QAVNxActor@@I@std@@@3@$0A@@std@@@std@@KAAADPAU_Node@?$_Tree_nod@V?$_Tmap_traits@PAVNxActor@@IU?$less@PAVNxActor@@@std@@V?$allocator@U?$pair@QAVNxActor@@I@std@@@3@$0A@@std@@@2@@Z 0041ad80 f i NxVehicle.obj
 0001:00019d90       ?_Left@?$_Tree@V?$_Tmap_traits@PAVNxActor@@IU?$less@PAVNxActor@@@std@@V?$allocator@U?$pair@QAVNxActor@@I@std@@@3@$0A@@std@@@std@@KAAAPAU_Node@?$_Tree_nod@V?$_Tmap_traits@PAVNxActor@@IU?$less@PAVNxActor@@@std@@V?$allocator@U?$pair@QAVNxActor@@I@std@@@3@$0A@@std@@@2@PAU342@@Z 0041ad90 f i NxVehicle.obj
 0001:00019da0       ?_Parent@?$_Tree@V?$_Tmap_traits@PAVNxActor@@IU?$less@PAVNxActor@@@std@@V?$allocator@U?$pair@QAVNxActor@@I@std@@@3@$0A@@std@@@std@@KAAAPAU_Node@?$_Tree_nod@V?$_Tmap_traits@PAVNxActor@@IU?$less@PAVNxActor@@@std@@V?$allocator@U?$pair@QAVNxActor@@I@std@@@3@$0A@@std@@@2@PAU342@@Z 0041ada0 f i NxVehicle.obj
 0001:00019db0       ?_Right@?$_Tree@V?$_Tmap_traits@PAVNxActor@@IU?$less@PAVNxActor@@@std@@V?$allocator@U?$pair@QAVNxActor@@I@std@@@3@$0A@@std@@@std@@KAAAPAU_Node@?$_Tree_nod@V?$_Tmap_traits@PAVNxActor@@IU?$less@PAVNxActor@@@std@@V?$allocator@U?$pair@QAVNxActor@@I@std@@@3@$0A@@std@@@2@PAU342@@Z 0041adb0 f i NxVehicle.obj
 0001:00019dc0       ?_Myval@?$_Tree@V?$_Tmap_traits@PAVNxActor@@IU?$less@PAVNxActor@@@std@@V?$allocator@U?$pair@QAVNxActor@@I@std@@@3@$0A@@std@@@std@@KAAAU?$pair@QAVNxActor@@I@2@PAU_Node@?$_Tree_nod@V?$_Tmap_traits@PAVNxActor@@IU?$less@PAVNxActor@@@std@@V?$allocator@U?$pair@QAVNxActor@@I@std@@@3@$0A@@std@@@2@@Z 0041adc0 f i NxVehicle.obj
 0001:00019dd0       ?size@?$_Tree@V?$_Tmap_traits@PAVNxActor@@IU?$less@PAVNxActor@@@std@@V?$allocator@U?$pair@QAVNxActor@@I@std@@@3@$0A@@std@@@std@@QBEIXZ 0041add0 f i NxVehicle.obj
 0001:00019df0       ?insert@?$_Tree@V?$_Tmap_traits@PAVNxActor@@IU?$less@PAVNxActor@@@std@@V?$allocator@U?$pair@QAVNxActor@@I@std@@@3@$0A@@std@@@std@@QAE?AU?$pair@Viterator@?$_Tree@V?$_Tmap_traits@PAVNxActor@@IU?$less@PAVNxActor@@@std@@V?$allocator@U?$pair@QAVNxActor@@I@std@@@3@$0A@@std@@@std@@_N@2@ABU?$pair@QAVNxActor@@I@2@@Z 0041adf0 f i NxVehicle.obj
 0001:00019fa0       ?erase@?$_Tree@V?$_Tmap_traits@PAVNxActor@@IU?$less@PAVNxActor@@@std@@V?$allocator@U?$pair@QAVNxActor@@I@std@@@3@$0A@@std@@@std@@QAE?AViterator@12@V312@0@Z 0041afa0 f i NxVehicle.obj
 0001:0001a040       ?_Init@?$_Tree@V?$_Tmap_traits@PAVNxActor@@IU?$less@PAVNxActor@@@std@@V?$allocator@U?$pair@QAVNxActor@@I@std@@@3@$0A@@std@@@std@@IAEXXZ 0041b040 f i NxVehicle.obj
 0001:0001a0b0       ?_Insert@?$_Tree@V?$_Tmap_traits@PAVNxActor@@IU?$less@PAVNxActor@@@std@@V?$allocator@U?$pair@QAVNxActor@@I@std@@@3@$0A@@std@@@std@@IAE?AViterator@12@_NPAU_Node@?$_Tree_nod@V?$_Tmap_traits@PAVNxActor@@IU?$less@PAVNxActor@@@std@@V?$allocator@U?$pair@QAVNxActor@@I@std@@@3@$0A@@std@@@2@ABU?$pair@QAVNxActor@@I@2@@Z 0041b0b0 f i NxVehicle.obj
 0001:0001a510       ?_Lbound@?$_Tree@V?$_Tmap_traits@PAVNxActor@@IU?$less@PAVNxActor@@@std@@V?$allocator@U?$pair@QAVNxActor@@I@std@@@3@$0A@@std@@@std@@IBEPAU_Node@?$_Tree_nod@V?$_Tmap_traits@PAVNxActor@@IU?$less@PAVNxActor@@@std@@V?$allocator@U?$pair@QAVNxActor@@I@std@@@3@$0A@@std@@@2@ABQAVNxActor@@@Z 0041b510 f i NxVehicle.obj
 0001:0001a5a0       ?_Rmost@?$_Tree@V?$_Tmap_traits@PAVNxActor@@IU?$less@PAVNxActor@@@std@@V?$allocator@U?$pair@QAVNxActor@@I@std@@@3@$0A@@std@@@std@@IAEAAPAU_Node@?$_Tree_nod@V?$_Tmap_traits@PAVNxActor@@IU?$less@PAVNxActor@@@std@@V?$allocator@U?$pair@QAVNxActor@@I@std@@@3@$0A@@std@@@2@XZ 0041b5a0 f i NxVehicle.obj
 0001:0001a5c0       ??0?$_Tree_val@V?$_Tmap_traits@PAVNxActor@@IU?$less@PAVNxActor@@@std@@V?$allocator@U?$pair@QAVNxActor@@I@std@@@3@$0A@@std@@@std@@IAE@ABU?$less@PAVNxActor@@@1@V?$allocator@U?$pair@QAVNxActor@@I@std@@@1@@Z 0041b5c0 f i NxVehicle.obj
 0001:0001a600       ?_Kfn@?$_Tmap_traits@PAVNxActor@@IU?$less@PAVNxActor@@@std@@V?$allocator@U?$pair@QAVNxActor@@I@std@@@3@$0A@@std@@SAABQAVNxActor@@ABU?$pair@QAVNxActor@@I@2@@Z 0041b600 f i NxVehicle.obj
 0001:0001a610       ??0?$allocator@U?$pair@QAVNxActor@@I@std@@@std@@QAE@ABV01@@Z 0041b610 f i NxVehicle.obj
 0001:0001a620       ?deallocate@?$allocator@U_Node@?$_Tree_nod@V?$_Tmap_traits@PAVNxActor@@IU?$less@PAVNxActor@@@std@@V?$allocator@U?$pair@QAVNxActor@@I@std@@@3@$0A@@std@@@std@@@std@@QAEXPAU_Node@?$_Tree_nod@V?$_Tmap_traits@PAVNxActor@@IU?$less@PAVNxActor@@@std@@V?$allocator@U?$pair@QAVNxActor@@I@std@@@3@$0A@@std@@@2@I@Z 0041b620 f i NxVehicle.obj
 0001:0001a640       ?destroy@?$allocator@PAU_Node@?$_Tree_nod@V?$_Tmap_traits@PAVNxActor@@IU?$less@PAVNxActor@@@std@@V?$allocator@U?$pair@QAVNxActor@@I@std@@@3@$0A@@std@@@std@@@std@@QAEXPAPAU_Node@?$_Tree_nod@V?$_Tmap_traits@PAVNxActor@@IU?$less@PAVNxActor@@@std@@V?$allocator@U?$pair@QAVNxActor@@I@std@@@3@$0A@@std@@@2@@Z 0041b640 f i NxVehicle.obj
 0001:0001a660       ??0iterator@?$_Tree@V?$_Tmap_traits@PAVNxActor@@IU?$less@PAVNxActor@@@std@@V?$allocator@U?$pair@QAVNxActor@@I@std@@@3@$0A@@std@@@std@@QAE@XZ 0041b660 f i NxVehicle.obj
 0001:0001a680       ??Fiterator@?$_Tree@V?$_Tmap_traits@PAVNxActor@@IU?$less@PAVNxActor@@@std@@V?$allocator@U?$pair@QAVNxActor@@I@std@@@3@$0A@@std@@@std@@QAEAAV012@XZ 0041b680 f i NxVehicle.obj
 0001:0001a6a0       ??0const_iterator@?$_Tree@V?$_Tmap_traits@PAVNxActor@@IU?$less@PAVNxActor@@@std@@V?$allocator@U?$pair@QAVNxActor@@I@std@@@3@$0A@@std@@@std@@QAE@PAU_Node@?$_Tree_nod@V?$_Tmap_traits@PAVNxActor@@IU?$less@PAVNxActor@@@std@@V?$allocator@U?$pair@QAVNxActor@@I@std@@@3@$0A@@std@@@2@@Z 0041b6a0 f i NxVehicle.obj
 0001:0001a6c0       ??Dconst_iterator@?$_Tree@V?$_Tmap_traits@PAVNxActor@@IU?$less@PAVNxActor@@@std@@V?$allocator@U?$pair@QAVNxActor@@I@std@@@3@$0A@@std@@@std@@QBEABU?$pair@QAVNxActor@@I@2@XZ 0041b6c0 f i NxVehicle.obj
 0001:0001a6e0       ?_Inc@const_iterator@?$_Tree@V?$_Tmap_traits@PAVNxActor@@IU?$less@PAVNxActor@@@std@@V?$allocator@U?$pair@QAVNxActor@@I@std@@@3@$0A@@std@@@std@@QAEXXZ 0041b6e0 f i NxVehicle.obj
 0001:0001a7a0       ?_Color@?$_Tree@V?$_Tmap_traits@PAVNxActor@@IU?$less@PAVNxActor@@@std@@V?$allocator@U?$pair@QAVNxActor@@I@std@@@3@$0A@@std@@@std@@KAAADPAU_Node@?$_Tree_nod@V?$_Tmap_traits@PAVNxActor@@IU?$less@PAVNxActor@@@std@@V?$allocator@U?$pair@QAVNxActor@@I@std@@@3@$0A@@std@@@2@@Z 0041b7a0 f i NxVehicle.obj
 0001:0001a7b0       ?max_size@?$_Tree@V?$_Tmap_traits@PAVNxActor@@IU?$less@PAVNxActor@@@std@@V?$allocator@U?$pair@QAVNxActor@@I@std@@@3@$0A@@std@@@std@@QBEIXZ 0041b7b0 f i NxVehicle.obj
 0001:0001a7d0       ?erase@?$_Tree@V?$_Tmap_traits@PAVNxActor@@IU?$less@PAVNxActor@@@std@@V?$allocator@U?$pair@QAVNxActor@@I@std@@@3@$0A@@std@@@std@@QAE?AViterator@12@V312@@Z 0041b7d0 f i NxVehicle.obj
 0001:0001af80       ?clear@?$_Tree@V?$_Tmap_traits@PAVNxActor@@IU?$less@PAVNxActor@@@std@@V?$allocator@U?$pair@QAVNxActor@@I@std@@@3@$0A@@std@@@std@@QAEXXZ 0041bf80 f i NxVehicle.obj
 0001:0001afe0       ?_Lrotate@?$_Tree@V?$_Tmap_traits@PAVNxActor@@IU?$less@PAVNxActor@@@std@@V?$allocator@U?$pair@QAVNxActor@@I@std@@@3@$0A@@std@@@std@@IAEXPAU_Node@?$_Tree_nod@V?$_Tmap_traits@PAVNxActor@@IU?$less@PAVNxActor@@@std@@V?$allocator@U?$pair@QAVNxActor@@I@std@@@3@$0A@@std@@@2@@Z 0041bfe0 f i NxVehicle.obj
 0001:0001b110       ?_Min@?$_Tree@V?$_Tmap_traits@PAVNxActor@@IU?$less@PAVNxActor@@@std@@V?$allocator@U?$pair@QAVNxActor@@I@std@@@3@$0A@@std@@@std@@KAPAU_Node@?$_Tree_nod@V?$_Tmap_traits@PAVNxActor@@IU?$less@PAVNxActor@@@std@@V?$allocator@U?$pair@QAVNxActor@@I@std@@@3@$0A@@std@@@2@PAU342@@Z 0041c110 f i NxVehicle.obj
 0001:0001b150       ?_Root@?$_Tree@V?$_Tmap_traits@PAVNxActor@@IU?$less@PAVNxActor@@@std@@V?$allocator@U?$pair@QAVNxActor@@I@std@@@3@$0A@@std@@@std@@IAEAAPAU_Node@?$_Tree_nod@V?$_Tmap_traits@PAVNxActor@@IU?$less@PAVNxActor@@@std@@V?$allocator@U?$pair@QAVNxActor@@I@std@@@3@$0A@@std@@@2@XZ 0041c150 f i NxVehicle.obj
 0001:0001b170       ?_Root@?$_Tree@V?$_Tmap_traits@PAVNxActor@@IU?$less@PAVNxActor@@@std@@V?$allocator@U?$pair@QAVNxActor@@I@std@@@3@$0A@@std@@@std@@IBEAAPAU_Node@?$_Tree_nod@V?$_Tmap_traits@PAVNxActor@@IU?$less@PAVNxActor@@@std@@V?$allocator@U?$pair@QAVNxActor@@I@std@@@3@$0A@@std@@@2@XZ 0041c170 f i NxVehicle.obj
 0001:0001b190       ?_Rrotate@?$_Tree@V?$_Tmap_traits@PAVNxActor@@IU?$less@PAVNxActor@@@std@@V?$allocator@U?$pair@QAVNxActor@@I@std@@@3@$0A@@std@@@std@@IAEXPAU_Node@?$_Tree_nod@V?$_Tmap_traits@PAVNxActor@@IU?$less@PAVNxActor@@@std@@V?$allocator@U?$pair@QAVNxActor@@I@std@@@3@$0A@@std@@@2@@Z 0041c190 f i NxVehicle.obj
 0001:0001b2c0       ?_Buynode@?$_Tree@V?$_Tmap_traits@PAVNxActor@@IU?$less@PAVNxActor@@@std@@V?$allocator@U?$pair@QAVNxActor@@I@std@@@3@$0A@@std@@@std@@IAEPAU_Node@?$_Tree_nod@V?$_Tmap_traits@PAVNxActor@@IU?$less@PAVNxActor@@@std@@V?$allocator@U?$pair@QAVNxActor@@I@std@@@3@$0A@@std@@@2@XZ 0041c2c0 f i NxVehicle.obj
 0001:0001b430       ?_Buynode@?$_Tree@V?$_Tmap_traits@PAVNxActor@@IU?$less@PAVNxActor@@@std@@V?$allocator@U?$pair@QAVNxActor@@I@std@@@3@$0A@@std@@@std@@IAEPAU_Node@?$_Tree_nod@V?$_Tmap_traits@PAVNxActor@@IU?$less@PAVNxActor@@@std@@V?$allocator@U?$pair@QAVNxActor@@I@std@@@3@$0A@@std@@@2@PAU342@00ABU?$pair@QAVNxActor@@I@2@D@Z 0041c430 f i NxVehicle.obj
 0001:0001b500       ??0?$_Tree_ptr@V?$_Tmap_traits@PAVNxActor@@IU?$less@PAVNxActor@@@std@@V?$allocator@U?$pair@QAVNxActor@@I@std@@@3@$0A@@std@@@std@@IAE@ABU?$less@PAVNxActor@@@1@V?$allocator@U?$pair@QAVNxActor@@I@std@@@1@@Z 0041c500 f i NxVehicle.obj
 0001:0001b540       ??Eiterator@?$_Tree@V?$_Tmap_traits@PAVNxActor@@IU?$less@PAVNxActor@@@std@@V?$allocator@U?$pair@QAVNxActor@@I@std@@@3@$0A@@std@@@std@@QAE?AV012@H@Z 0041c540 f i NxVehicle.obj
 0001:0001b570       ??0const_iterator@?$_Tree@V?$_Tmap_traits@PAVNxActor@@IU?$less@PAVNxActor@@@std@@V?$allocator@U?$pair@QAVNxActor@@I@std@@@3@$0A@@std@@@std@@QAE@XZ 0041c570 f i NxVehicle.obj
 0001:0001b590       ??Fconst_iterator@?$_Tree@V?$_Tmap_traits@PAVNxActor@@IU?$less@PAVNxActor@@@std@@V?$allocator@U?$pair@QAVNxActor@@I@std@@@3@$0A@@std@@@std@@QAEAAV012@XZ 0041c590 f i NxVehicle.obj
 0001:0001b5b0       ??0?$pair@Viterator@?$_Tree@V?$_Tmap_traits@PAVNxActor@@IU?$less@PAVNxActor@@@std@@V?$allocator@U?$pair@QAVNxActor@@I@std@@@3@$0A@@std@@@std@@_N@std@@QAE@ABViterator@?$_Tree@V?$_Tmap_traits@PAVNxActor@@IU?$less@PAVNxActor@@@std@@V?$allocator@U?$pair@QAVNxActor@@I@std@@@3@$0A@@std@@@1@AB_N@Z 0041c5b0 f i NxVehicle.obj
 0001:0001b5e0       ?_Erase@?$_Tree@V?$_Tmap_traits@PAVNxActor@@IU?$less@PAVNxActor@@@std@@V?$allocator@U?$pair@QAVNxActor@@I@std@@@3@$0A@@std@@@std@@IAEXPAU_Node@?$_Tree_nod@V?$_Tmap_traits@PAVNxActor@@IU?$less@PAVNxActor@@@std@@V?$allocator@U?$pair@QAVNxActor@@I@std@@@3@$0A@@std@@@2@@Z 0041c5e0 f i NxVehicle.obj
 0001:0001b660       ?_Max@?$_Tree@V?$_Tmap_traits@PAVNxActor@@IU?$less@PAVNxActor@@@std@@V?$allocator@U?$pair@QAVNxActor@@I@std@@@3@$0A@@std@@@std@@KAPAU_Node@?$_Tree_nod@V?$_Tmap_traits@PAVNxActor@@IU?$less@PAVNxActor@@@std@@V?$allocator@U?$pair@QAVNxActor@@I@std@@@3@$0A@@std@@@2@PAU342@@Z 0041c660 f i NxVehicle.obj
 0001:0001b6a0       ??0?$_Tree_nod@V?$_Tmap_traits@PAVNxActor@@IU?$less@PAVNxActor@@@std@@V?$allocator@U?$pair@QAVNxActor@@I@std@@@3@$0A@@std@@@std@@IAE@ABU?$less@PAVNxActor@@@1@V?$allocator@U?$pair@QAVNxActor@@I@std@@@1@@Z 0041c6a0 f i NxVehicle.obj
 0001:0001b6d0       ?max_size@?$allocator@U?$pair@QAVNxActor@@I@std@@@std@@QBEIXZ 0041c6d0 f i NxVehicle.obj
 0001:0001b700       ?allocate@?$allocator@U_Node@?$_Tree_nod@V?$_Tmap_traits@PAVNxActor@@IU?$less@PAVNxActor@@@std@@V?$allocator@U?$pair@QAVNxActor@@I@std@@@3@$0A@@std@@@std@@@std@@QAEPAU_Node@?$_Tree_nod@V?$_Tmap_traits@PAVNxActor@@IU?$less@PAVNxActor@@@std@@V?$allocator@U?$pair@QAVNxActor@@I@std@@@3@$0A@@std@@@2@I@Z 0041c700 f i NxVehicle.obj
 0001:0001b720       ?destroy@?$allocator@U_Node@?$_Tree_nod@V?$_Tmap_traits@PAVNxActor@@IU?$less@PAVNxActor@@@std@@V?$allocator@U?$pair@QAVNxActor@@I@std@@@3@$0A@@std@@@std@@@std@@QAEXPAU_Node@?$_Tree_nod@V?$_Tmap_traits@PAVNxActor@@IU?$less@PAVNxActor@@@std@@V?$allocator@U?$pair@QAVNxActor@@I@std@@@3@$0A@@std@@@2@@Z 0041c720 f i NxVehicle.obj
 0001:0001b740       ?construct@?$allocator@PAU_Node@?$_Tree_nod@V?$_Tmap_traits@PAVNxActor@@IU?$less@PAVNxActor@@@std@@V?$allocator@U?$pair@QAVNxActor@@I@std@@@3@$0A@@std@@@std@@@std@@QAEXPAPAU_Node@?$_Tree_nod@V?$_Tmap_traits@PAVNxActor@@IU?$less@PAVNxActor@@@std@@V?$allocator@U?$pair@QAVNxActor@@I@std@@@3@$0A@@std@@@2@ABQAU342@@Z 0041c740 f i NxVehicle.obj
 0001:0001b760       ?_Dec@const_iterator@?$_Tree@V?$_Tmap_traits@PAVNxActor@@IU?$less@PAVNxActor@@@std@@V?$allocator@U?$pair@QAVNxActor@@I@std@@@3@$0A@@std@@@std@@QAEXXZ 0041c760 f i NxVehicle.obj
 0001:0001b840       ??0_Node@?$_Tree_nod@V?$_Tmap_traits@PAVNxActor@@IU?$less@PAVNxActor@@@std@@V?$allocator@U?$pair@QAVNxActor@@I@std@@@3@$0A@@std@@@std@@QAE@PAU012@00ABU?$pair@QAVNxActor@@I@2@D@Z 0041c840 f i NxVehicle.obj
 0001:0001b890       ??0?$_Tmap_traits@PAVNxActor@@IU?$less@PAVNxActor@@@std@@V?$allocator@U?$pair@QAVNxActor@@I@std@@@3@$0A@@std@@QAE@U?$less@PAVNxActor@@@1@@Z 0041c890 f i NxVehicle.obj
 0001:0001b8a0       ??$_Destroy@PAU_Node@?$_Tree_nod@V?$_Tmap_traits@PAVNxActor@@IU?$less@PAVNxActor@@@std@@V?$allocator@U?$pair@QAVNxActor@@I@std@@@3@$0A@@std@@@std@@@std@@YAXPAPAU_Node@?$_Tree_nod@V?$_Tmap_traits@PAVNxActor@@IU?$less@PAVNxActor@@@std@@V?$allocator@U?$pair@QAVNxActor@@I@std@@@3@$0A@@std@@@0@@Z 0041c8a0 f i NxVehicle.obj
 0001:0001b8b0       ??$?0U?$pair@QAVNxActor@@I@std@@@?$allocator@PAU_Node@?$_Tree_nod@V?$_Tmap_traits@PAVNxActor@@IU?$less@PAVNxActor@@@std@@V?$allocator@U?$pair@QAVNxActor@@I@std@@@3@$0A@@std@@@std@@@std@@QAE@ABV?$allocator@U?$pair@QAVNxActor@@I@std@@@1@@Z 0041c8b0 f i NxVehicle.obj
 0001:0001b8c0       ??$?0U?$pair@QAVNxActor@@I@std@@@?$allocator@U_Node@?$_Tree_nod@V?$_Tmap_traits@PAVNxActor@@IU?$less@PAVNxActor@@@std@@V?$allocator@U?$pair@QAVNxActor@@I@std@@@3@$0A@@std@@@std@@@std@@QAE@ABV?$allocator@U?$pair@QAVNxActor@@I@std@@@1@@Z 0041c8c0 f i NxVehicle.obj
 0001:0001b8d0       ??$_Allocate@U_Node@?$_Tree_nod@V?$_Tmap_traits@PAVNxActor@@IU?$less@PAVNxActor@@@std@@V?$allocator@U?$pair@QAVNxActor@@I@std@@@3@$0A@@std@@@std@@@std@@YAPAU_Node@?$_Tree_nod@V?$_Tmap_traits@PAVNxActor@@IU?$less@PAVNxActor@@@std@@V?$allocator@U?$pair@QAVNxActor@@I@std@@@3@$0A@@std@@@0@IPAU120@@Z 0041c8d0 f i NxVehicle.obj
 0001:0001b8f0       ??$_Destroy@U_Node@?$_Tree_nod@V?$_Tmap_traits@PAVNxActor@@IU?$less@PAVNxActor@@@std@@V?$allocator@U?$pair@QAVNxActor@@I@std@@@3@$0A@@std@@@std@@@std@@YAXPAU_Node@?$_Tree_nod@V?$_Tmap_traits@PAVNxActor@@IU?$less@PAVNxActor@@@std@@V?$allocator@U?$pair@QAVNxActor@@I@std@@@3@$0A@@std@@@0@@Z 0041c8f0 f i NxVehicle.obj
 0001:0001b900       ??$_Construct@PAU_Node@?$_Tree_nod@V?$_Tmap_traits@PAVNxActor@@IU?$less@PAVNxActor@@@std@@V?$allocator@U?$pair@QAVNxActor@@I@std@@@3@$0A@@std@@@std@@PAU123@@std@@YAXPAPAU_Node@?$_Tree_nod@V?$_Tmap_traits@PAVNxActor@@IU?$less@PAVNxActor@@@std@@V?$allocator@U?$pair@QAVNxActor@@I@std@@@3@$0A@@std@@@0@ABQAU120@@Z 0041c900 f i NxVehicle.obj
 0001:0001b940       ?createWheel@NxWheel@@SAPAV1@PAVNxActor@@PAVNxWheelDesc@@@Z 0041c940 f   NxWheel.obj
 0001:0001b9b0       ??0NxWheel@@AAE@PAVNxActor@@PAVNxWheelDesc@@@Z 0041c9b0 f   NxWheel.obj
 0001:0001bba0       ??1NxWheel@@UAE@XZ         0041cba0 f   NxWheel.obj
 0001:0001bbc0       ?tick@NxWheel@@UAEXMM@Z    0041cbc0 f   NxWheel.obj
 0001:0001bc10       ?getTouchedActor@NxWheel@@UBEPAVNxActor@@XZ 0041cc10 f   NxWheel.obj
 0001:0001bc60       ?getWheelPos@NxWheel@@UBE?AVNxVec3@@XZ 0041cc60 f   NxWheel.obj
 0001:0001bc90       ?setAngle@NxWheel@@UAEXM@Z 0041cc90 f   NxWheel.obj
 0001:0001bcc0       ?getRpm@NxWheel@@UBEMXZ    0041ccc0 f   NxWheel.obj
 0001:0001bd00       ?fromQuat@NxMat33@@QAEXABVNxQuat@@@Z 0041cd00 f i NxWheel.obj
 0001:0001be20       ??0NxWheelShapeDesc@@QAE@XZ 0041ce20 f i NxWheel.obj
 0001:0001bea0       ??0NxSpringDesc@@QAE@XZ    0041cea0 f i NxWheel.obj
 0001:0001bec0       ?setToDefault@NxSpringDesc@@QAEXXZ 0041cec0 f i NxWheel.obj
 0001:0001bef0       ??_GNxWheelShapeDesc@@UAEPAXI@Z 0041cef0 f i NxWheel.obj
 0001:0001bef0       ??_ENxWheelShapeDesc@@UAEPAXI@Z 0041cef0 f i NxWheel.obj
 0001:0001bf20       ??1NxWheelShapeDesc@@UAE@XZ 0041cf20 f i NxWheel.obj
 0001:0001bf40       ?setToDefault@NxWheelShapeDesc@@UAEX_N@Z 0041cf40 f i NxWheel.obj
 0001:0001bfe0       ?isValid@NxWheelShapeDesc@@UBE_NXZ 0041cfe0 f i NxWheel.obj
 0001:0001c1a0       ?isValid@NxSpringDesc@@QBE_NXZ 0041d1a0 f i NxWheel.obj
 0001:0001c1f0       ?setSideSlipEffect@NxWheel@@UAEXVNxTireFunctionDesc@@@Z 0041d1f0 f i NxWheel.obj
 0001:0001c230       ?getGroundContactPos@NxWheel@@UBE?AVNxVec3@@XZ 0041d230 f i NxWheel.obj
 0001:0001c290       ?getRadius@NxWheel@@UBEMXZ 0041d290 f i NxWheel.obj
 0001:0001c2c0       ??_GNxWheel@@UAEPAXI@Z     0041d2c0 f i NxWheel.obj
 0001:0001c2c0       ??_ENxWheel@@UAEPAXI@Z     0041d2c0 f i NxWheel.obj
 0001:0001c2f0       ??0NxWheelContactData@@QAE@XZ 0041d2f0 f i NxWheel.obj
 0001:0001c330       ??0OgreAllVehicle@@IAE@XZ  0041d330 f   OgreAllVehicle.obj
 0001:0001c3a0       ??1OgreAllVehicle@@UAE@XZ  0041d3a0 f   OgreAllVehicle.obj
 0001:0001c3c0       ?getSingleton@OgreAllVehicle@@SAPAV1@XZ 0041d3c0 f   OgreAllVehicle.obj
 0001:0001c470       ?addVehicle@OgreAllVehicle@@QAEPAVOgreVehicle@@PAVSceneNode@Ogre@@V?$basic_string@DU?$char_traits@D@std@@V?$allocator@D@2@@std@@VVector3@4@@Z 0041d470 f   OgreAllVehicle.obj
 0001:0001c510       ?updateAllVehicle@OgreAllVehicle@@QAEXPAUAllVehicleInfoOgre@@@Z 0041d510 f   OgreAllVehicle.obj
 0001:0001c5d0       ?getUserVehicle@OgreAllVehicle@@QAEPAVOgreVehicle@@ABV?$basic_string@DU?$char_traits@D@std@@V?$allocator@D@2@@std@@@Z 0041d5d0 f   OgreAllVehicle.obj
 0001:0001c6a0       ?RemoveVehicleCam@OgreAllVehicle@@QAEPAVOgreVehicle@@XZ 0041d6a0 f   OgreAllVehicle.obj
 0001:0001c760       ??0OgreVehicle@@IAE@XZ     0041d760 f   OgreAllVehicle.obj
 0001:0001c820       ??1OgreVehicle@@UAE@XZ     0041d820 f   OgreAllVehicle.obj
 0001:0001c880       ?createOgreVehicle@OgreVehicle@@SAPAV1@PAVSceneNode@Ogre@@V?$basic_string@DU?$char_traits@D@std@@V?$allocator@D@2@@std@@VVector3@3@@Z 0041d880 f   OgreAllVehicle.obj
 0001:0001cc50       ?updateVehicle@OgreVehicle@@QAEXABUAllVehicleInfoOgre@@@Z 0041dc50 f   OgreAllVehicle.obj
 0001:0001ce10       ?getVehicleName@OgreVehicle@@QAE?AV?$basic_string@DU?$char_traits@D@std@@V?$allocator@D@2@@std@@XZ 0041de10 f   OgreAllVehicle.obj
 0001:0001ce50       ?setToBeginning@OgreVehicle@@QAEXXZ 0041de50 f   OgreAllVehicle.obj
 0001:0001ce70       ?attachCamera@OgreVehicle@@QAEXPAVCamera@Ogre@@@Z 0041de70 f   OgreAllVehicle.obj
 0001:0001cf20       ?setCamera@OgreVehicle@@QAEXABVVector3@Ogre@@ABVQuaternion@3@@Z 0041df20 f   OgreAllVehicle.obj
 0001:0001d040       ?removeCamera@OgreVehicle@@QAEXXZ 0041e040 f   OgreAllVehicle.obj
 0001:0001d0f0       ?hasCamera@OgreVehicle@@QAE_NXZ 0041e0f0 f   OgreAllVehicle.obj
 0001:0001d110       ?addVehicleItem@OgreVehicle@@QAE_NW4ItemType@@@Z 0041e110 f   OgreAllVehicle.obj
 0001:0001d160       ?getAllItem@OgreVehicle@@QAEPAV?$vector@W4ItemType@@V?$allocator@W4ItemType@@@std@@@std@@XZ 0041e160 f   OgreAllVehicle.obj
 0001:0001d180       ?getCurrentItem@OgreVehicle@@QAE?AW4ItemType@@XZ 0041e180 f   OgreAllVehicle.obj
 0001:0001d1f0       ?removeCurrentItem@OgreVehicle@@QAE?AW4ItemType@@XZ 0041e1f0 f   OgreAllVehicle.obj
 0001:0001d2a0       ??0OgreWheel@@IAE@XZ       0041e2a0 f   OgreAllVehicle.obj
 0001:0001d2c0       ??1OgreWheel@@UAE@XZ       0041e2c0 f   OgreAllVehicle.obj
 0001:0001d2e0       ?createOgreWheel@OgreWheel@@SAPAV1@PAVSceneNode@Ogre@@VVector3@3@@Z 0041e2e0 f   OgreAllVehicle.obj
 0001:0001d570       ?updateWheel@OgreWheel@@QAEXM@Z 0041e570 f   OgreAllVehicle.obj
 0001:0001d5f0       ??0OgreTerrainItem@@IAE@PAVSceneNode@Ogre@@W4ItemType@@H@Z 0041e5f0 f   OgreAllVehicle.obj
 0001:0001d650       ??1OgreTerrainItem@@UAE@XZ 0041e650 f   OgreAllVehicle.obj
 0001:0001d670       ?createOgreTerrainItem@OgreTerrainItem@@SAPAV1@PAVSceneNode@Ogre@@ABVVector3@3@W4ItemType@@H@Z 0041e670 f   OgreAllVehicle.obj
 0001:0001d9b0       ?removeTerrainItem@OgreTerrainItem@@QAE_NH@Z 0041e9b0 f   OgreAllVehicle.obj
 0001:0001da00       ?turnTerrainItem@OgreTerrainItem@@QAE_NHM@Z 0041ea00 f   OgreAllVehicle.obj
 0001:0001da60       ?getTerrainItemId@OgreTerrainItem@@QAEHXZ 0041ea60 f   OgreAllVehicle.obj
 0001:0001da80       ??_EOgreAllVehicle@@UAEPAXI@Z 0041ea80 f i OgreAllVehicle.obj
 0001:0001da80       ??_GOgreAllVehicle@@UAEPAXI@Z 0041ea80 f i OgreAllVehicle.obj
 0001:0001dab0       ??_EOgreVehicle@@UAEPAXI@Z 0041eab0 f i OgreAllVehicle.obj
 0001:0001dab0       ??_GOgreVehicle@@UAEPAXI@Z 0041eab0 f i OgreAllVehicle.obj
 0001:0001dae0       ??_EOgreWheel@@UAEPAXI@Z   0041eae0 f i OgreAllVehicle.obj
 0001:0001dae0       ??_GOgreWheel@@UAEPAXI@Z   0041eae0 f i OgreAllVehicle.obj
 0001:0001db10       ??DRadian@Ogre@@QBE?AV01@M@Z 0041eb10 f i OgreAllVehicle.obj
 0001:0001db40       ??_GOgreTerrainItem@@UAEPAXI@Z 0041eb40 f i OgreAllVehicle.obj
 0001:0001db40       ??_EOgreTerrainItem@@UAEPAXI@Z 0041eb40 f i OgreAllVehicle.obj
 0001:0001db70       ??0?$vector@W4ItemType@@V?$allocator@W4ItemType@@@std@@@std@@QAE@XZ 0041eb70 f i OgreAllVehicle.obj
 0001:0001dba0       ??1?$vector@W4ItemType@@V?$allocator@W4ItemType@@@std@@@std@@QAE@XZ 0041eba0 f i OgreAllVehicle.obj
 0001:0001dbc0       ?push_back@?$vector@W4ItemType@@V?$allocator@W4ItemType@@@std@@@std@@QAEXABW4ItemType@@@Z 0041ebc0 f i OgreAllVehicle.obj
 0001:0001dc30       ?clear@?$vector@W4ItemType@@V?$allocator@W4ItemType@@@std@@@std@@QAEXXZ 0041ec30 f i OgreAllVehicle.obj
 0001:0001dc50       ??0?$vector@PAVOgreVehicle@@V?$allocator@PAVOgreVehicle@@@std@@@std@@QAE@XZ 0041ec50 f i OgreAllVehicle.obj
 0001:0001dc80       ??1?$vector@PAVOgreVehicle@@V?$allocator@PAVOgreVehicle@@@std@@@std@@QAE@XZ 0041ec80 f i OgreAllVehicle.obj
 0001:0001dca0       ?size@?$vector@PAVOgreVehicle@@V?$allocator@PAVOgreVehicle@@@std@@@std@@QBEIXZ 0041eca0 f i OgreAllVehicle.obj
 0001:0001dce0       ??A?$vector@PAVOgreVehicle@@V?$allocator@PAVOgreVehicle@@@std@@@std@@QAEAAPAVOgreVehicle@@I@Z 0041ece0 f i OgreAllVehicle.obj
 0001:0001dd20       ?push_back@?$vector@PAVOgreVehicle@@V?$allocator@PAVOgreVehicle@@@std@@@std@@QAEXABQAVOgreVehicle@@@Z 0041ed20 f i OgreAllVehicle.obj
 0001:0001dd90       ?clear@?$vector@PAVOgreVehicle@@V?$allocator@PAVOgreVehicle@@@std@@@std@@QAEXXZ 0041ed90 f i OgreAllVehicle.obj
 0001:0001ddb0       ?capacity@?$vector@W4ItemType@@V?$allocator@W4ItemType@@@std@@@std@@QBEIXZ 0041edb0 f i OgreAllVehicle.obj
 0001:0001ddf0       ?insert@?$vector@W4ItemType@@V?$allocator@W4ItemType@@@std@@@std@@QAE?AViterator@12@V312@ABW4ItemType@@@Z 0041edf0 f i OgreAllVehicle.obj
 0001:0001de70       ?_Buy@?$vector@W4ItemType@@V?$allocator@W4ItemType@@@std@@@std@@IAE_NI@Z 0041ee70 f i OgreAllVehicle.obj
 0001:0001def0       ?_Tidy@?$vector@W4ItemType@@V?$allocator@W4ItemType@@@std@@@std@@IAEXXZ 0041eef0 f i OgreAllVehicle.obj
 0001:0001df60       ?_Ufill@?$vector@W4ItemType@@V?$allocator@W4ItemType@@@std@@@std@@IAEPAW4ItemType@@PAW43@IABW43@@Z 0041ef60 f i OgreAllVehicle.obj
 0001:0001df90       ??0?$_Vector_val@W4ItemType@@V?$allocator@W4ItemType@@@std@@@std@@IAE@V?$allocator@W4ItemType@@@1@@Z 0041ef90 f i OgreAllVehicle.obj
 0001:0001dfb0       ??0?$allocator@W4ItemType@@@std@@QAE@XZ 0041efb0 f i OgreAllVehicle.obj
 0001:0001dfc0       ?capacity@?$vector@PAVOgreVehicle@@V?$allocator@PAVOgreVehicle@@@std@@@std@@QBEIXZ 0041efc0 f i OgreAllVehicle.obj
 0001:0001e000       ?begin@?$vector@PAVOgreVehicle@@V?$allocator@PAVOgreVehicle@@@std@@@std@@QAE?AViterator@12@XZ 0041f000 f i OgreAllVehicle.obj
 0001:0001e020       ?end@?$vector@PAVOgreVehicle@@V?$allocator@PAVOgreVehicle@@@std@@@std@@QAE?AViterator@12@XZ 0041f020 f i OgreAllVehicle.obj
 0001:0001e040       ?insert@?$vector@PAVOgreVehicle@@V?$allocator@PAVOgreVehicle@@@std@@@std@@QAE?AViterator@12@V312@ABQAVOgreVehicle@@@Z 0041f040 f i OgreAllVehicle.obj
 0001:0001e0c0       ?_Buy@?$vector@PAVOgreVehicle@@V?$allocator@PAVOgreVehicle@@@std@@@std@@IAE_NI@Z 0041f0c0 f i OgreAllVehicle.obj
 0001:0001e140       ?_Tidy@?$vector@PAVOgreVehicle@@V?$allocator@PAVOgreVehicle@@@std@@@std@@IAEXXZ 0041f140 f i OgreAllVehicle.obj
 0001:0001e1b0       ?_Ufill@?$vector@PAVOgreVehicle@@V?$allocator@PAVOgreVehicle@@@std@@@std@@IAEPAPAVOgreVehicle@@PAPAV3@IABQAV3@@Z 0041f1b0 f i OgreAllVehicle.obj
 0001:0001e1e0       ??0?$_Vector_val@PAVOgreVehicle@@V?$allocator@PAVOgreVehicle@@@std@@@std@@IAE@V?$allocator@PAVOgreVehicle@@@1@@Z 0041f1e0 f i OgreAllVehicle.obj
 0001:0001e200       ??0?$allocator@PAVOgreVehicle@@@std@@QAE@XZ 0041f200 f i OgreAllVehicle.obj
 0001:0001e210       ??Diterator@?$vector@PAVOgreVehicle@@V?$allocator@PAVOgreVehicle@@@std@@@std@@QBEAAPAVOgreVehicle@@XZ 0041f210 f i OgreAllVehicle.obj
 0001:0001e230       ??Hiterator@?$vector@PAVOgreVehicle@@V?$allocator@PAVOgreVehicle@@@std@@@std@@QBE?AV012@H@Z 0041f230 f i OgreAllVehicle.obj
 0001:0001e260       ?max_size@?$vector@W4ItemType@@V?$allocator@W4ItemType@@@std@@@std@@QBEIXZ 0041f260 f i OgreAllVehicle.obj
 0001:0001e280       ?_Insert_n@?$vector@W4ItemType@@V?$allocator@W4ItemType@@@std@@@std@@IAEXViterator@12@IABW4ItemType@@@Z 0041f280 f i OgreAllVehicle.obj
 0001:0001e5a0       ?_Xlen@?$vector@W4ItemType@@V?$allocator@W4ItemType@@@std@@@std@@IBEXXZ 0041f5a0 f i OgreAllVehicle.obj
 0001:0001e600       ??0?$allocator@W4ItemType@@@std@@QAE@ABV01@@Z 0041f600 f i OgreAllVehicle.obj
 0001:0001e610       ?deallocate@?$allocator@W4ItemType@@@std@@QAEXPAW4ItemType@@I@Z 0041f610 f i OgreAllVehicle.obj
 0001:0001e630       ?allocate@?$allocator@W4ItemType@@@std@@QAEPAW4ItemType@@I@Z 0041f630 f i OgreAllVehicle.obj
 0001:0001e650       ?max_size@?$vector@PAVOgreVehicle@@V?$allocator@PAVOgreVehicle@@@std@@@std@@QBEIXZ 0041f650 f i OgreAllVehicle.obj
 0001:0001e670       ?_Destroy@?$vector@PAVOgreVehicle@@V?$allocator@PAVOgreVehicle@@@std@@@std@@IAEXPAPAVOgreVehicle@@0@Z 0041f670 f i OgreAllVehicle.obj
 0001:0001e6a0       ?_Insert_n@?$vector@PAVOgreVehicle@@V?$allocator@PAVOgreVehicle@@@std@@@std@@IAEXViterator@12@IABQAVOgreVehicle@@@Z 0041f6a0 f i OgreAllVehicle.obj
 0001:0001e9c0       ?_Xlen@?$vector@PAVOgreVehicle@@V?$allocator@PAVOgreVehicle@@@std@@@std@@IBEXXZ 0041f9c0 f i OgreAllVehicle.obj
 0001:0001ea20       ??0?$allocator@PAVOgreVehicle@@@std@@QAE@ABV01@@Z 0041fa20 f i OgreAllVehicle.obj
 0001:0001ea30       ?deallocate@?$allocator@PAVOgreVehicle@@@std@@QAEXPAPAVOgreVehicle@@I@Z 0041fa30 f i OgreAllVehicle.obj
 0001:0001ea50       ?allocate@?$allocator@PAVOgreVehicle@@@std@@QAEPAPAVOgreVehicle@@I@Z 0041fa50 f i OgreAllVehicle.obj
 0001:0001ea70       ??Giterator@?$vector@W4ItemType@@V?$allocator@W4ItemType@@@std@@@std@@QBEHABVconst_iterator@12@@Z 0041fa70 f i OgreAllVehicle.obj
 0001:0001eaa0       ??0iterator@?$vector@PAVOgreVehicle@@V?$allocator@PAVOgreVehicle@@@std@@@std@@QAE@PAPAVOgreVehicle@@@Z 0041faa0 f i OgreAllVehicle.obj
 0001:0001eac0       ??Yiterator@?$vector@PAVOgreVehicle@@V?$allocator@PAVOgreVehicle@@@std@@@std@@QAEAAV012@H@Z 0041fac0 f i OgreAllVehicle.obj
 0001:0001eae0       ??Giterator@?$vector@PAVOgreVehicle@@V?$allocator@PAVOgreVehicle@@@std@@@std@@QBEHABVconst_iterator@12@@Z 0041fae0 f i OgreAllVehicle.obj
 0001:0001eb10       ??Dconst_iterator@?$vector@PAVOgreVehicle@@V?$allocator@PAVOgreVehicle@@@std@@@std@@QBEABQAVOgreVehicle@@XZ 0041fb10 f i OgreAllVehicle.obj
 0001:0001eb20       ?max_size@?$allocator@W4ItemType@@@std@@QBEIXZ 0041fb20 f i OgreAllVehicle.obj
 0001:0001eb50       ?max_size@?$allocator@PAVOgreVehicle@@@std@@QBEIXZ 0041fb50 f i OgreAllVehicle.obj
 0001:0001eb80       ??Gconst_iterator@?$vector@W4ItemType@@V?$allocator@W4ItemType@@@std@@@std@@QBEHABV012@@Z 0041fb80 f i OgreAllVehicle.obj
 0001:0001eba0       ??0const_iterator@?$vector@PAVOgreVehicle@@V?$allocator@PAVOgreVehicle@@@std@@@std@@QAE@PAPAVOgreVehicle@@@Z 0041fba0 f i OgreAllVehicle.obj
 0001:0001ebc0       ??Gconst_iterator@?$vector@PAVOgreVehicle@@V?$allocator@PAVOgreVehicle@@@std@@@std@@QBEHABV012@@Z 0041fbc0 f i OgreAllVehicle.obj
 0001:0001ebe0       ??$_Uninitialized_fill_n@PAW4ItemType@@IW41@V?$allocator@W4ItemType@@@std@@@std@@YAXPAW4ItemType@@IABW41@AAV?$allocator@W4ItemType@@@0@@Z 0041fbe0 f i OgreAllVehicle.obj
 0001:0001ec20       ??$_Uninitialized_fill_n@PAPAVOgreVehicle@@IPAV1@V?$allocator@PAVOgreVehicle@@@std@@@std@@YAXPAPAVOgreVehicle@@IABQAV1@AAV?$allocator@PAVOgreVehicle@@@0@@Z 0041fc20 f i OgreAllVehicle.obj
 0001:0001ec60       ??$_Ucopy@PAW4ItemType@@@?$vector@W4ItemType@@V?$allocator@W4ItemType@@@std@@@std@@IAEPAW4ItemType@@PAW42@00@Z 0041fc60 f i OgreAllVehicle.obj
 0001:0001ec90       ??$fill@PAW4ItemType@@W41@@std@@YAXPAW4ItemType@@0ABW41@@Z 0041fc90 f i OgreAllVehicle.obj
 0001:0001ecc0       ??$copy_backward@PAW4ItemType@@PAW41@@std@@YAPAW4ItemType@@PAW41@00@Z 0041fcc0 f i OgreAllVehicle.obj
 0001:0001ed00       ??$_Allocate@W4ItemType@@@std@@YAPAW4ItemType@@IPAW41@@Z 0041fd00 f i OgreAllVehicle.obj
 0001:0001ed20       ??$_Destroy_range@PAVOgreVehicle@@V?$allocator@PAVOgreVehicle@@@std@@@std@@YAXPAPAVOgreVehicle@@0AAV?$allocator@PAVOgreVehicle@@@0@@Z 0041fd20 f i OgreAllVehicle.obj
 0001:0001ed60       ??$_Ucopy@PAPAVOgreVehicle@@@?$vector@PAVOgreVehicle@@V?$allocator@PAVOgreVehicle@@@std@@@std@@IAEPAPAVOgreVehicle@@PAPAV2@00@Z 0041fd60 f i OgreAllVehicle.obj
 0001:0001ed90       ??$fill@PAPAVOgreVehicle@@PAV1@@std@@YAXPAPAVOgreVehicle@@0ABQAV1@@Z 0041fd90 f i OgreAllVehicle.obj
 0001:0001edc0       ??$copy_backward@PAPAVOgreVehicle@@PAPAV1@@std@@YAPAPAVOgreVehicle@@PAPAV1@00@Z 0041fdc0 f i OgreAllVehicle.obj
 0001:0001ee00       ??$_Allocate@PAVOgreVehicle@@@std@@YAPAPAVOgreVehicle@@IPAPAV1@@Z 0041fe00 f i OgreAllVehicle.obj
 0001:0001ee20       ??$_Uninit_fill_n@PAW4ItemType@@IW41@V?$allocator@W4ItemType@@@std@@@std@@YAXPAW4ItemType@@IABW41@AAV?$allocator@W4ItemType@@@0@U_Nonscalar_ptr_iterator_tag@0@@Z 0041fe20 f i OgreAllVehicle.obj
 0001:0001eec0       ??$_Ptr_cat@VOgreVehicle@@@std@@YA?AU_Scalar_ptr_iterator_tag@0@PAPAVOgreVehicle@@0@Z 0041fec0 f i OgreAllVehicle.obj
 0001:0001eed0       ??$_Uninit_fill_n@PAVOgreVehicle@@IPAV1@@std@@YAXPAPAVOgreVehicle@@IABQAV1@AAV?$allocator@PAVOgreVehicle@@@0@U_Scalar_ptr_iterator_tag@0@@Z 0041fed0 f i OgreAllVehicle.obj
 0001:0001eef0       ??$_Uninitialized_copy@PAW4ItemType@@PAW41@V?$allocator@W4ItemType@@@std@@@std@@YAPAW4ItemType@@PAW41@00AAV?$allocator@W4ItemType@@@0@@Z 0041fef0 f i OgreAllVehicle.obj
 0001:0001ef30       ??$_Copy_backward_opt@PAW4ItemType@@PAW41@@std@@YAPAW4ItemType@@PAW41@00U_Nonscalar_ptr_iterator_tag@0@@Z 0041ff30 f i OgreAllVehicle.obj
 0001:0001ef60       ??$_Destroy_range@PAVOgreVehicle@@V?$allocator@PAVOgreVehicle@@@std@@@std@@YAXPAPAVOgreVehicle@@0AAV?$allocator@PAVOgreVehicle@@@0@U_Scalar_ptr_iterator_tag@0@@Z 0041ff60 f i OgreAllVehicle.obj
 0001:0001ef70       ??$_Uninitialized_copy@PAPAVOgreVehicle@@PAPAV1@V?$allocator@PAVOgreVehicle@@@std@@@std@@YAPAPAVOgreVehicle@@PAPAV1@00AAV?$allocator@PAVOgreVehicle@@@0@@Z 0041ff70 f i OgreAllVehicle.obj
 0001:0001efb0       ??$_Copy_backward_opt@PAPAVOgreVehicle@@PAPAV1@@std@@YAPAPAVOgreVehicle@@PAPAV1@00U_Scalar_ptr_iterator_tag@0@@Z 0041ffb0 f i OgreAllVehicle.obj
 0001:0001eff0       ?construct@?$allocator@W4ItemType@@@std@@QAEXPAW4ItemType@@ABW43@@Z 0041fff0 f i OgreAllVehicle.obj
 0001:0001f010       ??$fill_n@PAPAVOgreVehicle@@IPAV1@@std@@YAXPAPAVOgreVehicle@@IABQAV1@@Z 00420010 f i OgreAllVehicle.obj
 0001:0001f040       ??$_Uninit_copy@PAW4ItemType@@PAW41@V?$allocator@W4ItemType@@@std@@@std@@YAPAW4ItemType@@PAW41@00AAV?$allocator@W4ItemType@@@0@U_Nonscalar_ptr_iterator_tag@0@@Z 00420040 f i OgreAllVehicle.obj
 0001:0001f0f0       ??$_Uninit_copy@PAVOgreVehicle@@PAV1@@std@@YAPAPAVOgreVehicle@@PAPAV1@00AAV?$allocator@PAVOgreVehicle@@@0@U_Scalar_ptr_iterator_tag@0@@Z 004200f0 f i OgreAllVehicle.obj
 0001:0001f130       ??$_Construct@W4ItemType@@W41@@std@@YAXPAW4ItemType@@ABW41@@Z 00420130 f i OgreAllVehicle.obj
 0001:0001f170       ??0OgreTerrain@@QAE@PAVSceneManager@Ogre@@@Z 00420170 f   OgreTerrain.obj
 0001:0001f220       ??1OgreTerrain@@UAE@XZ     00420220 f   OgreTerrain.obj
 0001:0001f240       ?createOgreTerrain@OgreTerrain@@QAEXXZ 00420240 f   OgreTerrain.obj
 0001:0001f3c0       ?addUser@OgreTerrain@@QAEXV?$basic_string@DU?$char_traits@D@std@@V?$allocator@D@2@@std@@VVector3@Ogre@@@Z 004203c0 f   OgreTerrain.obj
 0001:0001f450       ?updateAllOgre@OgreTerrain@@QAEXPAUAllVehicleInfoOgre@@@Z 00420450 f   OgreTerrain.obj
 0001:0001f4d0       ?userCamera@OgreTerrain@@QAEHPAVCamera@Ogre@@ABV?$basic_string@DU?$char_traits@D@std@@V?$allocator@D@2@@std@@@Z 004204d0 f   OgreTerrain.obj
 0001:0001f810       ?wholeCamera@OgreTerrain@@QAEXPAVCamera@Ogre@@@Z 00420810 f   OgreTerrain.obj
 0001:0001f870       ?switchCamera@OgreTerrain@@QAEHPAVCamera@Ogre@@@Z 00420870 f   OgreTerrain.obj
 0001:0001f8f0       ?addVehicleItem@OgreTerrain@@QAEXW4ItemType@@ABV?$basic_string@DU?$char_traits@D@std@@V?$allocator@D@2@@std@@@Z 004208f0 f   OgreTerrain.obj
 0001:0001f920       ?addTerrainItem@OgreTerrain@@QAEXABVVector3@Ogre@@W4ItemType@@H@Z 00420920 f   OgreTerrain.obj
 0001:0001f960       ?removeTerrainItem@OgreTerrain@@QAEXH@Z 00420960 f   OgreTerrain.obj
 0001:0001f9e0       ?turnAllTerrainItem@OgreTerrain@@QAEXM@Z 004209e0 f   OgreTerrain.obj
 0001:0001fa60       ?getCurrentVehicleItem@OgreTerrain@@QAE?AW4ItemType@@ABV?$basic_string@DU?$char_traits@D@std@@V?$allocator@D@2@@std@@@Z 00420a60 f   OgreTerrain.obj
 0001:0001fa90       ?getAllItem@OgreTerrain@@QAEPAV?$vector@W4ItemType@@V?$allocator@W4ItemType@@@std@@@std@@ABV?$basic_string@DU?$char_traits@D@std@@V?$allocator@D@2@@3@@Z 00420a90 f   OgreTerrain.obj
 0001:0001fac0       ?removeCurrentVehicleItem@OgreTerrain@@QAE?AW4ItemType@@ABV?$basic_string@DU?$char_traits@D@std@@V?$allocator@D@2@@std@@@Z 00420ac0 f   OgreTerrain.obj
 0001:0001faf0       ?addScratchLine@OgreTerrain@@QAEXXZ 00420af0 f   OgreTerrain.obj
 0001:0001fc30       ?setToBeginning@OgreTerrain@@QAEXABV?$basic_string@DU?$char_traits@D@std@@V?$allocator@D@2@@std@@@Z 00420c30 f   OgreTerrain.obj
 0001:0001fc60       ??_GOgreTerrain@@UAEPAXI@Z 00420c60 f i OgreTerrain.obj
 0001:0001fc60       ??_EOgreTerrain@@UAEPAXI@Z 00420c60 f i OgreTerrain.obj
 0001:0001fc90       ??0?$vector@PAVOgreTerrainItem@@V?$allocator@PAVOgreTerrainItem@@@std@@@std@@QAE@XZ 00420c90 f i OgreTerrain.obj
 0001:0001fcc0       ??1?$vector@PAVOgreTerrainItem@@V?$allocator@PAVOgreTerrainItem@@@std@@@std@@QAE@XZ 00420cc0 f i OgreTerrain.obj
 0001:0001fce0       ?begin@?$vector@PAVOgreTerrainItem@@V?$allocator@PAVOgreTerrainItem@@@std@@@std@@QAE?AViterator@12@XZ 00420ce0 f i OgreTerrain.obj
 0001:0001fd00       ?end@?$vector@PAVOgreTerrainItem@@V?$allocator@PAVOgreTerrainItem@@@std@@@std@@QAE?AViterator@12@XZ 00420d00 f i OgreTerrain.obj
 0001:0001fd20       ?push_back@?$vector@PAVOgreTerrainItem@@V?$allocator@PAVOgreTerrainItem@@@std@@@std@@QAEXABQAVOgreTerrainItem@@@Z 00420d20 f i OgreTerrain.obj
 0001:0001fd90       ?erase@?$vector@PAVOgreTerrainItem@@V?$allocator@PAVOgreTerrainItem@@@std@@@std@@QAE?AViterator@12@V312@@Z 00420d90 f i OgreTerrain.obj
 0001:0001fdf0       ?clear@?$vector@PAVOgreTerrainItem@@V?$allocator@PAVOgreTerrainItem@@@std@@@std@@QAEXXZ 00420df0 f i OgreTerrain.obj
 0001:0001fe10       ??Diterator@?$vector@PAVOgreTerrainItem@@V?$allocator@PAVOgreTerrainItem@@@std@@@std@@QBEAAPAVOgreTerrainItem@@XZ 00420e10 f i OgreTerrain.obj
 0001:0001fe30       ??Eiterator@?$vector@PAVOgreTerrainItem@@V?$allocator@PAVOgreTerrainItem@@@std@@@std@@QAE?AV012@H@Z 00420e30 f i OgreTerrain.obj
 0001:0001fe60       ??9const_iterator@?$vector@PAVOgreTerrainItem@@V?$allocator@PAVOgreTerrainItem@@@std@@@std@@QBE_NABV012@@Z 00420e60 f i OgreTerrain.obj
 0001:0001fe90       ?capacity@?$vector@PAVOgreTerrainItem@@V?$allocator@PAVOgreTerrainItem@@@std@@@std@@QBEIXZ 00420e90 f i OgreTerrain.obj
 0001:0001fed0       ?size@?$vector@PAVOgreTerrainItem@@V?$allocator@PAVOgreTerrainItem@@@std@@@std@@QBEIXZ 00420ed0 f i OgreTerrain.obj
 0001:0001ff10       ?insert@?$vector@PAVOgreTerrainItem@@V?$allocator@PAVOgreTerrainItem@@@std@@@std@@QAE?AViterator@12@V312@ABQAVOgreTerrainItem@@@Z 00420f10 f i OgreTerrain.obj
 0001:0001ff90       ?_Buy@?$vector@PAVOgreTerrainItem@@V?$allocator@PAVOgreTerrainItem@@@std@@@std@@IAE_NI@Z 00420f90 f i OgreTerrain.obj
 0001:00020010       ?_Destroy@?$vector@PAVOgreTerrainItem@@V?$allocator@PAVOgreTerrainItem@@@std@@@std@@IAEXPAPAVOgreTerrainItem@@0@Z 00421010 f i OgreTerrain.obj
 0001:00020040       ?_Tidy@?$vector@PAVOgreTerrainItem@@V?$allocator@PAVOgreTerrainItem@@@std@@@std@@IAEXXZ 00421040 f i OgreTerrain.obj
 0001:000200b0       ?_Ufill@?$vector@PAVOgreTerrainItem@@V?$allocator@PAVOgreTerrainItem@@@std@@@std@@IAEPAPAVOgreTerrainItem@@PAPAV3@IABQAV3@@Z 004210b0 f i OgreTerrain.obj
 0001:000200e0       ??0?$_Vector_val@PAVOgreTerrainItem@@V?$allocator@PAVOgreTerrainItem@@@std@@@std@@IAE@V?$allocator@PAVOgreTerrainItem@@@1@@Z 004210e0 f i OgreTerrain.obj
 0001:00020100       ??0?$allocator@PAVOgreTerrainItem@@@std@@QAE@XZ 00421100 f i OgreTerrain.obj
 0001:00020110       ??0iterator@?$vector@PAVOgreTerrainItem@@V?$allocator@PAVOgreTerrainItem@@@std@@@std@@QAE@PAPAVOgreTerrainItem@@@Z 00421110 f i OgreTerrain.obj
 0001:00020130       ??Eiterator@?$vector@PAVOgreTerrainItem@@V?$allocator@PAVOgreTerrainItem@@@std@@@std@@QAEAAV012@XZ 00421130 f i OgreTerrain.obj
 0001:00020150       ??Dconst_iterator@?$vector@PAVOgreTerrainItem@@V?$allocator@PAVOgreTerrainItem@@@std@@@std@@QBEABQAVOgreTerrainItem@@XZ 00421150 f i OgreTerrain.obj
 0001:00020160       ??8const_iterator@?$vector@PAVOgreTerrainItem@@V?$allocator@PAVOgreTerrainItem@@@std@@@std@@QBE_NABV012@@Z 00421160 f i OgreTerrain.obj
 0001:00020180       ?max_size@?$vector@PAVOgreTerrainItem@@V?$allocator@PAVOgreTerrainItem@@@std@@@std@@QBEIXZ 00421180 f i OgreTerrain.obj
 0001:000201a0       ?_Insert_n@?$vector@PAVOgreTerrainItem@@V?$allocator@PAVOgreTerrainItem@@@std@@@std@@IAEXViterator@12@IABQAVOgreTerrainItem@@@Z 004211a0 f i OgreTerrain.obj
 0001:000204c0       ?_Xlen@?$vector@PAVOgreTerrainItem@@V?$allocator@PAVOgreTerrainItem@@@std@@@std@@IBEXXZ 004214c0 f i OgreTerrain.obj
 0001:00020520       ??0?$allocator@PAVOgreTerrainItem@@@std@@QAE@ABV01@@Z 00421520 f i OgreTerrain.obj
 0001:00020530       ?deallocate@?$allocator@PAVOgreTerrainItem@@@std@@QAEXPAPAVOgreTerrainItem@@I@Z 00421530 f i OgreTerrain.obj
 0001:00020550       ?allocate@?$allocator@PAVOgreTerrainItem@@@std@@QAEPAPAVOgreTerrainItem@@I@Z 00421550 f i OgreTerrain.obj
 0001:00020570       ??Hiterator@?$vector@PAVOgreTerrainItem@@V?$allocator@PAVOgreTerrainItem@@@std@@@std@@QBE?AV012@H@Z 00421570 f i OgreTerrain.obj
 0001:000205a0       ??Giterator@?$vector@PAVOgreTerrainItem@@V?$allocator@PAVOgreTerrainItem@@@std@@@std@@QBEHABVconst_iterator@12@@Z 004215a0 f i OgreTerrain.obj
 0001:000205d0       ??0const_iterator@?$vector@PAVOgreTerrainItem@@V?$allocator@PAVOgreTerrainItem@@@std@@@std@@QAE@PAPAVOgreTerrainItem@@@Z 004215d0 f i OgreTerrain.obj
 0001:000205f0       ?max_size@?$allocator@PAVOgreTerrainItem@@@std@@QBEIXZ 004215f0 f i OgreTerrain.obj
 0001:00020620       ??Yiterator@?$vector@PAVOgreTerrainItem@@V?$allocator@PAVOgreTerrainItem@@@std@@@std@@QAEAAV012@H@Z 00421620 f i OgreTerrain.obj
 0001:00020640       ??Gconst_iterator@?$vector@PAVOgreTerrainItem@@V?$allocator@PAVOgreTerrainItem@@@std@@@std@@QBEHABV012@@Z 00421640 f i OgreTerrain.obj
 0001:00020660       ??$copy@PAPAVOgreTerrainItem@@PAPAV1@@std@@YAPAPAVOgreTerrainItem@@PAPAV1@00@Z 00421660 f i OgreTerrain.obj
 0001:000206a0       ??$_Destroy_range@PAVOgreTerrainItem@@V?$allocator@PAVOgreTerrainItem@@@std@@@std@@YAXPAPAVOgreTerrainItem@@0AAV?$allocator@PAVOgreTerrainItem@@@0@@Z 004216a0 f i OgreTerrain.obj
 0001:000206e0       ??$_Uninitialized_fill_n@PAPAVOgreTerrainItem@@IPAV1@V?$allocator@PAVOgreTerrainItem@@@std@@@std@@YAXPAPAVOgreTerrainItem@@IABQAV1@AAV?$allocator@PAVOgreTerrainItem@@@0@@Z 004216e0 f i OgreTerrain.obj
 0001:00020720       ??$_Ucopy@PAPAVOgreTerrainItem@@@?$vector@PAVOgreTerrainItem@@V?$allocator@PAVOgreTerrainItem@@@std@@@std@@IAEPAPAVOgreTerrainItem@@PAPAV2@00@Z 00421720 f i OgreTerrain.obj
 0001:00020750       ??$fill@PAPAVOgreTerrainItem@@PAV1@@std@@YAXPAPAVOgreTerrainItem@@0ABQAV1@@Z 00421750 f i OgreTerrain.obj
 0001:00020780       ??$copy_backward@PAPAVOgreTerrainItem@@PAPAV1@@std@@YAPAPAVOgreTerrainItem@@PAPAV1@00@Z 00421780 f i OgreTerrain.obj
 0001:000207c0       ??$_Allocate@PAVOgreTerrainItem@@@std@@YAPAPAVOgreTerrainItem@@IPAPAV1@@Z 004217c0 f i OgreTerrain.obj
 0001:000207e0       ??$_Ptr_cat@VOgreTerrainItem@@@std@@YA?AU_Scalar_ptr_iterator_tag@0@PAPAVOgreTerrainItem@@0@Z 004217e0 f i OgreTerrain.obj
 0001:000207f0       ??$_Copy_opt@PAPAVOgreTerrainItem@@PAPAV1@@std@@YAPAPAVOgreTerrainItem@@PAPAV1@00U_Scalar_ptr_iterator_tag@0@@Z 004217f0 f i OgreTerrain.obj
 0001:00020830       ??$_Destroy_range@PAVOgreTerrainItem@@V?$allocator@PAVOgreTerrainItem@@@std@@@std@@YAXPAPAVOgreTerrainItem@@0AAV?$allocator@PAVOgreTerrainItem@@@0@U_Scalar_ptr_iterator_tag@0@@Z 00421830 f i OgreTerrain.obj
 0001:00020840       ??$_Uninit_fill_n@PAVOgreTerrainItem@@IPAV1@@std@@YAXPAPAVOgreTerrainItem@@IABQAV1@AAV?$allocator@PAVOgreTerrainItem@@@0@U_Scalar_ptr_iterator_tag@0@@Z 00421840 f i OgreTerrain.obj
 0001:00020860       ??$_Uninitialized_copy@PAPAVOgreTerrainItem@@PAPAV1@V?$allocator@PAVOgreTerrainItem@@@std@@@std@@YAPAPAVOgreTerrainItem@@PAPAV1@00AAV?$allocator@PAVOgreTerrainItem@@@0@@Z 00421860 f i OgreTerrain.obj
 0001:000208a0       ??$_Copy_backward_opt@PAPAVOgreTerrainItem@@PAPAV1@@std@@YAPAPAVOgreTerrainItem@@PAPAV1@00U_Scalar_ptr_iterator_tag@0@@Z 004218a0 f i OgreTerrain.obj
 0001:000208e0       ??$fill_n@PAPAVOgreTerrainItem@@IPAV1@@std@@YAXPAPAVOgreTerrainItem@@IABQAV1@@Z 004218e0 f i OgreTerrain.obj
 0001:00020910       ??$_Uninit_copy@PAVOgreTerrainItem@@PAV1@@std@@YAPAPAVOgreTerrainItem@@PAPAV1@00AAV?$allocator@PAVOgreTerrainItem@@@0@U_Scalar_ptr_iterator_tag@0@@Z 00421910 f i OgreTerrain.obj
 0001:00020942       _CloseHandle@4             00421942 f   kernel32:KERNEL32.dll
 0001:00020948       _GetFileSize@8             00421948 f   kernel32:KERNEL32.dll
 0001:0002094e       _CreateFileA@28            0042194e f   kernel32:KERNEL32.dll
 0001:00020954       _Sleep@4                   00421954 f   kernel32:KERNEL32.dll
 0001:0002095a       _LockResource@4            0042195a f   kernel32:KERNEL32.dll
 0001:00020960       _SizeofResource@8          00421960 f   kernel32:KERNEL32.dll
 0001:00020966       _LoadResource@8            00421966 f   kernel32:KERNEL32.dll
 0001:0002096c       _GetModuleHandleA@4        0042196c f   kernel32:KERNEL32.dll
 0001:00020972       _FindResourceA@12          00421972 f   kernel32:KERNEL32.dll
 0001:00020978       _MessageBoxA@16            00421978 f   user32:USER32.dll
 0001:0002097e       _GetForegroundWindow@0     0042197e f   user32:USER32.dll
 0001:00020990       _memset                    00421990 f   LIBCMTD:memset.obj
 0001:000209f0       @__security_check_cookie@4 004219f0 f   LIBCMTD:secchk.obj
 0001:00020a70       __fpmath                   00421a70 f   LIBCMTD:fpinit.obj
 0001:00020aa0       __fpclear                  00421aa0 f   LIBCMTD:fpinit.obj
 0001:00020ab0       __cfltcvt_init             00421ab0 f   LIBCMTD:fpinit.obj
 0001:00020b00       ___setfflag                00421b00 f   LIBCMTD:fpinit.obj
 0001:00020b20       ?_JumpToContinuation@@YGXPAXPAUEHRegistrationNode@@@Z 00421b20 f   LIBCMTD:trnsctrl.obj
 0001:00020b60       ?_CallMemberFunction0@@YGXPAX0@Z 00421b60 f   LIBCMTD:trnsctrl.obj
 0001:00020b70       ?_CallMemberFunction1@@YGXPAX00@Z 00421b70 f   LIBCMTD:trnsctrl.obj
 0001:00020b80       ?_CallMemberFunction2@@YGXPAX00H@Z 00421b80 f   LIBCMTD:trnsctrl.obj
 0001:00020b90       ?_UnwindNestedFrames@@YGXPAUEHRegistrationNode@@PAUEHExceptionRecord@@@Z 00421b90 f   LIBCMTD:trnsctrl.obj
 0001:00020bf0       ___CxxFrameHandler         00421bf0 f   LIBCMTD:trnsctrl.obj
 0001:00020c30       ___CxxLongjmpUnwind@4      00421c30 f   LIBCMTD:trnsctrl.obj
 0001:00020c60       ?_CallCatchBlock2@@YAPAXPAUEHRegistrationNode@@PBU_s_FuncInfo@@PAXHK@Z 00421c60 f   LIBCMTD:trnsctrl.obj
 0001:00020d30       ?_CallSETranslator@@YAHPAUEHExceptionRecord@@PAUEHRegistrationNode@@PAX2PBU_s_FuncInfo@@H1@Z 00421d30 f   LIBCMTD:trnsctrl.obj
 0001:00020ee0       ?_GetRangeOfTrysToCheck@@YAPBU_s_TryBlockMapEntry@@PBU_s_FuncInfo@@HHPAI1@Z 00421ee0 f   LIBCMTD:trnsctrl.obj
 0001:00020f70       ?_CreateFrameInfo@@YAPAUFrameInfo@@PAU1@PAX@Z 00421f70 f   LIBCMTD:trnsctrl.obj
 0001:00020fa0       ?IsExceptionObjectToBeDestroyed@@YAHPAX@Z 00421fa0 f   LIBCMTD:trnsctrl.obj
 0001:00020fd0       ?_FindAndUnlinkFrame@@YAXPAUFrameInfo@@@Z 00421fd0 f   LIBCMTD:trnsctrl.obj
 0001:00021028       __global_unwind2           00422028 f   LIBCMTD:exsup.obj
 0001:0002106a       __local_unwind2            0042206a f   LIBCMTD:exsup.obj
 0001:000210c2       __NLG_Return2              004220c2     LIBCMTD:exsup.obj
 0001:000210d2       __abnormal_termination     004220d2 f   LIBCMTD:exsup.obj
 0001:000210f5       __NLG_Notify1              004220f5 f   LIBCMTD:exsup.obj
 0001:000210fe       __NLG_Notify               004220fe f   LIBCMTD:exsup.obj
 0001:00021111       __NLG_Dispatch             00422111     LIBCMTD:exsup.obj
 0001:00021120       _memcpy                    00422120 f   LIBCMTD:memcpy.obj
 0001:00021460       ??_M@YGXPAXIHP6EX0@Z@Z     00422460 f   LIBCMTD:ehvecdtr.obj
 0001:00021500       ?__ArrayUnwind@@YGXPAXIHP6EX0@Z@Z 00422500 f   LIBCMTD:ehvecdtr.obj
 0001:000215b0       ??1type_info@@UAE@XZ       004225b0 f   LIBCMTD:typinfo.obj
 0001:00021640       ??_Gtype_info@@UAEPAXI@Z   00422640 f i LIBCMTD:typinfo.obj
 0001:00021640       ??_Etype_info@@UAEPAXI@Z   00422640 f i LIBCMTD:typinfo.obj
 0001:00021670       ??8type_info@@QBEHABV0@@Z  00422670 f   LIBCMTD:typinfo.obj
 0001:000216a0       ??9type_info@@QBEHABV0@@Z  004226a0 f   LIBCMTD:typinfo.obj
 0001:000216d0       ?before@type_info@@QBEHABV1@@Z 004226d0 f   LIBCMTD:typinfo.obj
 0001:00021700       ?raw_name@type_info@@QBEPBDXZ 00422700 f   LIBCMTD:typinfo.obj
 0001:00021720       ??0type_info@@AAE@ABV0@@Z  00422720 f   LIBCMTD:typinfo.obj
 0001:00021740       ??4type_info@@AAEAAV0@ABV0@@Z 00422740 f   LIBCMTD:typinfo.obj
 0001:00021750       __purecall                 00422750 f   LIBCMTD:purevirt.obj
 0001:00021770       __set_purecall_handler     00422770 f   LIBCMTD:purevirt.obj
 0001:000217a0       _sprintf                   004227a0 f   LIBCMTD:sprintf.obj
 0001:00021890       __scprintf                 00422890 f   LIBCMTD:sprintf.obj
 0001:00021910       __onexit                   00422910 f   LIBCMTD:onexit.obj
 0001:00021a70       _atexit                    00422a70 f   LIBCMTD:onexit.obj
 0001:00021a90       ___onexitinit              00422a90 f   LIBCMTD:onexit.obj
 0001:00021adc       __ftol2                    00422adc f   LIBCMTD:ftol2.obj
 0001:00021b60       _fclose                    00422b60 f   LIBCMTD:fclose.obj
 0001:00021c20       __fclose_lk                00422c20 f   LIBCMTD:fclose.obj
 0001:00021cd0       _fread                     00422cd0 f   LIBCMTD:fread.obj
 0001:00021d50       __fread_lk                 00422d50 f   LIBCMTD:fread.obj
 0001:00021f20       __fsopen                   00422f20 f   LIBCMTD:fopen.obj
 0001:00022050       _fopen                     00423050 f   LIBCMTD:fopen.obj
 0001:00022070       ??_L@YGXPAXIHP6EX0@Z1@Z    00423070 f   LIBCMTD:ehvecctr.obj
 0001:00022110       _srand                     00423110 f   LIBCMTD:rand.obj
 0001:00022120       _rand                      00423120 f   LIBCMTD:rand.obj
 0001:00022160       _fwrite                    00423160 f   LIBCMTD:fwrite.obj
 0001:000221e0       __fwrite_lk                004231e0 f   LIBCMTD:fwrite.obj
 0001:00022400       _memmove                   00423400 f   LIBCMTD:memmove.obj
 0001:00022740       __CxxThrowException@8      00423740 f   LIBCMTD:throw.obj
 0001:00022790       __CIsqrt                   00423790 f   LIBCMTD:sqrt.obj
 0001:000227a4       _sqrt                      004237a4     LIBCMTD:sqrt.obj
 0001:00022850       __CIsin                    00423850 f   LIBCMTD:sin.obj
 0001:00022864       _sin                       00423864     LIBCMTD:sin.obj
 0001:00022900       __CIcos                    00423900 f   LIBCMTD:cos.obj
 0001:00022914       _cos                       00423914     LIBCMTD:cos.obj
 0001:000229b0       __copysign                 004239b0 f   LIBCMTD:ieeemisc.obj
 0001:000229e0       __chgsign                  004239e0 f   LIBCMTD:ieeemisc.obj
 0001:00022a10       __scalb                    00423a10 f   LIBCMTD:ieeemisc.obj
 0001:00022a30       __logb                     00423a30 f   LIBCMTD:ieeemisc.obj
 0001:00022b60       __nextafter                00423b60 f   LIBCMTD:ieeemisc.obj
 0001:00022e90       __finite                   00423e90 f   LIBCMTD:ieeemisc.obj
 0001:00022eb0       __isnan                    00423eb0 f   LIBCMTD:ieeemisc.obj
 0001:00022ef0       __fpclass                  00423ef0 f   LIBCMTD:ieeemisc.obj
 0001:00022fc0       _malloc                    00423fc0 f   LIBCMTD:dbgheap.obj
 0001:00022ff0       __malloc_dbg               00423ff0 f   LIBCMTD:dbgheap.obj
 0001:00023020       __nh_malloc                00424020 f   LIBCMTD:dbgheap.obj
 0001:00023040       __nh_malloc_dbg            00424040 f   LIBCMTD:dbgheap.obj
 0001:000230e0       __heap_alloc               004240e0 f   LIBCMTD:dbgheap.obj
 0001:00023100       __heap_alloc_dbg           00424100 f   LIBCMTD:dbgheap.obj
 0001:00023420       _calloc                    00424420 f   LIBCMTD:dbgheap.obj
 0001:00023450       __calloc_dbg               00424450 f   LIBCMTD:dbgheap.obj
 0001:000234b0       _realloc                   004244b0 f   LIBCMTD:dbgheap.obj
 0001:000234e0       __realloc_dbg              004244e0 f   LIBCMTD:dbgheap.obj
 0001:00023a80       __expand                   00424a80 f   LIBCMTD:dbgheap.obj
 0001:00023ab0       __expand_dbg               00424ab0 f   LIBCMTD:dbgheap.obj
 0001:00023b40       _free                      00424b40 f   LIBCMTD:dbgheap.obj
 0001:00023b60       __free_lk                  00424b60 f   LIBCMTD:dbgheap.obj
 0001:00023b80       __free_dbg                 00424b80 f   LIBCMTD:dbgheap.obj
 0001:00023bf0       __free_dbg_lk              00424bf0 f   LIBCMTD:dbgheap.obj
 0001:00024000       __msize                    00425000 f   LIBCMTD:dbgheap.obj
 0001:00024020       __msize_dbg                00425020 f   LIBCMTD:dbgheap.obj
 0001:00024190       __CrtSetBreakAlloc         00425190 f   LIBCMTD:dbgheap.obj
 0001:000241b0       __CrtSetDbgBlockType       004251b0 f   LIBCMTD:dbgheap.obj
 0001:00024290       __CrtSetAllocHook          00425290 f   LIBCMTD:dbgheap.obj
 0001:00024300       __CrtCheckMemory           00425300 f   LIBCMTD:dbgheap.obj
 0001:00024670       __CrtSetDbgFlag            00425670 f   LIBCMTD:dbgheap.obj
 0001:00024720       __CrtDoForAllClientObjects 00425720 f   LIBCMTD:dbgheap.obj
 0001:000247d0       __CrtIsValidPointer        004257d0 f   LIBCMTD:dbgheap.obj
 0001:00024820       __CrtIsValidHeapPointer    00425820 f   LIBCMTD:dbgheap.obj
 0001:000248d0       __CrtIsMemoryBlock         004258d0 f   LIBCMTD:dbgheap.obj
 0001:00024a00       __CrtReportBlockType       00425a00 f   LIBCMTD:dbgheap.obj
 0001:00024a30       __CrtSetDumpClient         00425a30 f   LIBCMTD:dbgheap.obj
 0001:00024a50       __CrtMemCheckpoint         00425a50 f   LIBCMTD:dbgheap.obj
 0001:00024bf0       __CrtMemDifference         00425bf0 f   LIBCMTD:dbgheap.obj
 0001:00024d10       __CrtMemDumpAllObjectsSince 00425d10 f   LIBCMTD:dbgheap.obj
 0001:00025110       __CrtDumpMemoryLeaks       00426110 f   LIBCMTD:dbgheap.obj
 0001:00025180       __CrtMemDumpStatistics     00426180 f   LIBCMTD:dbgheap.obj
 0001:00025230       __aligned_malloc           00426230 f   LIBCMTD:dbgheap.obj
 0001:00025250       __aligned_malloc_dbg       00426250 f   LIBCMTD:dbgheap.obj
 0001:00025270       __aligned_realloc          00426270 f   LIBCMTD:dbgheap.obj
 0001:00025290       __aligned_realloc_dbg      00426290 f   LIBCMTD:dbgheap.obj
 0001:000252c0       __aligned_offset_malloc    004262c0 f   LIBCMTD:dbgheap.obj
 0001:000252e0       __aligned_offset_malloc_dbg 004262e0 f   LIBCMTD:dbgheap.obj
 0001:00025420       __aligned_offset_realloc   00426420 f   LIBCMTD:dbgheap.obj
 0001:00025450       __aligned_offset_realloc_dbg 00426450 f   LIBCMTD:dbgheap.obj
 0001:000256b0       __aligned_free             004266b0 f   LIBCMTD:dbgheap.obj
 0001:000256d0       __aligned_free_dbg         004266d0 f   LIBCMTD:dbgheap.obj
 0001:00025780       ??0exception@@QAE@XZ       00426780 f   LIBCMTD:stdexcpt.obj
 0001:000257b0       ??_Gexception@@UAEPAXI@Z   004267b0 f i LIBCMTD:stdexcpt.obj
 0001:000257b0       ??_Eexception@@UAEPAXI@Z   004267b0 f i LIBCMTD:stdexcpt.obj
 0001:000257e0       ??0exception@@QAE@ABQBD@Z  004267e0 f   LIBCMTD:stdexcpt.obj
 0001:00025850       ??0exception@@QAE@ABV0@@Z  00426850 f   LIBCMTD:stdexcpt.obj
 0001:000258d0       ??4exception@@QAEAAV0@ABV0@@Z 004268d0 f   LIBCMTD:stdexcpt.obj
 0001:00025900       ??1exception@@UAE@XZ       00426900 f   LIBCMTD:stdexcpt.obj
 0001:00025930       ?what@exception@@UBEPBDXZ  00426930 f   LIBCMTD:stdexcpt.obj
 0001:00025960       ??0bad_cast@@QAE@PBD@Z     00426960 f   LIBCMTD:stdexcpt.obj
 0001:00025990       ??_Ebad_cast@@UAEPAXI@Z    00426990 f i LIBCMTD:stdexcpt.obj
 0001:00025990       ??_Gbad_cast@@UAEPAXI@Z    00426990 f i LIBCMTD:stdexcpt.obj
 0001:000259c0       ??0bad_cast@@QAE@ABV0@@Z   004269c0 f   LIBCMTD:stdexcpt.obj
 0001:000259f0       ??1bad_cast@@UAE@XZ        004269f0 f   LIBCMTD:stdexcpt.obj
 0001:00025a10       ??0bad_typeid@@QAE@PBD@Z   00426a10 f   LIBCMTD:stdexcpt.obj
 0001:00025a40       ??_Gbad_typeid@@UAEPAXI@Z  00426a40 f i LIBCMTD:stdexcpt.obj
 0001:00025a40       ??_Ebad_typeid@@UAEPAXI@Z  00426a40 f i LIBCMTD:stdexcpt.obj
 0001:00025a70       ??0bad_typeid@@QAE@ABV0@@Z 00426a70 f   LIBCMTD:stdexcpt.obj
 0001:00025aa0       ??1bad_typeid@@UAE@XZ      00426aa0 f   LIBCMTD:stdexcpt.obj
 0001:00025ac0       ??0__non_rtti_object@@QAE@PBD@Z 00426ac0 f   LIBCMTD:stdexcpt.obj
 0001:00025af0       ??_G__non_rtti_object@@UAEPAXI@Z 00426af0 f i LIBCMTD:stdexcpt.obj
 0001:00025af0       ??_E__non_rtti_object@@UAEPAXI@Z 00426af0 f i LIBCMTD:stdexcpt.obj
 0001:00025b20       ??0__non_rtti_object@@QAE@ABV0@@Z 00426b20 f   LIBCMTD:stdexcpt.obj
 0001:00025b50       ??1__non_rtti_object@@UAE@XZ 00426b50 f   LIBCMTD:stdexcpt.obj
 0001:00025b70       __assert                   00426b70 f   LIBCMTD:assert.obj
 0001:00026170       _fprintf                   00427170 f   LIBCMTD:fprintf.obj
 0001:00026260       ___iob_func                00427260 f   LIBCMTD:_file.obj
 0001:00026270       ___initstdio               00427270 f   LIBCMTD:_file.obj
 0001:000263a0       ___endstdio                004273a0 f   LIBCMTD:_file.obj
 0001:000263c0       __lock_file                004273c0 f   LIBCMTD:_file.obj
 0001:00026400       __lock_file2               00427400 f   LIBCMTD:_file.obj
 0001:00026430       __unlock_file              00427430 f   LIBCMTD:_file.obj
 0001:00026470       __unlock_file2             00427470 f   LIBCMTD:_file.obj
 0001:000264a0       __CIacos                   004274a0 f   LIBCMTD:acos.obj
 0001:000264b4       _acos                      004274b4     LIBCMTD:acos.obj
 0001:00026570       _atan                      00427570 f   LIBCMTD:atan.obj
 0001:000265b0       __CIatan                   004275b0 f   LIBCMTD:atan.obj
 0001:000265eb       __CIatan_default           004275eb f   LIBCMTD:atan.obj
 0001:000265ff       __atan_default             004275ff     LIBCMTD:atan.obj
 0001:00026690       _fabs                      00427690 f   LIBCMTD:fabs.obj
 0001:00026790       _pow                       00427790 f   LIBCMTD:pow.obj
 0001:000267d0       __CIpow                    004277d0 f   LIBCMTD:pow.obj
 0001:0002680b       __CIpow_default            0042780b f   LIBCMTD:pow.obj
 0001:00026824       __pow_default              00427824     LIBCMTD:pow.obj
 0001:00026a20       __CItan                    00427a20 f   LIBCMTD:tan.obj
 0001:00026a34       _tan                       00427a34     LIBCMTD:tan.obj
 0001:00026ae0       _strlen                    00427ae0 f   LIBCMTD:strlen.obj
 0001:00026b70       _memcmp                    00427b70 f   LIBCMTD:memcmp.obj
 0001:00026c30       _WinMainCRTStartup         00427c30 f   LIBCMTD:wincrt0.obj
 0001:00026e50       __amsg_exit                00427e50 f   LIBCMTD:wincrt0.obj
 0001:00026f70       ___security_init_cookie    00427f70 f   LIBCMTD:seccinit.obj
 0001:00027010       ___security_error_handler  00428010 f   LIBCMTD:secfail.obj
 0001:00027240       __set_security_error_handler 00428240 f   LIBCMTD:secfail.obj
 0001:00027260       ___buffer_overrun          00428260 f   LIBCMTD:secfail.obj
 0001:00027280       ___set_buffer_overrun_handler 00428280 f   LIBCMTD:secfail.obj
 0001:0002729c       __except_handler3          0042829c f   LIBCMTD:exsup3.obj
 0001:00027382       __seh_longjmp_unwind@4     00428382 f   LIBCMTD:exsup3.obj
 0001:000273a0       __setdefaultprecision      004283a0 f   LIBCMTD:fp8.obj
 0001:000273c0       __ms_p5_test_fdiv          004283c0 f   LIBCMTD:testfdiv.obj
 0001:00027410       __ms_p5_mp_test_fdiv       00428410 f   LIBCMTD:testfdiv.obj
 0001:00027460       __forcdecpt                00428460 f   LIBCMTD:cvt.obj
 0001:000274e0       __cropzeros                004284e0 f   LIBCMTD:cvt.obj
 0001:000275c0       __positive                 004285c0 f   LIBCMTD:cvt.obj
 0001:000275f0       __fassign                  004285f0 f   LIBCMTD:cvt.obj
 0001:00027640       __cftoe                    00428640 f   LIBCMTD:cvt.obj
 0001:00027840       __cftof                    00428840 f   LIBCMTD:cvt.obj
 0001:00027a00       __cftog                    00428a00 f   LIBCMTD:cvt.obj
 0001:00027b00       __cfltcvt                  00428b00 f   LIBCMTD:cvt.obj
 0001:00027b90       ___InternalCxxFrameHandler 00428b90 f   LIBCMTD:frame.obj
 0001:00028100       ___FrameUnwindToState      00429100 f   LIBCMTD:frame.obj
 0001:00028870       ___DestructExceptionObject 00429870 f   LIBCMTD:frame.obj
 0001:00028950       ?__uncaught_exception@@YA_NXZ 00429950 f   LIBCMTD:frame.obj
 0001:00028970       ___CxxExceptionFilter      00429970 f   LIBCMTD:frame.obj
 0001:00028b20       ___CxxRegisterExceptionObject 00429b20 f   LIBCMTD:frame.obj
 0001:00028c40       ___CxxDetectRethrow        00429c40 f   LIBCMTD:frame.obj
 0001:00028ca0       ___CxxUnregisterExceptionObject 00429ca0 f   LIBCMTD:frame.obj
 0001:00028d70       ___CxxQueryExceptionSize   00429d70 f   LIBCMTD:frame.obj
 0001:00028d80       ___CxxCallUnwindDtor       00429d80 f   LIBCMTD:frame.obj
 0001:00028df0       ___CxxCallUnwindVecDtor    00429df0 f   LIBCMTD:frame.obj
 0001:00028e70       __CallSettingFrame@12      00429e70 f   LIBCMTD:lowhelpr.obj
 0001:00028e97       __NLG_Return               00429e97     LIBCMTD:lowhelpr.obj
 0001:00028ec0       ___crtTlsAlloc@4           00429ec0 f   LIBCMTD:tidtable.obj
 0001:00028ed0       __mtinit                   00429ed0 f   LIBCMTD:tidtable.obj
 0001:00029020       __mtterm                   0042a020 f   LIBCMTD:tidtable.obj
 0001:00029050       __initptd                  0042a050 f   LIBCMTD:tidtable.obj
 0001:00029070       __getptd                   0042a070 f   LIBCMTD:tidtable.obj
 0001:00029110       __freefls@4                0042a110 f   LIBCMTD:tidtable.obj
 0001:00029390       __freeptd                  0042a390 f   LIBCMTD:tidtable.obj
 0001:000293d0       ___threadid                0042a3d0 f   LIBCMTD:tidtable.obj
 0001:000293e0       ___threadhandle            0042a3e0 f   LIBCMTD:tidtable.obj
 0001:000293f0       ?terminate@@YAXXZ          0042a3f0 f   LIBCMTD:hooks.obj
 0001:00029460       ?unexpected@@YAXXZ         0042a460 f   LIBCMTD:hooks.obj
 0001:00029480       ?_inconsistency@@YAXXZ     0042a480 f   LIBCMTD:hooks.obj
 0001:000294f0       __mtinitlocks              0042a4f0 f   LIBCMTD:mlock.obj
 0001:00029580       __mtdeletelocks            0042a580 f   LIBCMTD:mlock.obj
 0001:00029640       __mtinitlocknum            0042a640 f   LIBCMTD:mlock.obj
 0001:00029760       __lock                     0042a760 f   LIBCMTD:mlock.obj
 0001:000297a0       __unlock                   0042a7a0 f   LIBCMTD:mlock.obj
 0001:000297c0       __lockerr_exit             0042a7c0 f   LIBCMTD:mlock.obj
 0001:000297e0       __free_base                0042a7e0 f   LIBCMTD:free.obj
 0001:000298b0       _strcmp                    0042a8b0 f   LIBCMTD:strcmp.obj
 0001:00029940       __flsbuf                   0042a940 f   LIBCMTD:_flsbuf.obj
 0001:00029ba0       __output                   0042aba0 f   LIBCMTD:output.obj
 0001:0002ab20       __CrtDbgBreak              0042bb20 f   LIBCMTD:dbgrpt.obj
 0001:0002ab30       __CrtSetReportMode         0042bb30 f   LIBCMTD:dbgrpt.obj
 0001:0002ab90       __CrtSetReportFile         0042bb90 f   LIBCMTD:dbgrpt.obj
 0001:0002ac10       __CrtSetReportHook         0042bc10 f   LIBCMTD:dbgrpt.obj
 0001:0002ac30       __CrtSetReportHook2        0042bc30 f   LIBCMTD:dbgrpt.obj
 0001:0002ae80       __CrtDbgReport             0042be80 f   LIBCMTD:dbgrpt.obj
 0001:0002b5f0       __cinit                    0042c5f0 f   LIBCMTD:crt0dat.obj
 0001:0002b650       _exit                      0042c650 f   LIBCMTD:crt0dat.obj
 0001:0002b670       __exit                     0042c670 f   LIBCMTD:crt0dat.obj
 0001:0002b690       __cexit                    0042c690 f   LIBCMTD:crt0dat.obj
 0001:0002b6b0       __c_exit                   0042c6b0 f   LIBCMTD:crt0dat.obj
 0001:0002b800       ___crtExitProcess          0042c800 f   LIBCMTD:crt0dat.obj
 0001:0002b850       __lockexit                 0042c850 f   LIBCMTD:crt0dat.obj
 0001:0002b860       __unlockexit               0042c860 f   LIBCMTD:crt0dat.obj
 0001:0002b8e0       __close                    0042c8e0 f   LIBCMTD:close.obj
 0001:0002b9d0       __close_lk                 0042c9d0 f   LIBCMTD:close.obj
 0001:0002ba80       __freebuf                  0042ca80 f   LIBCMTD:_freebuf.obj
 0001:0002bb10       _fflush                    0042cb10 f   LIBCMTD:fflush.obj
 0001:0002bba0       __fflush_lk                0042cba0 f   LIBCMTD:fflush.obj
 0001:0002bbe0       __flush                    0042cbe0 f   LIBCMTD:fflush.obj
 0001:0002bca0       __flushall                 0042cca0 f   LIBCMTD:fflush.obj
 0001:0002be40       __filbuf                   0042ce40 f   LIBCMTD:_filbuf.obj
 0001:0002c010       __read                     0042d010 f   LIBCMTD:read.obj
 0001:0002c120       __read_lk                  0042d120 f   LIBCMTD:read.obj
 0001:0002c560       __openfile                 0042d560 f   LIBCMTD:_open.obj
 0001:0002c8f0       __dosmaperr                0042d8f0 f   LIBCMTD:dosmap.obj
 0001:0002c990       __errno                    0042d990 f   LIBCMTD:dosmap.obj
 0001:0002c9a0       ___doserrno                0042d9a0 f   LIBCMTD:dosmap.obj
 0001:0002c9b0       __getstream                0042d9b0 f   LIBCMTD:stream.obj
 0001:0002cbe0       __write                    0042dbe0 f   LIBCMTD:write.obj
 0001:0002ccf0       __write_lk                 0042dcf0 f   LIBCMTD:write.obj
 0001:0002cfe0       ?__CxxUnhandledExceptionFilter@@YGJPAU_EXCEPTION_POINTERS@@@Z 0042dfe0 f   LIBCMTD:unhandld.obj
 0001:0002d050       ?__CxxSetUnhandledExceptionFilter@@YAHXZ 0042e050 f   LIBCMTD:unhandld.obj
 0001:0002d070       ?__CxxRestoreUnhandledExceptionFilter@@YAXXZ 0042e070 f   LIBCMTD:unhandld.obj
 0001:0002d090       __trandisp1                0042e090 f   LIBCMTD:87disp.obj
 0001:0002d0f7       __trandisp2                0042e0f7 f   LIBCMTD:87disp.obj
 0001:0002d183       __rttospopde               0042e183     LIBCMTD:87disp.obj
 0001:0002d188       __rttospop                 0042e188     LIBCMTD:87disp.obj
 0001:0002d18a       __rtnospop                 0042e18a     LIBCMTD:87disp.obj
 0001:0002d18c       __rttosnpop                0042e18c     LIBCMTD:87disp.obj
 0001:0002d18d       __rtnospopde               0042e18d     LIBCMTD:87disp.obj
 0001:0002d194       __rtzeropop                0042e194     LIBCMTD:87disp.obj
 0001:0002d196       __rtzeronpop               0042e196     LIBCMTD:87disp.obj
 0001:0002d19b       __rtonepop                 0042e19b     LIBCMTD:87disp.obj
 0001:0002d19d       __rtonenpop                0042e19d     LIBCMTD:87disp.obj
 0001:0002d1a2       __tosnan1                  0042e1a2     LIBCMTD:87disp.obj
 0001:0002d1cd       __nosnan2                  0042e1cd     LIBCMTD:87disp.obj
 0001:0002d1cf       __tosnan2                  0042e1cf     LIBCMTD:87disp.obj
 0001:0002d1f7       __nan2                     0042e1f7     LIBCMTD:87disp.obj
 0001:0002d236       __rtindfpop                0042e236     LIBCMTD:87disp.obj
 0001:0002d238       __rtindfnpop               0042e238     LIBCMTD:87disp.obj
 0001:0002d249       __rttosnpopde              0042e249     LIBCMTD:87disp.obj
 0001:0002d253       __rtchsifneg               0042e253     LIBCMTD:87disp.obj
 0001:0002d260       __startTwoArgErrorHandling 0042e260 f   LIBCMTD:genexcep.obj
 0001:0002d277       __startOneArgErrorHandling 0042e277 f   LIBCMTD:genexcep.obj
 0001:0002d2c0       __twoToTOS                 0042e2c0 f   LIBCMTD:common.obj
 0001:0002d2d5       __load_CW                  0042e2d5 f   LIBCMTD:common.obj
 0001:0002d2ec       __convertTOStoQNaN         0042e2ec f   LIBCMTD:common.obj
 0001:0002d305       __fload_withFB             0042e305 f   LIBCMTD:common.obj
 0001:0002d348       __checkTOS_withFB          0042e348 f   LIBCMTD:common.obj
 0001:0002d35e       __fast_exit                0042e35e f   LIBCMTD:common.obj
 0001:0002d36b       __math_exit                0042e36b f   LIBCMTD:common.obj
 0001:0002d395       __check_overflow_exit      0042e395 f   LIBCMTD:common.obj
 0001:0002d3a9       __check_range_exit         0042e3a9 f   LIBCMTD:common.obj
 0001:0002d450       _ldexp                     0042e450 f   LIBCMTD:ldexp.obj
 0001:0002d720       __set_exp                  0042e720 f   LIBCMTD:util.obj
 0001:0002d760       __get_exp                  0042e760 f   LIBCMTD:util.obj
 0001:0002d790       __add_exp                  0042e790 f   LIBCMTD:util.obj
 0001:0002d7c0       __set_bexp                 0042e7c0 f   LIBCMTD:util.obj
 0001:0002d7f0       __sptype                   0042e7f0 f   LIBCMTD:util.obj
 0001:0002d870       __decomp                   0042e870 f   LIBCMTD:util.obj
 0001:0002d9a0       __handle_qnan1             0042e9a0 f   LIBCMTD:fpexcept.obj
 0001:0002da00       __handle_qnan2             0042ea00 f   LIBCMTD:fpexcept.obj
 0001:0002da70       __except1                  0042ea70 f   LIBCMTD:fpexcept.obj
 0001:0002db70       __except2                  0042eb70 f   LIBCMTD:fpexcept.obj
 0001:0002dc80       __raise_exc                0042ec80 f   LIBCMTD:fpexcept.obj
 0001:0002e130       __handle_exc               0042f130 f   LIBCMTD:fpexcept.obj
 0001:0002e450       __umatherr                 0042f450 f   LIBCMTD:fpexcept.obj
 0001:0002e4f0       __set_errno                0042f4f0 f   LIBCMTD:fpexcept.obj
 0001:0002e570       __errcode                  0042f570 f   LIBCMTD:fpexcept.obj
 0001:0002e5e0       __statfp                   0042f5e0 f   LIBCMTD:fpctrl.obj
 0001:0002e5f0       __clrfp                    0042f5f0 f   LIBCMTD:fpctrl.obj
 0001:0002e610       __ctrlfp                   0042f610 f   LIBCMTD:fpctrl.obj
 0001:0002e640       __set_statfp               0042f640 f   LIBCMTD:fpctrl.obj
 0001:0002e6b0       ?_set_new_handler@@YAP6AHI@ZP6AHI@Z@Z 0042f6b0 f   LIBCMTD:handler.obj
 0001:0002e6e0       ?_query_new_handler@@YAP6AHI@ZXZ 0042f6e0 f   LIBCMTD:handler.obj
 0001:0002e6f0       __callnewh                 0042f6f0 f   LIBCMTD:handler.obj
 0001:0002e720       __malloc_base              0042f720 f   LIBCMTD:malloc.obj
 0001:0002e740       __nh_malloc_base           0042f740 f   LIBCMTD:malloc.obj
 0001:0002e7a0       __heap_alloc_base          0042f7a0 f   LIBCMTD:malloc.obj
 0001:0002e870       __CrtDefaultAllocHook      0042f870 f   LIBCMTD:dbghook.obj
 0001:0002e880       __expand_base              0042f880 f   LIBCMTD:expand.obj
 0001:0002e9a0       __realloc_base             0042f9a0 f   LIBCMTD:realloc.obj
 0001:0002ec50       __heapchk                  0042fc50 f   LIBCMTD:heapchk.obj
 0001:0002ed10       __heapset                  0042fd10 f   LIBCMTD:heapchk.obj
 0001:0002ed20       ___heap_select             0042fd20 f   LIBCMTD:heapinit.obj
 0001:0002ed50       __heap_init                0042fd50 f   LIBCMTD:heapinit.obj
 0001:0002edc0       __heap_term                0042fdc0 f   LIBCMTD:heapinit.obj
 0001:0002ee70       __get_heap_handle          0042fe70 f   LIBCMTD:heapinit.obj
 0001:0002ee80       __get_sbh_threshold        0042fe80 f   LIBCMTD:sbheap.obj
 0001:0002eea0       __set_sbh_threshold        0042fea0 f   LIBCMTD:sbheap.obj
 0001:0002ef10       ___sbh_heap_init           0042ff10 f   LIBCMTD:sbheap.obj
 0001:0002ef80       ___sbh_find_block          0042ff80 f   LIBCMTD:sbheap.obj
 0001:0002efe0       ___sbh_verify_block        0042ffe0 f   LIBCMTD:sbheap.obj
 0001:0002f040       ___sbh_free_block          00430040 f   LIBCMTD:sbheap.obj
 0001:0002f600       ___sbh_alloc_block         00430600 f   LIBCMTD:sbheap.obj
 0001:0002fb20       ___sbh_alloc_new_region    00430b20 f   LIBCMTD:sbheap.obj
 0001:0002fc30       ___sbh_alloc_new_group     00430c30 f   LIBCMTD:sbheap.obj
 0001:0002fe20       ___sbh_resize_block        00430e20 f   LIBCMTD:sbheap.obj
 0001:000303f0       ___sbh_heapmin             004313f0 f   LIBCMTD:sbheap.obj
 0001:00030520       ___sbh_heap_check          00431520 f   LIBCMTD:sbheap.obj
 0001:00030a30       ____setlc_active_func      00431a30 f   LIBCMTD:setlocal.obj
 0001:00030a40       ____unguarded_readlc_active_add_func 00431a40 f   LIBCMTD:setlocal.obj
 0001:00030a50       ___freetlocinfo            00431a50 f   LIBCMTD:setlocal.obj
 0001:00030bd0       ___updatetlocinfo          00431bd0 f   LIBCMTD:setlocal.obj
 0001:00030e10       _setlocale                 00431e10 f   LIBCMTD:setlocal.obj
 0001:000318c0       __expandlocale             004328c0 f   LIBCMTD:setlocal.obj
 0001:00031aa0       ___init_dummy              00432aa0 f   LIBCMTD:setlocal.obj
 0001:00031ab0       __strcats                  00432ab0 f   LIBCMTD:setlocal.obj
 0001:00031b00       ___lc_strtolc              00432b00 f   LIBCMTD:setlocal.obj
 0001:00031c70       ___lc_lctostr              00432c70 f   LIBCMTD:setlocal.obj
 0001:00031ce0       __chvalidator              00432ce0 f   LIBCMTD:isctype.obj
 0001:00031d20       __chvalidator_mt           00432d20 f   LIBCMTD:isctype.obj
 0001:00031d60       __isctype                  00432d60 f   LIBCMTD:isctype.obj
 0001:00031da0       ___isctype_mt              00432da0 f   LIBCMTD:isctype.obj
 0001:00031e60       _strcpy                    00432e60 f   LIBCMTD:strcat.obj
 0001:00031e70       _strcat                    00432e70 f   LIBCMTD:strcat.obj
 0001:00031f60       _abort                     00432f60 f   LIBCMTD:abort.obj
 0001:00031f80       _signal                    00432f80 f   LIBCMTD:winsig.obj
 0001:000322c0       _raise                     004332c0 f   LIBCMTD:winsig.obj
 0001:00032580       ___fpecode                 00433580 f   LIBCMTD:winsig.obj
 0001:00032590       ___pxcptinfoptrs           00433590 f   LIBCMTD:winsig.obj
 0001:000325a0       ___crtMessageBoxA          004335a0 f   LIBCMTD:crtmbox.obj
 0001:00032710       __itoa                     00433710 f   LIBCMTD:xtoa.obj
 0001:00032830       __ltoa                     00433830 f   LIBCMTD:xtoa.obj
 0001:00032870       __ultoa                    00433870 f   LIBCMTD:xtoa.obj
 0001:00032890       __i64toa                   00433890 f   LIBCMTD:xtoa.obj
 0001:000329e0       __ui64toa                  004339e0 f   LIBCMTD:xtoa.obj
 0001:00032a00       _strncat                   00433a00 f   LIBCMTD:strncat.obj
 0001:00032b40       _strncpy                   00433b40 f   LIBCMTD:strncpy.obj
 0001:00032c70       _setvbuf                   00433c70 f   LIBCMTD:setvbuf.obj
 0001:00032e10       __stbuf                    00433e10 f   LIBCMTD:_sftbuf.obj
 0001:00032f60       __ftbuf                    00433f60 f   LIBCMTD:_sftbuf.obj
 0001:00032ff0       __ioinit                   00433ff0 f   LIBCMTD:ioinit.obj
 0001:00033380       __ioterm                   00434380 f   LIBCMTD:ioinit.obj
 0001:00033420       __fcloseall                00434420 f   LIBCMTD:closeall.obj
 0001:00033540       ___sse2_available_init     00434540 f   LIBCMTD:cpu_disp.obj
 0001:000336d0       __set_SSE2_enable          004346d0 f   LIBCMTD:cpu_disp.obj
 0001:000336f0       __CIatan_pentium4          004346f0 f   LIBCMTD:atan_pentium4.obj
 0001:00033708       __atan_pentium4            00434708     LIBCMTD:atan_pentium4.obj
 0001:000339e0       __CIpow_pentium4           004349e0 f   LIBCMTD:pow_pentium4.obj
 0001:000339f9       __pow_pentium4             004349f9     LIBCMTD:pow_pentium4.obj
 0001:00034541       __fFEXP                    00435541     LIBCMTD:87tran.obj
 0001:000345a8       __rtinfpopse               004355a8     LIBCMTD:87tran.obj
 0001:000345aa       __rtinfnpopse              004355aa     LIBCMTD:87tran.obj
 0001:000345ba       __fFLN                     004355ba     LIBCMTD:87tran.obj
 0001:0003466f       __rtinfpop                 0043566f     LIBCMTD:87tran.obj
 0001:00034671       __rtinfnpop                00435671     LIBCMTD:87tran.obj
 0001:0003468e       __ffexpm1                  0043568e     LIBCMTD:87tran.obj
 0001:00034740       __powhlp                   00435740 f   LIBCMTD:powhlp.obj
 0001:00034940       __d_inttype                00435940 f   LIBCMTD:powhlp.obj
 0001:000349d0       ___CppXcptFilter           004359d0 f   LIBCMTD:winxfltr.obj
 0001:00034a00       __XcptFilter               00435a00 f   LIBCMTD:winxfltr.obj
 0001:00034c20       __wincmdln                 00435c20 f   LIBCMTD:wincmdln.obj
 0001:00034cf0       __setenvp                  00435cf0 f   LIBCMTD:stdenvp.obj
 0001:00034e70       __setargv                  00435e70 f   LIBCMTD:stdargv.obj
 0001:000352d0       ___crtGetEnvironmentStringsA 004362d0 f   LIBCMTD:a_env.obj
 0001:000354f0       __RTC_Initialize           004364f0 f   LIBCMTD:initsect.obj
 0001:00035570       __RTC_Terminate            00436570 f   LIBCMTD:initsect.obj
 0001:000355f0       __chkstk                   004365f0 f   LIBCMTD:chkstk.obj
 0001:000355f0       __alloca_probe             004365f0     LIBCMTD:chkstk.obj
 0001:00035630       __FF_MSGBANNER             00436630 f   LIBCMTD:crt0msg.obj
 0001:00035680       __NMSG_WRITE               00436680 f   LIBCMTD:crt0msg.obj
 0001:00035890       __GET_RTERRMSG             00436890 f   LIBCMTD:crt0msg.obj
 0001:000358e0       __ValidateEH3RN            004368e0 f   LIBCMTD:eh3valid.obj
 0001:00035cd0       __statusfp                 00436cd0 f   LIBCMTD:ieee87.obj
 0001:00035cf0       __clearfp                  00436cf0 f   LIBCMTD:ieee87.obj
 0001:00035d10       __control87                00436d10 f   LIBCMTD:ieee87.obj
 0001:00035d60       __controlfp                00436d60 f   LIBCMTD:ieee87.obj
 0001:00035d80       __fpreset                  00436d80 f   LIBCMTD:ieee87.obj
 0001:00036110       _isalpha                   00437110 f   LIBCMTD:_ctype.obj
 0001:00036180       _isupper                   00437180 f   LIBCMTD:_ctype.obj
 0001:000361e0       _islower                   004371e0 f   LIBCMTD:_ctype.obj
 0001:00036240       _isdigit                   00437240 f   LIBCMTD:_ctype.obj
 0001:000362a0       _isxdigit                  004372a0 f   LIBCMTD:_ctype.obj
 0001:00036310       _isspace                   00437310 f   LIBCMTD:_ctype.obj
 0001:00036370       _ispunct                   00437370 f   LIBCMTD:_ctype.obj
 0001:000363d0       _isalnum                   004373d0 f   LIBCMTD:_ctype.obj
 0001:00036440       _isprint                   00437440 f   LIBCMTD:_ctype.obj
 0001:000364b0       _isgraph                   004374b0 f   LIBCMTD:_ctype.obj
 0001:00036520       _iscntrl                   00437520 f   LIBCMTD:_ctype.obj
 0001:00036580       ___isascii                 00437580 f   LIBCMTD:_ctype.obj
 0001:00036590       ___toascii                 00437590 f   LIBCMTD:_ctype.obj
 0001:000365a0       ___iscsymf                 004375a0 f   LIBCMTD:_ctype.obj
 0001:000365e0       ___iscsym                  004375e0 f   LIBCMTD:_ctype.obj
 0001:00036620       __tolower                  00437620 f   LIBCMTD:tolower.obj
 0001:00036630       _tolower                   00437630 f   LIBCMTD:tolower.obj
 0001:00036670       ___tolower_mt              00437670 f   LIBCMTD:tolower.obj
 0001:000367b0       __ZeroTail                 004377b0 f   LIBCMTD:intrncvt.obj
 0001:00036840       __IncMan                   00437840 f   LIBCMTD:intrncvt.obj
 0001:000368f0       __RoundMan                 004378f0 f   LIBCMTD:intrncvt.obj
 0001:000369d0       __CopyMan                  004379d0 f   LIBCMTD:intrncvt.obj
 0001:00036a20       __FillZeroMan              00437a20 f   LIBCMTD:intrncvt.obj
 0001:00036a50       __IsZeroMan                00437a50 f   LIBCMTD:intrncvt.obj
 0001:00036a90       __ShrMan                   00437a90 f   LIBCMTD:intrncvt.obj
 0001:00036b80       __ld12cvt                  00437b80 f   LIBCMTD:intrncvt.obj
 0001:00036dc0       __ld12tod                  00437dc0 f   LIBCMTD:intrncvt.obj
 0001:00036de0       __ld12tof                  00437de0 f   LIBCMTD:intrncvt.obj
 0001:00036e00       __ld12told                 00437e00 f   LIBCMTD:intrncvt.obj
 0001:00036eb0       __atodbl                   00437eb0 f   LIBCMTD:intrncvt.obj
 0001:00036f00       __atoldbl                  00437f00 f   LIBCMTD:intrncvt.obj
 0001:00036f50       __atoflt                   00437f50 f   LIBCMTD:intrncvt.obj
 0001:00036fa0       __fptostr                  00437fa0 f   LIBCMTD:_fptostr.obj
 0001:000370a0       __fltout2                  004380a0 f   LIBCMTD:cfout.obj
 0001:00037130       ___dtold                   00438130 f   LIBCMTD:cfout.obj
 0001:00037280       __fptrap                   00438280 f   LIBCMTD:crt0fp.obj
 0001:00037290       ?_ValidateRead@@YAHPBXI@Z  00438290 f   LIBCMTD:validate.obj
 0001:000372c0       ?_ValidateWrite@@YAHPAXI@Z 004382c0 f   LIBCMTD:validate.obj
 0001:000372f0       ?_ValidateExecute@@YAHP6GHXZ@Z 004382f0 f   LIBCMTD:validate.obj
 0001:00037320       ___updatetmbcinfo          00438320 f   LIBCMTD:mbctype.obj
 0001:000373f0       __setmbcp                  004383f0 f   LIBCMTD:mbctype.obj
 0001:00037d30       __getmbcp                  00438d30 f   LIBCMTD:mbctype.obj
 0001:00037d50       ___initmbctable            00438d50 f   LIBCMTD:mbctype.obj
 0001:00037d80       ___crtInitCritSecAndSpinCount 00438d80 f   LIBCMTD:initcrit.obj
 0001:00037ea0       __lseek                    00438ea0 f   LIBCMTD:lseek.obj
 0001:00037fb0       __lseek_lk                 00438fb0 f   LIBCMTD:lseek.obj
 0001:00038070       __getbuf                   00439070 f   LIBCMTD:_getbuf.obj
 0001:00038130       __isatty                   00439130 f   LIBCMTD:isatty.obj
 0001:00038170       _wctomb                    00439170 f   LIBCMTD:wctomb.obj
 0001:000381b0       ___wctomb_mt               004391b0 f   LIBCMTD:wctomb.obj
 0001:00038250       ___pwctype_func            00439250 f   LIBCMTD:ctype.obj
 0001:00038260       ___pctype_func             00439260 f   LIBCMTD:ctype.obj
 0001:00038270       __aulldiv                  00439270 f   LIBCMTD:ulldiv.obj
 0001:000382e0       __aullrem                  004392e0 f   LIBCMTD:ullrem.obj
 0001:00038360       __snprintf                 00439360 f   LIBCMTD:snprintf.obj
 0001:00038450       __vsnprintf                00439450 f   LIBCMTD:vsnprint.obj
 0001:00038520       __alloc_osfhnd             00439520 f   LIBCMTD:osfinfo.obj
 0001:000387a0       __set_osfhnd               004397a0 f   LIBCMTD:osfinfo.obj
 0001:00038860       __free_osfhnd              00439860 f   LIBCMTD:osfinfo.obj
 0001:00038940       __get_osfhandle            00439940 f   LIBCMTD:osfinfo.obj
 0001:000389b0       __open_osfhandle           004399b0 f   LIBCMTD:osfinfo.obj
 0001:00038b00       __lock_fhandle             00439b00 f   LIBCMTD:osfinfo.obj
 0001:00038bf0       __unlock_fhandle           00439bf0 f   LIBCMTD:osfinfo.obj
 0001:00038c20       __commit                   00439c20 f   LIBCMTD:commit.obj
 0001:00038d30       __open                     00439d30 f   LIBCMTD:open.obj
 0001:00038de0       __sopen                    00439de0 f   LIBCMTD:open.obj
 0001:00039390       __lseeki64                 0043a390 f   LIBCMTD:lseeki64.obj
 0001:000394b0       __lseeki64_lk              0043a4b0 f   LIBCMTD:lseeki64.obj
 0001:00039580       __87except                 0043a580 f   LIBCMTD:87except.obj
 0001:00039730       __matherr                  0043a730 f   LIBCMTD:matherr.obj
 0001:00039740       __Getdays                  0043a740 f   LIBCMTD:strftime.obj
 0001:00039870       __Getmonths                0043a870 f   LIBCMTD:strftime.obj
 0001:000399a0       __Gettnames                0043a9a0 f   LIBCMTD:strftime.obj
 0001:00039d30       _strftime                  0043ad30 f   LIBCMTD:strftime.obj
 0001:00039d50       __Strftime                 0043ad50 f   LIBCMTD:strftime.obj
 0001:00039da0       __Strftime_mt              0043ada0 f   LIBCMTD:strftime.obj
 0001:0003afc0       _localeconv                0043bfc0 f   LIBCMTD:lconv.obj
 0001:0003afd0       ___init_time               0043bfd0 f   LIBCMTD:inittime.obj
 0001:0003b5e0       ___free_lc_time            0043c5e0 f   LIBCMTD:inittime.obj
 0001:0003b8f0       ___init_numeric            0043c8f0 f   LIBCMTD:initnum.obj
 0001:0003bc30       ___free_lconv_num          0043cc30 f   LIBCMTD:initnum.obj
 0001:0003bcd0       ___init_monetary           0043ccd0 f   LIBCMTD:initmon.obj
 0001:0003c0d0       ___free_lconv_mon          0043d0d0 f   LIBCMTD:initmon.obj
 0001:0003c230       ___init_ctype              0043d230 f   LIBCMTD:initctyp.obj
 0001:0003c4f0       ____mb_cur_max_func        0043d4f0 f   LIBCMTD:initctyp.obj
 0001:0003c500       ____lc_codepage_func       0043d500 f   LIBCMTD:initctyp.obj
 0001:0003c530       ____lc_collate_cp_func     0043d530 f   LIBCMTD:initctyp.obj
 0001:0003c560       ____lc_handle_func         0043d560 f   LIBCMTD:initctyp.obj
 0001:0003c590       ___init_collate            0043d590 f   LIBCMTD:initcoll.obj
 0001:0003c5a0       _strcspn                   0043d5a0 f   LIBCMTD:strcspn.obj
 0001:0003c5f0       _strncmp                   0043d5f0 f   LIBCMTD:strncmp.obj
 0001:0003c630       _strpbrk                   0043d630 f   LIBCMTD:strpbrk.obj
 0001:0003c670       ___crtGetStringTypeA       0043d670 f   LIBCMTD:a_str.obj
 0001:0003c910       ___get_qualified_locale    0043d910 f   LIBCMTD:getqloc.obj
 0001:0003d740       ___libm_error_support      0043e740 f   LIBCMTD:libm_error.obj
 0001:0003e150       _fdiv_main_routine         0043f150 f   LIBCMTD:adj_fdiv.obj
 0001:0003e267       __adj_fdiv_r               0043f267 f   LIBCMTD:adj_fdiv.obj
 0001:0003e706       __fdivp_sti_st             0043f706 f   LIBCMTD:adj_fdiv.obj
 0001:0003e719       __fdivrp_sti_st            0043f719 f   LIBCMTD:adj_fdiv.obj
 0001:0003e72c       __adj_fdiv_m32             0043f72c f   LIBCMTD:adj_fdiv.obj
 0001:0003e778       __adj_fdiv_m64             0043f778 f   LIBCMTD:adj_fdiv.obj
 0001:0003e7c4       __adj_fdiv_m16i            0043f7c4 f   LIBCMTD:adj_fdiv.obj
 0001:0003e7f8       __adj_fdiv_m32i            0043f7f8 f   LIBCMTD:adj_fdiv.obj
 0001:0003e82c       __adj_fdivr_m32            0043f82c f   LIBCMTD:adj_fdiv.obj
 0001:0003e878       __adj_fdivr_m64            0043f878 f   LIBCMTD:adj_fdiv.obj
 0001:0003e8c4       __adj_fdivr_m16i           0043f8c4 f   LIBCMTD:adj_fdiv.obj
 0001:0003e8f8       __adj_fdivr_m32i           0043f8f8 f   LIBCMTD:adj_fdiv.obj
 0001:0003e92c       __safe_fdiv                0043f92c f   LIBCMTD:adj_fdiv.obj
 0001:0003e941       __safe_fdivr               0043f941 f   LIBCMTD:adj_fdiv.obj
 0001:0003e956       __fprem_common             0043f956 f   LIBCMTD:adj_fdiv.obj
 0001:0003eb5c       __adj_fprem                0043fb5c f   LIBCMTD:adj_fdiv.obj
 0001:0003ec0e       __fprem1_common            0043fc0e f   LIBCMTD:adj_fdiv.obj
 0001:0003ee14       __adj_fprem1               0043fe14 f   LIBCMTD:adj_fdiv.obj
 0001:0003eec9       __safe_fprem               0043fec9 f   LIBCMTD:adj_fdiv.obj
 0001:0003eecf       __safe_fprem1              0043fecf f   LIBCMTD:adj_fdiv.obj
 0001:0003eed5       __adj_fpatan               0043fed5 f   LIBCMTD:adj_fdiv.obj
 0001:0003eed8       __adj_fptan                0043fed8 f   LIBCMTD:adj_fdiv.obj
 0001:0003eee0       __frnd                     0043fee0 f   LIBCMTD:frnd.obj
 0001:0003ef00       __ismbbkalnum              0043ff00 f   LIBCMTD:ismbbyte.obj
 0001:0003ef20       __ismbbkprint              0043ff20 f   LIBCMTD:ismbbyte.obj
 0001:0003ef40       __ismbbkpunct              0043ff40 f   LIBCMTD:ismbbyte.obj
 0001:0003ef60       __ismbbalnum               0043ff60 f   LIBCMTD:ismbbyte.obj
 0001:0003ef80       __ismbbalpha               0043ff80 f   LIBCMTD:ismbbyte.obj
 0001:0003efa0       __ismbbgraph               0043ffa0 f   LIBCMTD:ismbbyte.obj
 0001:0003efc0       __ismbbprint               0043ffc0 f   LIBCMTD:ismbbyte.obj
 0001:0003efe0       __ismbbpunct               0043ffe0 f   LIBCMTD:ismbbyte.obj
 0001:0003f000       __ismbblead                00440000 f   LIBCMTD:ismbbyte.obj
 0001:0003f020       __ismbbtrail               00440020 f   LIBCMTD:ismbbyte.obj
 0001:0003f040       __ismbbkana                00440040 f   LIBCMTD:ismbbyte.obj
 0001:0003f0e0       ___crtLCMapStringA         004400e0 f   LIBCMTD:a_map.obj
 0001:0003f6a0       ___addl                    004406a0 f   LIBCMTD:mantold.obj
 0001:0003f6e0       ___add_12                  004406e0 f   LIBCMTD:mantold.obj
 0001:0003f790       ___shl_12                  00440790 f   LIBCMTD:mantold.obj
 0001:0003f7f0       ___shr_12                  004407f0 f   LIBCMTD:mantold.obj
 0001:0003f860       ___mtold12                 00440860 f   LIBCMTD:mantold.obj
 0001:0003f9b0       ___strgtold12              004409b0 f   LIBCMTD:strgtold.obj
 0001:000403b0       ___STRINGTOLD              004413b0 f   LIBCMTD:strgtold.obj
 0001:00040410       _$I10_OUTPUT               00441410 f   LIBCMTD:x10fout.obj
 0001:000408f0       __chsize                   004418f0 f   LIBCMTD:chsize.obj
 0001:000409e0       __chsize_lk                004419e0 f   LIBCMTD:chsize.obj
 0001:00040bc0       ___tzset                   00441bc0 f   LIBCMTD:tzset.obj
 0001:00040c50       __tzset                    00441c50 f   LIBCMTD:tzset.obj
 0001:000410e0       __isindst                  004420e0 f   LIBCMTD:tzset.obj
 0001:000416c0       ___ascii_stricmp           004426c0 f   LIBCMTD:_stricmp.obj
 0001:00041710       __resetstkoflw             00442710 f   LIBCMTD:resetstk.obj
 0001:00041860       ___getlocaleinfo           00442860 f   LIBCMTD:inithelp.obj
 0001:00041ac0       ___ansicp                  00442ac0 f   LIBCMTD:convrtcp.obj
 0001:00041b20       ___convertcp               00442b20 f   LIBCMTD:convrtcp.obj
 0001:00041dc0       __stricmp                  00442dc0 f   LIBCMTD:stricmp.obj
 0001:00041e70       __strnicmp                 00442e70 f   LIBCMTD:strnicmp.obj
 0001:00041f30       _atol                      00442f30 f   LIBCMTD:atox.obj
 0001:00042040       _atoi                      00443040 f   LIBCMTD:atox.obj
 0001:00042060       __atoi64                   00443060 f   LIBCMTD:atox.obj
 0001:000421a0       ___ld12mul                 004431a0 f   LIBCMTD:tenpow.obj
 0001:00042590       ___multtenpow12            00443590 f   LIBCMTD:tenpow.obj
 0001:00042660       __setmode                  00443660 f   LIBCMTD:setmode.obj
 0001:00042750       __setmode_lk               00443750 f   LIBCMTD:setmode.obj
 0001:00042830       _getenv                    00443830 f   LIBCMTD:getenv.obj
 0001:000428a0       __getenv_lk                004438a0 f   LIBCMTD:getenv.obj
 0001:00042970       ___crtGetLocaleInfoW       00443970 f   LIBCMTD:w_loc.obj
 0001:00042b50       ___crtGetLocaleInfoA       00443b50 f   LIBCMTD:a_loc.obj
 0001:00042d40       ___ascii_strnicmp          00443d40 f   LIBCMTD:_strnicm.obj
 0001:00042db0       __allmul                   00443db0 f   LIBCMTD:llmul.obj
 0001:00042df0       __mbsnbicoll               00443df0 f   LIBCMTD:mbsnbico.obj
 0001:00042e60       ___wtomb_environ           00443e60 f   LIBCMTD:wtombenv.obj
 0001:00042f50       ___crtCompareStringA       00443f50 f   LIBCMTD:a_cmp.obj
 0001:00043510       ___crtsetenv               00444510 f   LIBCMTD:setenv.obj
 0001:00043a00       __mbschr                   00444a00 f   LIBCMTD:mbschr.obj
 0001:00043ae0       _strchr                    00444ae0 f   LIBCMTD:strchr.obj
 0001:00043ae6       ___from_strstr_to_strchr   00444ae6     LIBCMTD:strchr.obj
 0001:00043b9e       ?op_new_sc@MemoryManager@Ogre@@AAEPAXII@Z 00444b9e f   OgreMain_d:OgreMain_d.dll
 0001:00043ba4       ?_getProcessID@MemoryManager@Ogre@@AAEIXZ 00444ba4 f   OgreMain_d:OgreMain_d.dll
 0001:00043baa       ?instance@MemoryManager@Ogre@@SAAAV12@XZ 00444baa f   OgreMain_d:OgreMain_d.dll
 0001:00043bb0       ?op_del_sc@MemoryManager@Ogre@@AAEXPAXI@Z 00444bb0 f   OgreMain_d:OgreMain_d.dll
 0001:00043bb6       ?op_del_vc@MemoryManager@Ogre@@AAEXPAXI@Z 00444bb6 f   OgreMain_d:OgreMain_d.dll
 0001:00043bbc       ?getFullDescription@Exception@Ogre@@QBE?AV?$basic_string@DU?$char_traits@D@std@@V?$allocator@D@2@@std@@XZ 00444bbc f   OgreMain_d:OgreMain_d.dll
 0001:00043bc2       ?startRendering@Root@Ogre@@QAEXXZ 00444bc2 f   OgreMain_d:OgreMain_d.dll
 0001:00043bc8       ?getSingleton@TextureManager@Ogre@@SAAAV12@XZ 00444bc8 f   OgreMain_d:OgreMain_d.dll
 0001:00043bce       ??0Root@Ogre@@QAE@ABV?$basic_string@DU?$char_traits@D@std@@V?$allocator@D@2@@std@@00@Z 00444bce f   OgreMain_d:OgreMain_d.dll
 0001:00043bd4       ?initialise@Root@Ogre@@QAEPAVRenderWindow@2@_NABV?$basic_string@DU?$char_traits@D@std@@V?$allocator@D@2@@std@@@Z 00444bd4 f   OgreMain_d:OgreMain_d.dll
 0001:00043bda       ?showConfigDialog@Root@Ogre@@QAE_NXZ 00444bda f   OgreMain_d:OgreMain_d.dll
 0001:00043be0       ?createSceneManager@Root@Ogre@@QAEPAVSceneManager@2@GABV?$basic_string@DU?$char_traits@D@std@@V?$allocator@D@2@@std@@@Z 00444be0 f   OgreMain_d:OgreMain_d.dll
 0001:00043be6       ?lookAt@Camera@Ogre@@QAEXABVVector3@2@@Z 00444be6 f   OgreMain_d:OgreMain_d.dll
 0001:00043bec       ?setPosition@Camera@Ogre@@QAEXABVVector3@2@@Z 00444bec f   OgreMain_d:OgreMain_d.dll
 0001:00043bf2       ??0Vector3@Ogre@@QAE@MMM@Z 00444bf2 f   OgreMain_d:OgreMain_d.dll
 0001:00043bf8       ?addFrameListener@Root@Ogre@@QAEXPAVFrameListener@2@@Z 00444bf8 f   OgreMain_d:OgreMain_d.dll
 0001:00043bfe       ?isKeyEnabled@EventProcessor@Ogre@@UBE_NXZ 00444bfe f   OgreMain_d:OgreMain_d.dll
 0001:00043c04       ?getPositionTargetParent@EventProcessor@Ogre@@UBEPAVPositionTarget@2@XZ 00444c04 f   OgreMain_d:OgreMain_d.dll
 0001:00043c0a       ?getTop@EventProcessor@Ogre@@UBEMXZ 00444c0a f   OgreMain_d:OgreMain_d.dll
 0001:00043c10       ?getLeft@EventProcessor@Ogre@@UBEMXZ 00444c10 f   OgreMain_d:OgreMain_d.dll
 0001:00043c16       ?processEvent@EventProcessor@Ogre@@UAEXPAVInputEvent@2@@Z 00444c16 f   OgreMain_d:OgreMain_d.dll
 0001:00043c1c       ?frameEnded@FrameListener@Ogre@@UAE_NABUFrameEvent@2@@Z 00444c1c f   OgreMain_d:OgreMain_d.dll
 0001:00043c22       ?frameStarted@EventProcessor@Ogre@@UAE_NABUFrameEvent@2@@Z 00444c22 f   OgreMain_d:OgreMain_d.dll
 0001:00043c28       ?keyFocusOut@KeyListener@Ogre@@UAEXPAVKeyEvent@2@@Z 00444c28 f   OgreMain_d:OgreMain_d.dll
 0001:00043c2e       ?keyFocusIn@KeyListener@Ogre@@UAEXPAVKeyEvent@2@@Z 00444c2e f   OgreMain_d:OgreMain_d.dll
 0001:00043c34       ??1KeyListener@Ogre@@UAE@XZ 00444c34 f   OgreMain_d:OgreMain_d.dll
 0001:00043c3a       ??1FrameListener@Ogre@@UAE@XZ 00444c3a f   OgreMain_d:OgreMain_d.dll
 0001:00043c40       ??4Vector3@Ogre@@QAEAAV01@ABV01@@Z 00444c40 f   OgreMain_d:OgreMain_d.dll
 0001:00043c46       ?createInputReader@PlatformManager@Ogre@@QAEPAVInputReader@2@XZ 00444c46 f   OgreMain_d:OgreMain_d.dll
 0001:00043c4c       ?getSingleton@PlatformManager@Ogre@@SAAAV12@XZ 00444c4c f   OgreMain_d:OgreMain_d.dll
 0001:00043c52       ?getInputReader@EventProcessor@Ogre@@QAEPAVInputReader@2@XZ 00444c52 f   OgreMain_d:OgreMain_d.dll
 0001:00043c58       ?addKeyListener@KeyTarget@Ogre@@QAEXPAVKeyListener@2@@Z 00444c58 f   OgreMain_d:OgreMain_d.dll
 0001:00043c5e       ?startProcessingEvents@EventProcessor@Ogre@@QAEX_N@Z 00444c5e f   OgreMain_d:OgreMain_d.dll
 0001:00043c64       ?initialise@EventProcessor@Ogre@@QAEXPAVRenderWindow@2@@Z 00444c64 f   OgreMain_d:OgreMain_d.dll
 0001:00043c6a       ??0EventProcessor@Ogre@@QAE@XZ 00444c6a f   OgreMain_d:OgreMain_d.dll
 0001:00043c70       ?getByName@OverlayManager@Ogre@@QAEPAVOverlay@2@ABV?$basic_string@DU?$char_traits@D@std@@V?$allocator@D@2@@std@@@Z 00444c70 f   OgreMain_d:OgreMain_d.dll
 0001:00043c76       ?getSingleton@OverlayManager@Ogre@@SAAAV12@XZ 00444c76 f   OgreMain_d:OgreMain_d.dll
 0001:00043c7c       ??0Vector3@Ogre@@QAE@XZ    00444c7c f   OgreMain_d:OgreMain_d.dll
 0001:00043c82       ??0KeyListener@Ogre@@QAE@XZ 00444c82 f   OgreMain_d:OgreMain_d.dll
 0001:00043c88       ??0FrameListener@Ogre@@QAE@XZ 00444c88 f   OgreMain_d:OgreMain_d.dll
 0001:00043c8e       ?toString@StringConverter@Ogre@@SA?AV?$basic_string@DU?$char_traits@D@std@@V?$allocator@D@2@@std@@ABVVector3@2@@Z 00444c8e f   OgreMain_d:OgreMain_d.dll
 0001:00043c94       ?getDerivedPosition@Camera@Ogre@@QBEABVVector3@2@XZ 00444c94 f   OgreMain_d:OgreMain_d.dll
 0001:00043c9a       ?toString@StringConverter@Ogre@@SA?AV?$basic_string@DU?$char_traits@D@std@@V?$allocator@D@2@@std@@ABVQuaternion@2@@Z 00444c9a f   OgreMain_d:OgreMain_d.dll
 0001:00043ca0       ?getDerivedOrientation@Camera@Ogre@@QBEABVQuaternion@2@XZ 00444ca0 f   OgreMain_d:OgreMain_d.dll
 0001:00043ca6       ?setPolygonMode@Camera@Ogre@@QAEXW4PolygonMode@2@@Z 00444ca6 f   OgreMain_d:OgreMain_d.dll
 0001:00043cac       ?setDefaultAnisotropy@MaterialManager@Ogre@@QAEXI@Z 00444cac f   OgreMain_d:OgreMain_d.dll
 0001:00043cb2       ?getSingleton@MaterialManager@Ogre@@SAAAV12@XZ 00444cb2 f   OgreMain_d:OgreMain_d.dll
 0001:00043cb8       ?yaw@Camera@Ogre@@QAEXABVRadian@2@@Z 00444cb8 f   OgreMain_d:OgreMain_d.dll
 0001:00043cbe       ?DegreesToRadians@Math@Ogre@@SAMM@Z 00444cbe f   OgreMain_d:OgreMain_d.dll
 0001:00043cc4       ?hide@Overlay@Ogre@@QAEXXZ 00444cc4 f   OgreMain_d:OgreMain_d.dll
 0001:00043cca       ?show@Overlay@Ogre@@QAEXXZ 00444cca f   OgreMain_d:OgreMain_d.dll
 0001:00043cd0       ?moveRelative@Camera@Ogre@@QAEXABVVector3@2@@Z 00444cd0 f   OgreMain_d:OgreMain_d.dll
 0001:00043cd6       ?pitch@Camera@Ogre@@QAEXABVRadian@2@@Z 00444cd6 f   OgreMain_d:OgreMain_d.dll
 0001:00043cdc       ?getDebugText@RenderTarget@Ogre@@QBEABV?$basic_string@DU?$char_traits@D@std@@V?$allocator@D@2@@std@@XZ 00444cdc f   OgreMain_d:OgreMain_d.dll
 0001:00043ce2       ?toString@StringConverter@Ogre@@SA?AV?$basic_string@DU?$char_traits@D@std@@V?$allocator@D@2@@std@@IGDH@Z 00444ce2 f   OgreMain_d:OgreMain_d.dll
 0001:00043ce8       ?toString@StringConverter@Ogre@@SA?AV?$basic_string@DU?$char_traits@D@std@@V?$allocator@D@2@@std@@KGDH@Z 00444ce8 f   OgreMain_d:OgreMain_d.dll
 0001:00043cee       ?toString@StringConverter@Ogre@@SA?AV?$basic_string@DU?$char_traits@D@std@@V?$allocator@D@2@@std@@MGGDH@Z 00444cee f   OgreMain_d:OgreMain_d.dll
 0001:00043cf4       ?getOverlayElement@OverlayManager@Ogre@@QAEPAVOverlayElement@2@ABV?$basic_string@DU?$char_traits@D@std@@V?$allocator@D@2@@std@@_N@Z 00444cf4 f   OgreMain_d:OgreMain_d.dll
 0001:00043cfa       ?getKeyChar@KeyEvent@Ogre@@QAEDXZ 00444cfa f   OgreMain_d:OgreMain_d.dll
 0001:00043d00       ?destroyInputReader@PlatformManager@Ogre@@QAEXPAVInputReader@2@@Z 00444d00 f   OgreMain_d:OgreMain_d.dll
 0001:00043d06       ??1EventProcessor@Ogre@@UAE@XZ 00444d06 f   OgreMain_d:OgreMain_d.dll
 0001:00043d0c       ?getActualHeight@Viewport@Ogre@@QBEHXZ 00444d0c f   OgreMain_d:OgreMain_d.dll
 0001:00043d12       ?getActualWidth@Viewport@Ogre@@QBEHXZ 00444d12 f   OgreMain_d:OgreMain_d.dll
 0001:00043d18       ?setBackgroundColour@Viewport@Ogre@@QAEXABVColourValue@2@@Z 00444d18 f   OgreMain_d:OgreMain_d.dll
 0001:00043d1e       ??0ColourValue@Ogre@@QAE@MMMM@Z 00444d1e f   OgreMain_d:OgreMain_d.dll
 0001:00043d24       ??1ConfigFile@Ogre@@UAE@XZ 00444d24 f   OgreMain_d:OgreMain_d.dll
 0001:00043d2a       ?addResourceLocation@ResourceGroupManager@Ogre@@QAEXABV?$basic_string@DU?$char_traits@D@std@@V?$allocator@D@2@@std@@00_N@Z 00444d2a f   OgreMain_d:OgreMain_d.dll
 0001:00043d30       ?getSingleton@ResourceGroupManager@Ogre@@SAAAV12@XZ 00444d30 f   OgreMain_d:OgreMain_d.dll
 0001:00043d36       ?getSectionIterator@ConfigFile@Ogre@@QAE?AV?$MapIterator@V?$map@V?$basic_string@DU?$char_traits@D@std@@V?$allocator@D@2@@std@@PAV?$multimap@V?$basic_string@DU?$char_traits@D@std@@V?$allocator@D@2@@std@@V12@U?$less@V?$basic_string@DU?$char_traits@D@std@@V?$allocator@D@2@@std@@@2@V?$allocator@U?$pair@$$CBV?$basic_string@DU?$char_traits@D@std@@V?$allocator@D@2@@std@@V12@@std@@@2@@2@U?$less@V?$basic_string@DU?$char_traits@D@std@@V?$allocator@D@2@@std@@@2@V?$allocator@U?$pair@$$CBV?$basic_string@DU?$char_traits@D@std@@V?$allocator@D@2@@std@@PAV?$multimap@V?$basic_string@DU?$char_traits@D@std@@V?$allocator@D@2@@std@@V12@U?$less@V?$basic_string@DU?$char_traits@D@std@@V?$allocator@D@2@@std@@@2@V?$allocator@U?$pair@$$CBV?$basic_string@DU?$char_traits@D@std@@V?$allocator@D@2@@std@@V12@@std@@@2@@2@@std@@@2@@std@@@2@XZ 00444d36 f   OgreMain_d:OgreMain_d.dll
 0001:00043d3c       ?load@ConfigFile@Ogre@@QAEXABV?$basic_string@DU?$char_traits@D@std@@V?$allocator@D@2@@std@@0_N@Z 00444d3c f   OgreMain_d:OgreMain_d.dll
 0001:00043d42       ??0ConfigFile@Ogre@@QAE@XZ 00444d42 f   OgreMain_d:OgreMain_d.dll
 0001:00043d48       ?initialiseAllResourceGroups@ResourceGroupManager@Ogre@@QAEXXZ 00444d48 f   OgreMain_d:OgreMain_d.dll
 0001:00043d4e       ??1Root@Ogre@@QAE@XZ       00444d4e f   OgreMain_d:OgreMain_d.dll
 0001:00043d54       ?setOrientation@Camera@Ogre@@QAEXABVQuaternion@2@@Z 00444d54 f   OgreMain_d:OgreMain_d.dll
 0001:00043d5a       ??0Quaternion@Ogre@@QAE@MMMM@Z 00444d5a f   OgreMain_d:OgreMain_d.dll
 0001:00043d60       ?createLog@LogManager@Ogre@@QAEPAVLog@2@ABV?$basic_string@DU?$char_traits@D@std@@V?$allocator@D@2@@std@@_N11@Z 00444d60 f   OgreMain_d:OgreMain_d.dll
 0001:00043d66       ?getSingleton@LogManager@Ogre@@SAAAV12@XZ 00444d66 f   OgreMain_d:OgreMain_d.dll
 0001:00043d6c       ?mouseDragDropped@MouseListener@Ogre@@UAEXPAVMouseEvent@2@@Z 00444d6c f   OgreMain_d:OgreMain_d.dll
 0001:00043d72       ?mouseDragExited@MouseListener@Ogre@@UAEXPAVMouseEvent@2@@Z 00444d72 f   OgreMain_d:OgreMain_d.dll
 0001:00043d78       ?mouseDragEntered@MouseListener@Ogre@@UAEXPAVMouseEvent@2@@Z 00444d78 f   OgreMain_d:OgreMain_d.dll
 0001:00043d7e       ?mouseDragMoved@MouseMotionListener@Ogre@@UAEXPAVMouseEvent@2@@Z 00444d7e f   OgreMain_d:OgreMain_d.dll
 0001:00043d84       ??1Timer@Ogre@@UAE@XZ      00444d84 f   OgreMain_d:OgreMain_d.dll
 0001:00043d8a       ??1MouseListener@Ogre@@UAE@XZ 00444d8a f   OgreMain_d:OgreMain_d.dll
 0001:00043d90       ??1MouseMotionListener@Ogre@@UAE@XZ 00444d90 f   OgreMain_d:OgreMain_d.dll
 0001:00043d96       ??0Vector3@Ogre@@QAE@ABV01@@Z 00444d96 f   OgreMain_d:OgreMain_d.dll
 0001:00043d9c       ?addMouseMotionListener@MouseMotionTarget@Ogre@@QAEXPAVMouseMotionListener@2@@Z 00444d9c f   OgreMain_d:OgreMain_d.dll
 0001:00043da2       ?addMouseListener@MouseTarget@Ogre@@QAEXPAVMouseListener@2@@Z 00444da2 f   OgreMain_d:OgreMain_d.dll
 0001:00043da8       ?getLog@LogManager@Ogre@@QAEPAVLog@2@ABV?$basic_string@DU?$char_traits@D@std@@V?$allocator@D@2@@std@@@Z 00444da8 f   OgreMain_d:OgreMain_d.dll
 0001:00043dae       ??0Timer@Ogre@@QAE@XZ      00444dae f   OgreMain_d:OgreMain_d.dll
 0001:00043db4       ??0MouseListener@Ogre@@QAE@XZ 00444db4 f   OgreMain_d:OgreMain_d.dll
 0001:00043dba       ??0MouseMotionListener@Ogre@@QAE@XZ 00444dba f   OgreMain_d:OgreMain_d.dll
 0001:00043dc0       ?toString@StringConverter@Ogre@@SA?AV?$basic_string@DU?$char_traits@D@std@@V?$allocator@D@2@@std@@HGDH@Z 00444dc0 f   OgreMain_d:OgreMain_d.dll
 0001:00043dc6       ?Abs@Math@Ogre@@SAMM@Z     00444dc6 f   OgreMain_d:OgreMain_d.dll
 0001:00043dcc       ?op_new_vc@MemoryManager@Ogre@@AAEPAXII@Z 00444dcc f   OgreMain_d:OgreMain_d.dll
 0001:00043dd2       ??4Quaternion@Ogre@@QAEAAV01@ABV01@@Z 00444dd2 f   OgreMain_d:OgreMain_d.dll
 0001:00043dd8       ??0Quaternion@Ogre@@QAE@ABV01@@Z 00444dd8 f   OgreMain_d:OgreMain_d.dll
 0001:00043dde       ?consume@InputEvent@Ogre@@QAEXXZ 00444dde f   OgreMain_d:OgreMain_d.dll
 0001:00043de4       ?getRelX@MouseEvent@Ogre@@QBEMXZ 00444de4 f   OgreMain_d:OgreMain_d.dll
 0001:00043dea       ?getRelY@MouseEvent@Ogre@@QBEMXZ 00444dea f   OgreMain_d:OgreMain_d.dll
 0001:00043df0       ?getButtonID@MouseEvent@Ogre@@QBEHXZ 00444df0 f   OgreMain_d:OgreMain_d.dll
 0001:00043df6       ?getKey@KeyEvent@Ogre@@QAEHXZ 00444df6 f   OgreMain_d:OgreMain_d.dll
 0001:00043dfc       ?setOwner@MemoryManager@Ogre@@QAEXPBDI0@Z 00444dfc f   OgreMain_d:OgreMain_d.dll
 0001:00043e02       ?getCreator@SceneNode@Ogre@@QBEPAVSceneManager@2@XZ 00444e02 f   OgreMain_d:OgreMain_d.dll
 0001:00043e08       ??9Vector3@Ogre@@QBE_NABV01@@Z 00444e08 f   OgreMain_d:OgreMain_d.dll
 0001:00043e0e       ??GVector3@Ogre@@QBE?AV01@ABV01@@Z 00444e0e f   OgreMain_d:OgreMain_d.dll
 0001:00043e14       ?getName@Node@Ogre@@QBEABV?$basic_string@DU?$char_traits@D@std@@V?$allocator@D@2@@std@@XZ 00444e14 f   OgreMain_d:OgreMain_d.dll
 0001:00043e1a       ?setPosition@Camera@Ogre@@QAEXMMM@Z 00444e1a f   OgreMain_d:OgreMain_d.dll
 0001:00043e20       ??KVector3@Ogre@@QBE?AV01@M@Z 00444e20 f   OgreMain_d:OgreMain_d.dll
 0001:00043e26       ?FromAngleAxis@Quaternion@Ogre@@QAEXABVRadian@2@ABVVector3@2@@Z 00444e26 f   OgreMain_d:OgreMain_d.dll
 0001:00043e2c       ?setAmbientLight@SceneManager@Ogre@@QAEXABVColourValue@2@@Z 00444e2c f   OgreMain_d:OgreMain_d.dll
 0001:00043e32       ?logMessage@Log@Ogre@@QAEXABV?$basic_string@DU?$char_traits@D@std@@V?$allocator@D@2@@std@@W4LogMessageLevel@2@_N@Z 00444e32 f   OgreMain_d:OgreMain_d.dll
 0001:00043e38       ?createResourceProvider@OgreCEGUIRenderer@CEGUI@@UAEPAVResourceProvider@2@XZ 00444e38 f   OgreGUIRenderer_d:OgreGUIRenderer_d.dll
 0001:00043e3e       ?getVertScreenDPI@OgreCEGUIRenderer@CEGUI@@UBEIXZ 00444e3e f   OgreGUIRenderer_d:OgreGUIRenderer_d.dll
 0001:00043e44       ?getHorzScreenDPI@OgreCEGUIRenderer@CEGUI@@UBEIXZ 00444e44 f   OgreGUIRenderer_d:OgreGUIRenderer_d.dll
 0001:00043e4a       ?getMaxTextureSize@OgreCEGUIRenderer@CEGUI@@UBEIXZ 00444e4a f   OgreGUIRenderer_d:OgreGUIRenderer_d.dll
 0001:00043e50       ?getRect@OgreCEGUIRenderer@CEGUI@@UBE?AVRect@2@XZ 00444e50 f   OgreGUIRenderer_d:OgreGUIRenderer_d.dll
 0001:00043e56       ?getSize@OgreCEGUIRenderer@CEGUI@@UBE?AVSize@2@XZ 00444e56 f   OgreGUIRenderer_d:OgreGUIRenderer_d.dll
 0001:00043e5c       ?getHeight@OgreCEGUIRenderer@CEGUI@@UBEMXZ 00444e5c f   OgreGUIRenderer_d:OgreGUIRenderer_d.dll
 0001:00043e62       ?getWidth@OgreCEGUIRenderer@CEGUI@@UBEMXZ 00444e62 f   OgreGUIRenderer_d:OgreGUIRenderer_d.dll
 0001:00043e68       ?isQueueingEnabled@OgreCEGUIRenderer@CEGUI@@UBE_NXZ 00444e68 f   OgreGUIRenderer_d:OgreGUIRenderer_d.dll
 0001:00043e6e       ?destroyAllTextures@OgreCEGUIRenderer@CEGUI@@UAEXXZ 00444e6e f   OgreGUIRenderer_d:OgreGUIRenderer_d.dll
 0001:00043e74       ?destroyTexture@OgreCEGUIRenderer@CEGUI@@UAEXPAVTexture@2@@Z 00444e74 f   OgreGUIRenderer_d:OgreGUIRenderer_d.dll
 0001:00043e7a       ?createTexture@OgreCEGUIRenderer@CEGUI@@UAEPAVTexture@2@XZ 00444e7a f   OgreGUIRenderer_d:OgreGUIRenderer_d.dll
 0001:00043e80       ?createTexture@OgreCEGUIRenderer@CEGUI@@UAEPAVTexture@2@ABVString@2@0@Z 00444e80 f   OgreGUIRenderer_d:OgreGUIRenderer_d.dll
 0001:00043e86       ?createTexture@OgreCEGUIRenderer@CEGUI@@UAEPAVTexture@2@M@Z 00444e86 f   OgreGUIRenderer_d:OgreGUIRenderer_d.dll
 0001:00043e8c       ?setQueueingEnabled@OgreCEGUIRenderer@CEGUI@@UAEX_N@Z 00444e8c f   OgreGUIRenderer_d:OgreGUIRenderer_d.dll
 0001:00043e92       ?clearRenderList@OgreCEGUIRenderer@CEGUI@@UAEXXZ 00444e92 f   OgreGUIRenderer_d:OgreGUIRenderer_d.dll
 0001:00043e98       ?doRender@OgreCEGUIRenderer@CEGUI@@UAEXXZ 00444e98 f   OgreGUIRenderer_d:OgreGUIRenderer_d.dll
 0001:00043e9e       ?addQuad@OgreCEGUIRenderer@CEGUI@@UAEXABVRect@2@MPBVTexture@2@0ABVColourRect@2@W4QuadSplitMode@2@@Z 00444e9e f   OgreGUIRenderer_d:OgreGUIRenderer_d.dll
 0001:00043ea4       ??0OgreCEGUIRenderer@CEGUI@@QAE@PAVRenderWindow@Ogre@@E_NIPAVSceneManager@3@@Z 00444ea4 f   OgreGUIRenderer_d:OgreGUIRenderer_d.dll
 0001:00043eaa       ??1OgreCEGUIRenderer@CEGUI@@UAE@XZ 00444eaa f   OgreGUIRenderer_d:OgreGUIRenderer_d.dll
 0001:00043eb0       ?fireEvent@EventSet@CEGUI@@UAEXABVString@2@AAVEventArgs@2@0@Z 00444eb0 f   CEGUIBase_d:CEGUIBase_d.dll
 0001:00043eb6       ?subscribeScriptedEvent@EventSet@CEGUI@@UAE?AV?$RefPtr@VConnectionInterface@Event@CEGUI@@@2@ABVString@2@0@Z 00444eb6 f   CEGUIBase_d:CEGUIBase_d.dll
 0001:00043ebc       ?subscribeScriptedEvent@EventSet@CEGUI@@UAE?AV?$RefPtr@VConnectionInterface@Event@CEGUI@@@2@ABVString@2@H0@Z 00444ebc f   CEGUIBase_d:CEGUIBase_d.dll
 0001:00043ec2       ?subscribeEvent@EventSet@CEGUI@@UAE?AV?$RefPtr@VConnectionInterface@Event@CEGUI@@@2@ABVString@2@V?$SubscriberTemplate@_NABVEventArgs@CEGUI@@@2@@Z 00444ec2 f   CEGUIBase_d:CEGUIBase_d.dll
 0001:00043ec8       ?subscribeEvent@EventSet@CEGUI@@UAE?AV?$RefPtr@VConnectionInterface@Event@CEGUI@@@2@ABVString@2@HV?$SubscriberTemplate@_NABVEventArgs@CEGUI@@@2@@Z 00444ec8 f   CEGUIBase_d:CEGUIBase_d.dll
 0001:00043ece       ?setDefaultFont@System@CEGUI@@QAEXABVString@2@@Z 00444ece f   CEGUIBase_d:CEGUIBase_d.dll
 0001:00043ed4       ?setDefaultMouseCursor@System@CEGUI@@QAEXABVString@2@0@Z 00444ed4 f   CEGUIBase_d:CEGUIBase_d.dll
 0001:00043eda       ??1String@CEGUI@@QAE@XZ    00444eda f   CEGUIBase_d:CEGUIBase_d.dll
 0001:00043ee0       ?loadScheme@SchemeManager@CEGUI@@QAEPAVScheme@2@ABVString@2@0@Z 00444ee0 f   CEGUIBase_d:CEGUIBase_d.dll
 0001:00043ee6       ?getSingleton@SchemeManager@CEGUI@@SAAAV12@XZ 00444ee6 f   CEGUIBase_d:CEGUIBase_d.dll
 0001:00043eec       ??0String@CEGUI@@QAE@PBE@Z 00444eec f   CEGUIBase_d:CEGUIBase_d.dll
 0001:00043ef2       ??0String@CEGUI@@QAE@PBD@Z 00444ef2 f   CEGUIBase_d:CEGUIBase_d.dll
 0001:00043ef8       ?setLoggingLevel@Logger@CEGUI@@QAEXW4LoggingLevel@2@@Z 00444ef8 f   CEGUIBase_d:CEGUIBase_d.dll
 0001:00043efe       ?getSingleton@Logger@CEGUI@@SAAAV12@XZ 00444efe f   CEGUIBase_d:CEGUIBase_d.dll
 0001:00043f04       ??0System@CEGUI@@QAE@PAVRenderer@1@PBE@Z 00444f04 f   CEGUIBase_d:CEGUIBase_d.dll
 0001:00043f0a       ??0String@CEGUI@@QAE@XZ    00444f0a f   CEGUIBase_d:CEGUIBase_d.dll
 0001:00043f10       ?setGUISheet@System@CEGUI@@QAEPAVWindow@2@PAV32@@Z 00444f10 f   CEGUIBase_d:CEGUIBase_d.dll
 0001:00043f16       ?loadWindowLayout@WindowManager@CEGUI@@QAEPAVWindow@2@ABVString@2@00P6A_NPAV32@AAV42@2PAX@Z3@Z 00444f16 f   CEGUIBase_d:CEGUIBase_d.dll
 0001:00043f1c       ?getSingleton@WindowManager@CEGUI@@SAAAV12@XZ 00444f1c f   CEGUIBase_d:CEGUIBase_d.dll
 0001:00043f22       ?destroyWindow@WindowManager@CEGUI@@QAEXPAVWindow@2@@Z 00444f22 f   CEGUIBase_d:CEGUIBase_d.dll
 0001:00043f28       ?getWindow@WindowManager@CEGUI@@QBEPAVWindow@2@ABVString@2@@Z 00444f28 f   CEGUIBase_d:CEGUIBase_d.dll
 0001:00043f2e       ??4String@CEGUI@@QAEAAV01@ABV01@@Z 00444f2e f   CEGUIBase_d:CEGUIBase_d.dll
 0001:00043f34       ?getText@Window@CEGUI@@QBEABVString@2@XZ 00444f34 f   CEGUIBase_d:CEGUIBase_d.dll
 0001:00043f3a       ?hide@Window@CEGUI@@QAEXXZ 00444f3a f   CEGUIBase_d:CEGUIBase_d.dll
 0001:00043f40       ??0String@CEGUI@@QAE@ABV?$basic_string@DU?$char_traits@D@std@@V?$allocator@D@2@@std@@@Z 00444f40 f   CEGUIBase_d:CEGUIBase_d.dll
 0001:00043f46       ?setText@Window@CEGUI@@QAEXABVString@2@@Z 00444f46 f   CEGUIBase_d:CEGUIBase_d.dll
 0001:00043f4c       ?setImage@StaticImage@CEGUI@@QAEXPBVImage@2@@Z 00444f4c f   CEGUIBase_d:CEGUIBase_d.dll
 0001:00043f52       ?getImage@Imageset@CEGUI@@QBEABVImage@2@ABVString@2@@Z 00444f52 f   CEGUIBase_d:CEGUIBase_d.dll
 0001:00043f58       ?setPosition@Window@CEGUI@@QAEXABVVector2@2@@Z 00444f58 f   CEGUIBase_d:CEGUIBase_d.dll
 0001:00043f5e       ??0Vector2@CEGUI@@QAE@MM@Z 00444f5e f   CEGUIBase_d:CEGUIBase_d.dll
 0001:00043f64       ?getImageset@ImagesetManager@CEGUI@@QBEPAVImageset@2@ABVString@2@@Z 00444f64 f   CEGUIBase_d:CEGUIBase_d.dll
 0001:00043f6a       ?getSingleton@ImagesetManager@CEGUI@@SAAAV12@XZ 00444f6a f   CEGUIBase_d:CEGUIBase_d.dll
 0001:00043f70       ?c_str@String@CEGUI@@QBEPBDXZ 00444f70 f   CEGUIBase_d:CEGUIBase_d.dll
 0001:00043f76       ?length@String@CEGUI@@QBEIXZ 00444f76 f   CEGUIBase_d:CEGUIBase_d.dll
 0001:00043f7c       ??4String@CEGUI@@QAEAAV01@PBD@Z 00444f7c f   CEGUIBase_d:CEGUIBase_d.dll
 0001:00043f82       ??8CEGUI@@YA_NABVString@0@PBD@Z 00444f82 f   CEGUIBase_d:CEGUIBase_d.dll
 0001:00043f88       ?injectMouseMove@System@CEGUI@@QAE_NMM@Z 00444f88 f   CEGUIBase_d:CEGUIBase_d.dll
 0001:00043f8e       ?getSingleton@System@CEGUI@@SAAAV12@XZ 00444f8e f   CEGUIBase_d:CEGUIBase_d.dll
 0001:00043f94       ?injectMouseButtonDown@System@CEGUI@@QAE_NW4MouseButton@2@@Z 00444f94 f   CEGUIBase_d:CEGUIBase_d.dll
 0001:00043f9a       ?injectMouseButtonUp@System@CEGUI@@QAE_NW4MouseButton@2@@Z 00444f9a f   CEGUIBase_d:CEGUIBase_d.dll
 0001:00043fa0       ?injectChar@System@CEGUI@@QAE_NI@Z 00444fa0 f   CEGUIBase_d:CEGUIBase_d.dll
 0001:00043fa6       ?injectKeyDown@System@CEGUI@@QAE_NI@Z 00444fa6 f   CEGUIBase_d:CEGUIBase_d.dll
 0001:00043fac       ?show@Window@CEGUI@@QAEXXZ 00444fac f   CEGUIBase_d:CEGUIBase_d.dll
 0001:00043fb2       ?injectKeyUp@System@CEGUI@@QAE_NI@Z 00444fb2 f   CEGUIBase_d:CEGUIBase_d.dll
 0001:00043fb8       ??1System@CEGUI@@UAE@XZ    00444fb8 f   CEGUIBase_d:CEGUIBase_d.dll
 0001:00043fbe       ?release@Referenced@CEGUI@@QBEXXZ 00444fbe f   CEGUIBase_d:CEGUIBase_d.dll
 0001:00043fc4       _NxCreatePhysicsSDK        00444fc4 f   PhysXLoader:PhysXLoader.dll
 0001:00043fca       _NxCookConvexMesh          00444fca f   NxCooking:NxCooking.dll
 0001:00043fd0       _NxInitCooking             00444fd0 f   NxCooking:NxCooking.dll
 0001:00043fd6       _NxCookTriangleMesh        00444fd6 f   NxCooking:NxCooking.dll
 0001:00043fe0       ??0UserStream@@QAE@PBD_N@Z 00444fe0 f   SampleCommonCodeDEBUG:Stream.obj
 0001:00044040       ??0NxStream@@QAE@XZ        00445040 f i SampleCommonCodeDEBUG:Stream.obj
 0001:00044060       ??_GNxStream@@UAEPAXI@Z    00445060 f i SampleCommonCodeDEBUG:Stream.obj
 0001:00044060       ??_ENxStream@@UAEPAXI@Z    00445060 f i SampleCommonCodeDEBUG:Stream.obj
 0001:00044090       ??1NxStream@@UAE@XZ        00445090 f i SampleCommonCodeDEBUG:Stream.obj
 0001:000440b0       ??_GUserStream@@UAEPAXI@Z  004450b0 f i SampleCommonCodeDEBUG:Stream.obj
 0001:000440b0       ??_EUserStream@@UAEPAXI@Z  004450b0 f i SampleCommonCodeDEBUG:Stream.obj
 0001:000440e0       ??1UserStream@@UAE@XZ      004450e0 f   SampleCommonCodeDEBUG:Stream.obj
 0001:00044120       ?readByte@UserStream@@UBEEXZ 00445120 f   SampleCommonCodeDEBUG:Stream.obj
 0001:00044170       ?readWord@UserStream@@UBEGXZ 00445170 f   SampleCommonCodeDEBUG:Stream.obj
 0001:000441c0       ?readDword@UserStream@@UBEIXZ 004451c0 f   SampleCommonCodeDEBUG:Stream.obj
 0001:00044210       ?readFloat@UserStream@@UBEMXZ 00445210 f   SampleCommonCodeDEBUG:Stream.obj
 0001:00044260       ?readDouble@UserStream@@UBENXZ 00445260 f   SampleCommonCodeDEBUG:Stream.obj
 0001:000442b0       ?readBuffer@UserStream@@UBEXPAXI@Z 004452b0 f   SampleCommonCodeDEBUG:Stream.obj
 0001:00044300       ?storeByte@UserStream@@UAEAAVNxStream@@E@Z 00445300 f   SampleCommonCodeDEBUG:Stream.obj
 0001:00044350       ?storeWord@UserStream@@UAEAAVNxStream@@G@Z 00445350 f   SampleCommonCodeDEBUG:Stream.obj
 0001:000443a0       ?storeDword@UserStream@@UAEAAVNxStream@@I@Z 004453a0 f   SampleCommonCodeDEBUG:Stream.obj
 0001:000443f0       ?storeFloat@UserStream@@UAEAAVNxStream@@M@Z 004453f0 f   SampleCommonCodeDEBUG:Stream.obj
 0001:00044440       ?storeDouble@UserStream@@UAEAAVNxStream@@N@Z 00445440 f   SampleCommonCodeDEBUG:Stream.obj
 0001:00044490       ?storeBuffer@UserStream@@UAEAAVNxStream@@PBXI@Z 00445490 f   SampleCommonCodeDEBUG:Stream.obj
 0001:000444e0       ??0MemoryWriteBuffer@@QAE@XZ 004454e0 f   SampleCommonCodeDEBUG:Stream.obj
 0001:00044520       ?readByte@MemoryWriteBuffer@@UBEEXZ 00445520 f i SampleCommonCodeDEBUG:Stream.obj
 0001:00044550       ?readWord@MemoryWriteBuffer@@UBEGXZ 00445550 f i SampleCommonCodeDEBUG:Stream.obj
 0001:00044580       ?readDword@MemoryWriteBuffer@@UBEIXZ 00445580 f i SampleCommonCodeDEBUG:Stream.obj
 0001:000445b0       ?readFloat@MemoryWriteBuffer@@UBEMXZ 004455b0 f i SampleCommonCodeDEBUG:Stream.obj
 0001:000445e0       ?readDouble@MemoryWriteBuffer@@UBENXZ 004455e0 f i SampleCommonCodeDEBUG:Stream.obj
 0001:00044610       ?readBuffer@MemoryWriteBuffer@@UBEXPAXI@Z 00445610 f i SampleCommonCodeDEBUG:Stream.obj
 0001:00044640       ??_GMemoryWriteBuffer@@UAEPAXI@Z 00445640 f i SampleCommonCodeDEBUG:Stream.obj
 0001:00044640       ??_EMemoryWriteBuffer@@UAEPAXI@Z 00445640 f i SampleCommonCodeDEBUG:Stream.obj
 0001:00044670       ??1MemoryWriteBuffer@@UAE@XZ 00445670 f   SampleCommonCodeDEBUG:Stream.obj
 0001:000446f0       ?clear@MemoryWriteBuffer@@QAEXXZ 004456f0 f   SampleCommonCodeDEBUG:Stream.obj
 0001:00044710       ?storeByte@MemoryWriteBuffer@@UAEAAVNxStream@@E@Z 00445710 f   SampleCommonCodeDEBUG:Stream.obj
 0001:00044740       ?storeWord@MemoryWriteBuffer@@UAEAAVNxStream@@G@Z 00445740 f   SampleCommonCodeDEBUG:Stream.obj
 0001:00044770       ?storeDword@MemoryWriteBuffer@@UAEAAVNxStream@@I@Z 00445770 f   SampleCommonCodeDEBUG:Stream.obj
 0001:000447a0       ?storeFloat@MemoryWriteBuffer@@UAEAAVNxStream@@M@Z 004457a0 f   SampleCommonCodeDEBUG:Stream.obj
 0001:000447d0       ?storeDouble@MemoryWriteBuffer@@UAEAAVNxStream@@N@Z 004457d0 f   SampleCommonCodeDEBUG:Stream.obj
 0001:00044800       ?storeBuffer@MemoryWriteBuffer@@UAEAAVNxStream@@PBXI@Z 00445800 f   SampleCommonCodeDEBUG:Stream.obj
 0001:000448f0       ??0MemoryReadBuffer@@QAE@PBE@Z 004458f0 f   SampleCommonCodeDEBUG:Stream.obj
 0001:00044920       ?storeByte@MemoryReadBuffer@@UAEAAVNxStream@@E@Z 00445920 f i SampleCommonCodeDEBUG:Stream.obj
 0001:00044950       ?storeWord@MemoryReadBuffer@@UAEAAVNxStream@@G@Z 00445950 f i SampleCommonCodeDEBUG:Stream.obj
 0001:00044980       ?storeDword@MemoryReadBuffer@@UAEAAVNxStream@@I@Z 00445980 f i SampleCommonCodeDEBUG:Stream.obj
 0001:000449b0       ?storeFloat@MemoryReadBuffer@@UAEAAVNxStream@@M@Z 004459b0 f i SampleCommonCodeDEBUG:Stream.obj
 0001:000449e0       ?storeDouble@MemoryReadBuffer@@UAEAAVNxStream@@N@Z 004459e0 f i SampleCommonCodeDEBUG:Stream.obj
 0001:00044a10       ?storeBuffer@MemoryReadBuffer@@UAEAAVNxStream@@PBXI@Z 00445a10 f i SampleCommonCodeDEBUG:Stream.obj
 0001:00044a40       ??_EMemoryReadBuffer@@UAEPAXI@Z 00445a40 f i SampleCommonCodeDEBUG:Stream.obj
 0001:00044a40       ??_GMemoryReadBuffer@@UAEPAXI@Z 00445a40 f i SampleCommonCodeDEBUG:Stream.obj
 0001:00044a70       ??1MemoryReadBuffer@@UAE@XZ 00445a70 f   SampleCommonCodeDEBUG:Stream.obj
 0001:00044a90       ?readByte@MemoryReadBuffer@@UBEEXZ 00445a90 f   SampleCommonCodeDEBUG:Stream.obj
 0001:00044ac0       ?readWord@MemoryReadBuffer@@UBEGXZ 00445ac0 f   SampleCommonCodeDEBUG:Stream.obj
 0001:00044af0       ?readDword@MemoryReadBuffer@@UBEIXZ 00445af0 f   SampleCommonCodeDEBUG:Stream.obj
 0001:00044b20       ?readFloat@MemoryReadBuffer@@UBEMXZ 00445b20 f   SampleCommonCodeDEBUG:Stream.obj
 0001:00044b50       ?readDouble@MemoryReadBuffer@@UBENXZ 00445b50 f   SampleCommonCodeDEBUG:Stream.obj
 0001:00044b80       ?readBuffer@MemoryReadBuffer@@UBEXPAXI@Z 00445b80 f   SampleCommonCodeDEBUG:Stream.obj
 0001:00044bba       _mmioClose@8               00445bba f   winmm:WINMM.dll
 0001:00044bc0       _mmioOpenA@12              00445bc0 f   winmm:WINMM.dll
 0001:00044bc6       _mmioAscend@12             00445bc6 f   winmm:WINMM.dll
 0001:00044bcc       _mmioRead@12               00445bcc f   winmm:WINMM.dll
 0001:00044bd2       _mmioDescend@16            00445bd2 f   winmm:WINMM.dll
 0001:00044bd8       _mmioGetInfo@12            00445bd8 f   winmm:WINMM.dll
 0001:00044bde       _mmioCreateChunk@12        00445bde f   winmm:WINMM.dll
 0001:00044be4       _mmioSeek@12               00445be4 f   winmm:WINMM.dll
 0001:00044bea       _mmioSetInfo@12            00445bea f   winmm:WINMM.dll
 0001:00044bf0       _mmioAdvance@12            00445bf0 f   winmm:WINMM.dll
 0001:00044bf6       _mmioWrite@12              00445bf6 f   winmm:WINMM.dll
 0001:00044bfc       _DirectSoundCreate8@12     00445bfc f   dsound:DSOUND.dll
 0001:00044c10       ?_Xlen@_String_base@std@@QBEXXZ 00445c10 f   libcpmtd:string.obj
 0001:00044c70       ?_Xran@_String_base@std@@QBEXXZ 00445c70 f   libcpmtd:string.obj
 0001:00044cca       _ExitProcess@4             00445cca f   kernel32:KERNEL32.dll
 0001:00044cd0       _RtlUnwind@16              00445cd0 f   kernel32:KERNEL32.dll
 0001:00044cd6       _RaiseException@16         00445cd6 f   kernel32:KERNEL32.dll
 0001:00044cdc       _IsBadWritePtr@8           00445cdc f   kernel32:KERNEL32.dll
 0001:00044ce2       _IsBadReadPtr@8            00445ce2 f   kernel32:KERNEL32.dll
 0001:00044ce8       _HeapValidate@12           00445ce8 f   kernel32:KERNEL32.dll
 0001:00044cee       _GetModuleFileNameA@12     00445cee f   kernel32:KERNEL32.dll
 0001:00044cf4       _EnterCriticalSection@4    00445cf4 f   kernel32:KERNEL32.dll
 0001:00044cfa       _LeaveCriticalSection@4    00445cfa f   kernel32:KERNEL32.dll
 0001:00044d00       _GetStartupInfoA@4         00445d00 f   kernel32:KERNEL32.dll
 0001:00044d06       _GetCommandLineA@0         00445d06 f   kernel32:KERNEL32.dll
 0001:00044d0c       _GetVersionExA@4           00445d0c f   kernel32:KERNEL32.dll
 0001:00044d12       _QueryPerformanceCounter@4 00445d12 f   kernel32:KERNEL32.dll
 0001:00044d18       _GetTickCount@0            00445d18 f   kernel32:KERNEL32.dll
 0001:00044d1e       _GetCurrentThreadId@0      00445d1e f   kernel32:KERNEL32.dll
 0001:00044d24       _GetCurrentProcessId@0     00445d24 f   kernel32:KERNEL32.dll
 0001:00044d2a       _GetSystemTimeAsFileTime@4 00445d2a f   kernel32:KERNEL32.dll
 0001:00044d30       _GetProcAddress@8          00445d30 f   kernel32:KERNEL32.dll
 0001:00044d36       _TlsAlloc@0                00445d36 f   kernel32:KERNEL32.dll
 0001:00044d3c       _TlsFree@4                 00445d3c f   kernel32:KERNEL32.dll
 0001:00044d42       _TlsSetValue@8             00445d42 f   kernel32:KERNEL32.dll
 0001:00044d48       _TlsGetValue@4             00445d48 f   kernel32:KERNEL32.dll
 0001:00044d4e       _SetLastError@4            00445d4e f   kernel32:KERNEL32.dll
 0001:00044d54       _GetLastError@0            00445d54 f   kernel32:KERNEL32.dll
 0001:00044d5a       _GetCurrentThread@0        00445d5a f   kernel32:KERNEL32.dll
 0001:00044d60       _DeleteCriticalSection@4   00445d60 f   kernel32:KERNEL32.dll
 0001:00044d66       _FatalAppExitA@8           00445d66 f   kernel32:KERNEL32.dll
 0001:00044d6c       _HeapFree@12               00445d6c f   kernel32:KERNEL32.dll
 0001:00044d72       _DebugBreak@0              00445d72 f   kernel32:KERNEL32.dll
 0001:00044d78       _GetStdHandle@4            00445d78 f   kernel32:KERNEL32.dll
 0001:00044d7e       _WriteFile@20              00445d7e f   kernel32:KERNEL32.dll
 0001:00044d84       _InterlockedDecrement@4    00445d84 f   kernel32:KERNEL32.dll
 0001:00044d8a       _OutputDebugStringA@4      00445d8a f   kernel32:KERNEL32.dll
 0001:00044d90       _LoadLibraryA@4            00445d90 f   kernel32:KERNEL32.dll
 0001:00044d96       _InterlockedIncrement@4    00445d96 f   kernel32:KERNEL32.dll
 0001:00044d9c       _TerminateProcess@8        00445d9c f   kernel32:KERNEL32.dll
 0001:00044da2       _GetCurrentProcess@0       00445da2 f   kernel32:KERNEL32.dll
 0001:00044da8       _ReadFile@20               00445da8 f   kernel32:KERNEL32.dll
 0001:00044dae       _SetUnhandledExceptionFilter@4 00445dae f   kernel32:KERNEL32.dll
 0001:00044db4       _HeapAlloc@12              00445db4 f   kernel32:KERNEL32.dll
 0001:00044dba       _HeapReAlloc@16            00445dba f   kernel32:KERNEL32.dll
 0001:00044dc0       _HeapDestroy@4             00445dc0 f   kernel32:KERNEL32.dll
 0001:00044dc6       _HeapCreate@12             00445dc6 f   kernel32:KERNEL32.dll
 0001:00044dcc       _VirtualFree@12            00445dcc f   kernel32:KERNEL32.dll
 0001:00044dd2       _VirtualAlloc@16           00445dd2 f   kernel32:KERNEL32.dll
 0001:00044dd8       _SetConsoleCtrlHandler@8   00445dd8 f   kernel32:KERNEL32.dll
 0001:00044dde       _SetHandleCount@4          00445dde f   kernel32:KERNEL32.dll
 0001:00044de4       _GetFileType@4             00445de4 f   kernel32:KERNEL32.dll
 0001:00044dea       _UnhandledExceptionFilter@4 00445dea f   kernel32:KERNEL32.dll
 0001:00044df0       _FreeEnvironmentStringsA@4 00445df0 f   kernel32:KERNEL32.dll
 0001:00044df6       _GetEnvironmentStrings@0   00445df6 f   kernel32:KERNEL32.dll
 0001:00044dfc       _FreeEnvironmentStringsW@4 00445dfc f   kernel32:KERNEL32.dll
 0001:00044e02       _WideCharToMultiByte@32    00445e02 f   kernel32:KERNEL32.dll
 0001:00044e08       _GetEnvironmentStringsW@0  00445e08 f   kernel32:KERNEL32.dll
 0001:00044e0e       _VirtualQuery@12           00445e0e f   kernel32:KERNEL32.dll
 0001:00044e14       _InterlockedExchange@8     00445e14 f   kernel32:KERNEL32.dll
 0001:00044e1a       _IsBadCodePtr@4            00445e1a f   kernel32:KERNEL32.dll
 0001:00044e20       _GetACP@0                  00445e20 f   kernel32:KERNEL32.dll
 0001:00044e26       _GetOEMCP@0                00445e26 f   kernel32:KERNEL32.dll
 0001:00044e2c       _GetCPInfo@8               00445e2c f   kernel32:KERNEL32.dll
 0001:00044e32       _InitializeCriticalSection@4 00445e32 f   kernel32:KERNEL32.dll
 0001:00044e38       _SetFilePointer@16         00445e38 f   kernel32:KERNEL32.dll
 0001:00044e3e       _SetStdHandle@8            00445e3e f   kernel32:KERNEL32.dll
 0001:00044e44       _FlushFileBuffers@4        00445e44 f   kernel32:KERNEL32.dll
 0001:00044e4a       _GetTimeFormatA@24         00445e4a f   kernel32:KERNEL32.dll
 0001:00044e50       _GetDateFormatA@24         00445e50 f   kernel32:KERNEL32.dll
 0001:00044e56       _MultiByteToWideChar@24    00445e56 f   kernel32:KERNEL32.dll
 0001:00044e5c       _GetStringTypeA@20         00445e5c f   kernel32:KERNEL32.dll
 0001:00044e62       _GetStringTypeW@16         00445e62 f   kernel32:KERNEL32.dll
 0001:00044e68       _IsValidLocale@8           00445e68 f   kernel32:KERNEL32.dll
 0001:00044e6e       _IsValidCodePage@4         00445e6e f   kernel32:KERNEL32.dll
 0001:00044e74       _GetLocaleInfoA@16         00445e74 f   kernel32:KERNEL32.dll
 0001:00044e7a       _EnumSystemLocalesA@8      00445e7a f   kernel32:KERNEL32.dll
 0001:00044e80       _GetUserDefaultLCID@0      00445e80 f   kernel32:KERNEL32.dll
 0001:00044e86       _LCMapStringA@24           00445e86 f   kernel32:KERNEL32.dll
 0001:00044e8c       _LCMapStringW@24           00445e8c f   kernel32:KERNEL32.dll
 0001:00044e92       _SetEndOfFile@4            00445e92 f   kernel32:KERNEL32.dll
 0001:00044e98       _GetTimeZoneInformation@4  00445e98 f   kernel32:KERNEL32.dll
 0001:00044e9e       _VirtualProtect@16         00445e9e f   kernel32:KERNEL32.dll
 0001:00044ea4       _GetSystemInfo@4           00445ea4 f   kernel32:KERNEL32.dll
 0001:00044eaa       _GetLocaleInfoW@16         00445eaa f   kernel32:KERNEL32.dll
 0001:00044eb0       _CompareStringA@24         00445eb0 f   kernel32:KERNEL32.dll
 0001:00044eb6       _CompareStringW@24         00445eb6 f   kernel32:KERNEL32.dll
 0001:00044ebc       _SetEnvironmentVariableA@8 00445ebc f   kernel32:KERNEL32.dll
 0001:000467a0       ?tris@?1??updateStats@ExampleFrameListener@@IAEXXZ@$AV?$basic_string@DU?$char_traits@D@std@@V?$allocator@D@2@@std@@A 004477a0 f i CuteCar.obj
 0001:000467b0       ?worstFps@?1??updateStats@ExampleFrameListener@@IAEXXZ@$AV?$basic_string@DU?$char_traits@D@std@@V?$allocator@D@2@@std@@A 004477b0 f i CuteCar.obj
 0001:000467c0       ?bestFps@?1??updateStats@ExampleFrameListener@@IAEXXZ@$AV?$basic_string@DU?$char_traits@D@std@@V?$allocator@D@2@@std@@A 004477c0 f i CuteCar.obj
 0001:000467d0       ?avgFps@?1??updateStats@ExampleFrameListener@@IAEXXZ@$AV?$basic_string@DU?$char_traits@D@std@@V?$allocator@D@2@@std@@A 004477d0 f i CuteCar.obj
 0001:000467e0       ?currFps@?1??updateStats@ExampleFrameListener@@IAEXXZ@$AV?$basic_string@DU?$char_traits@D@std@@V?$allocator@D@2@@std@@A 004477e0 f i CuteCar.obj
 0002:00000000       __imp_?fireEvent@EventSet@CEGUI@@UAEXABVString@2@AAVEventArgs@2@0@Z 00448000     CEGUIBase_d:CEGUIBase_d.dll
 0002:00000004       __imp_?subscribeScriptedEvent@EventSet@CEGUI@@UAE?AV?$RefPtr@VConnectionInterface@Event@CEGUI@@@2@ABVString@2@H0@Z 00448004     CEGUIBase_d:CEGUIBase_d.dll
 0002:00000008       __imp_?subscribeEvent@EventSet@CEGUI@@UAE?AV?$RefPtr@VConnectionInterface@Event@CEGUI@@@2@ABVString@2@V?$SubscriberTemplate@_NABVEventArgs@CEGUI@@@2@@Z 00448008     CEGUIBase_d:CEGUIBase_d.dll
 0002:0000000c       __imp_?subscribeEvent@EventSet@CEGUI@@UAE?AV?$RefPtr@VConnectionInterface@Event@CEGUI@@@2@ABVString@2@HV?$SubscriberTemplate@_NABVEventArgs@CEGUI@@@2@@Z 0044800c     CEGUIBase_d:CEGUIBase_d.dll
 0002:00000010       __imp_?setDefaultFont@System@CEGUI@@QAEXABVString@2@@Z 00448010     CEGUIBase_d:CEGUIBase_d.dll
 0002:00000014       __imp_?setDefaultMouseCursor@System@CEGUI@@QAEXABVString@2@0@Z 00448014     CEGUIBase_d:CEGUIBase_d.dll
 0002:00000018       __imp_??1String@CEGUI@@QAE@XZ 00448018     CEGUIBase_d:CEGUIBase_d.dll
 0002:0000001c       __imp_?loadScheme@SchemeManager@CEGUI@@QAEPAVScheme@2@ABVString@2@0@Z 0044801c     CEGUIBase_d:CEGUIBase_d.dll
 0002:00000020       __imp_?getSingleton@SchemeManager@CEGUI@@SAAAV12@XZ 00448020     CEGUIBase_d:CEGUIBase_d.dll
 0002:00000024       __imp_??0String@CEGUI@@QAE@PBE@Z 00448024     CEGUIBase_d:CEGUIBase_d.dll
 0002:00000028       __imp_??0String@CEGUI@@QAE@PBD@Z 00448028     CEGUIBase_d:CEGUIBase_d.dll
 0002:0000002c       __imp_?setLoggingLevel@Logger@CEGUI@@QAEXW4LoggingLevel@2@@Z 0044802c     CEGUIBase_d:CEGUIBase_d.dll
 0002:00000030       __imp_?getSingleton@Logger@CEGUI@@SAAAV12@XZ 00448030     CEGUIBase_d:CEGUIBase_d.dll
 0002:00000034       __imp_??0System@CEGUI@@QAE@PAVRenderer@1@PBE@Z 00448034     CEGUIBase_d:CEGUIBase_d.dll
 0002:00000038       __imp_??0String@CEGUI@@QAE@XZ 00448038     CEGUIBase_d:CEGUIBase_d.dll
 0002:0000003c       __imp_?setGUISheet@System@CEGUI@@QAEPAVWindow@2@PAV32@@Z 0044803c     CEGUIBase_d:CEGUIBase_d.dll
 0002:00000040       __imp_?loadWindowLayout@WindowManager@CEGUI@@QAEPAVWindow@2@ABVString@2@00P6A_NPAV32@AAV42@2PAX@Z3@Z 00448040     CEGUIBase_d:CEGUIBase_d.dll
 0002:00000044       __imp_?getSingleton@WindowManager@CEGUI@@SAAAV12@XZ 00448044     CEGUIBase_d:CEGUIBase_d.dll
 0002:00000048       __imp_?destroyWindow@WindowManager@CEGUI@@QAEXPAVWindow@2@@Z 00448048     CEGUIBase_d:CEGUIBase_d.dll
 0002:0000004c       __imp_?EventClicked@PushButton@CEGUI@@2VString@2@B 0044804c     CEGUIBase_d:CEGUIBase_d.dll
 0002:00000050       __imp_?getWindow@WindowManager@CEGUI@@QBEPAVWindow@2@ABVString@2@@Z 00448050     CEGUIBase_d:CEGUIBase_d.dll
 0002:00000054       __imp_??4String@CEGUI@@QAEAAV01@ABV01@@Z 00448054     CEGUIBase_d:CEGUIBase_d.dll
 0002:00000058       __imp_?getText@Window@CEGUI@@QBEABVString@2@XZ 00448058     CEGUIBase_d:CEGUIBase_d.dll
 0002:0000005c       __imp_?hide@Window@CEGUI@@QAEXXZ 0044805c     CEGUIBase_d:CEGUIBase_d.dll
 0002:00000060       __imp_??0String@CEGUI@@QAE@ABV?$basic_string@DU?$char_traits@D@std@@V?$allocator@D@2@@std@@@Z 00448060     CEGUIBase_d:CEGUIBase_d.dll
 0002:00000064       __imp_?setText@Window@CEGUI@@QAEXABVString@2@@Z 00448064     CEGUIBase_d:CEGUIBase_d.dll
 0002:00000068       __imp_?setImage@StaticImage@CEGUI@@QAEXPBVImage@2@@Z 00448068     CEGUIBase_d:CEGUIBase_d.dll
 0002:0000006c       __imp_?getImage@Imageset@CEGUI@@QBEABVImage@2@ABVString@2@@Z 0044806c     CEGUIBase_d:CEGUIBase_d.dll
 0002:00000070       __imp_?setPosition@Window@CEGUI@@QAEXABVVector2@2@@Z 00448070     CEGUIBase_d:CEGUIBase_d.dll
 0002:00000074       __imp_??0Vector2@CEGUI@@QAE@MM@Z 00448074     CEGUIBase_d:CEGUIBase_d.dll
 0002:00000078       __imp_?getImageset@ImagesetManager@CEGUI@@QBEPAVImageset@2@ABVString@2@@Z 00448078     CEGUIBase_d:CEGUIBase_d.dll
 0002:0000007c       __imp_?getSingleton@ImagesetManager@CEGUI@@SAAAV12@XZ 0044807c     CEGUIBase_d:CEGUIBase_d.dll
 0002:00000080       __imp_?c_str@String@CEGUI@@QBEPBDXZ 00448080     CEGUIBase_d:CEGUIBase_d.dll
 0002:00000084       __imp_?length@String@CEGUI@@QBEIXZ 00448084     CEGUIBase_d:CEGUIBase_d.dll
 0002:00000088       __imp_??4String@CEGUI@@QAEAAV01@PBD@Z 00448088     CEGUIBase_d:CEGUIBase_d.dll
 0002:0000008c       __imp_??8CEGUI@@YA_NABVString@0@PBD@Z 0044808c     CEGUIBase_d:CEGUIBase_d.dll
 0002:00000090       __imp_?injectMouseMove@System@CEGUI@@QAE_NMM@Z 00448090     CEGUIBase_d:CEGUIBase_d.dll
 0002:00000094       __imp_?getSingleton@System@CEGUI@@SAAAV12@XZ 00448094     CEGUIBase_d:CEGUIBase_d.dll
 0002:00000098       __imp_?injectMouseButtonDown@System@CEGUI@@QAE_NW4MouseButton@2@@Z 00448098     CEGUIBase_d:CEGUIBase_d.dll
 0002:0000009c       __imp_?injectMouseButtonUp@System@CEGUI@@QAE_NW4MouseButton@2@@Z 0044809c     CEGUIBase_d:CEGUIBase_d.dll
 0002:000000a0       __imp_?injectChar@System@CEGUI@@QAE_NI@Z 004480a0     CEGUIBase_d:CEGUIBase_d.dll
 0002:000000a4       __imp_?injectKeyDown@System@CEGUI@@QAE_NI@Z 004480a4     CEGUIBase_d:CEGUIBase_d.dll
 0002:000000a8       __imp_?show@Window@CEGUI@@QAEXXZ 004480a8     CEGUIBase_d:CEGUIBase_d.dll
 0002:000000ac       __imp_?injectKeyUp@System@CEGUI@@QAE_NI@Z 004480ac     CEGUIBase_d:CEGUIBase_d.dll
 0002:000000b0       __imp_??1System@CEGUI@@UAE@XZ 004480b0     CEGUIBase_d:CEGUIBase_d.dll
 0002:000000b4       __imp_?release@Referenced@CEGUI@@QBEXXZ 004480b4     CEGUIBase_d:CEGUIBase_d.dll
 0002:000000b8       __imp_?subscribeScriptedEvent@EventSet@CEGUI@@UAE?AV?$RefPtr@VConnectionInterface@Event@CEGUI@@@2@ABVString@2@0@Z 004480b8     CEGUIBase_d:CEGUIBase_d.dll
 0002:000000bc       \177CEGUIBase_d_NULL_THUNK_DATA 004480bc     CEGUIBase_d:CEGUIBase_d.dll
 0002:000000c0       __imp__DirectSoundCreate8@12 004480c0     dsound:DSOUND.dll
 0002:000000c4       \177DSOUND_NULL_THUNK_DATA 004480c4     dsound:DSOUND.dll
 0002:000000c8       __imp__HeapCreate@12       004480c8     kernel32:KERNEL32.dll
 0002:000000cc       __imp__HeapDestroy@4       004480cc     kernel32:KERNEL32.dll
 0002:000000d0       __imp__HeapReAlloc@16      004480d0     kernel32:KERNEL32.dll
 0002:000000d4       __imp__HeapAlloc@12        004480d4     kernel32:KERNEL32.dll
 0002:000000d8       __imp__SetUnhandledExceptionFilter@4 004480d8     kernel32:KERNEL32.dll
 0002:000000dc       __imp__ReadFile@20         004480dc     kernel32:KERNEL32.dll
 0002:000000e0       __imp__GetCurrentProcess@0 004480e0     kernel32:KERNEL32.dll
 0002:000000e4       __imp__TerminateProcess@8  004480e4     kernel32:KERNEL32.dll
 0002:000000e8       __imp__InterlockedIncrement@4 004480e8     kernel32:KERNEL32.dll
 0002:000000ec       __imp__LoadLibraryA@4      004480ec     kernel32:KERNEL32.dll
 0002:000000f0       __imp__OutputDebugStringA@4 004480f0     kernel32:KERNEL32.dll
 0002:000000f4       __imp__InterlockedDecrement@4 004480f4     kernel32:KERNEL32.dll
 0002:000000f8       __imp__WriteFile@20        004480f8     kernel32:KERNEL32.dll
 0002:000000fc       __imp__GetStdHandle@4      004480fc     kernel32:KERNEL32.dll
 0002:00000100       __imp__DebugBreak@0        00448100     kernel32:KERNEL32.dll
 0002:00000104       __imp__HeapFree@12         00448104     kernel32:KERNEL32.dll
 0002:00000108       __imp__FatalAppExitA@8     00448108     kernel32:KERNEL32.dll
 0002:0000010c       __imp__DeleteCriticalSection@4 0044810c     kernel32:KERNEL32.dll
 0002:00000110       __imp__GetCurrentThread@0  00448110     kernel32:KERNEL32.dll
 0002:00000114       __imp__GetLastError@0      00448114     kernel32:KERNEL32.dll
 0002:00000118       __imp__SetLastError@4      00448118     kernel32:KERNEL32.dll
 0002:0000011c       __imp__VirtualFree@12      0044811c     kernel32:KERNEL32.dll
 0002:00000120       __imp__TlsSetValue@8       00448120     kernel32:KERNEL32.dll
 0002:00000124       __imp__TlsFree@4           00448124     kernel32:KERNEL32.dll
 0002:00000128       __imp__TlsAlloc@0          00448128     kernel32:KERNEL32.dll
 0002:0000012c       __imp__GetProcAddress@8    0044812c     kernel32:KERNEL32.dll
 0002:00000130       __imp__GetSystemTimeAsFileTime@4 00448130     kernel32:KERNEL32.dll
 0002:00000134       __imp__GetCurrentProcessId@0 00448134     kernel32:KERNEL32.dll
 0002:00000138       __imp__GetCurrentThreadId@0 00448138     kernel32:KERNEL32.dll
 0002:0000013c       __imp__GetTickCount@0      0044813c     kernel32:KERNEL32.dll
 0002:00000140       __imp__QueryPerformanceCounter@4 00448140     kernel32:KERNEL32.dll
 0002:00000144       __imp__GetVersionExA@4     00448144     kernel32:KERNEL32.dll
 0002:00000148       __imp__GetCommandLineA@0   00448148     kernel32:KERNEL32.dll
 0002:0000014c       __imp__GetStartupInfoA@4   0044814c     kernel32:KERNEL32.dll
 0002:00000150       __imp__LeaveCriticalSection@4 00448150     kernel32:KERNEL32.dll
 0002:00000154       __imp__EnterCriticalSection@4 00448154     kernel32:KERNEL32.dll
 0002:00000158       __imp__GetModuleFileNameA@12 00448158     kernel32:KERNEL32.dll
 0002:0000015c       __imp__HeapValidate@12     0044815c     kernel32:KERNEL32.dll
 0002:00000160       __imp__IsBadReadPtr@8      00448160     kernel32:KERNEL32.dll
 0002:00000164       __imp__IsBadWritePtr@8     00448164     kernel32:KERNEL32.dll
 0002:00000168       __imp__RaiseException@16   00448168     kernel32:KERNEL32.dll
 0002:0000016c       __imp__RtlUnwind@16        0044816c     kernel32:KERNEL32.dll
 0002:00000170       __imp__ExitProcess@4       00448170     kernel32:KERNEL32.dll
 0002:00000174       __imp__SetConsoleCtrlHandler@8 00448174     kernel32:KERNEL32.dll
 0002:00000178       __imp__VirtualAlloc@16     00448178     kernel32:KERNEL32.dll
 0002:0000017c       __imp__SetHandleCount@4    0044817c     kernel32:KERNEL32.dll
 0002:00000180       __imp__GetFileType@4       00448180     kernel32:KERNEL32.dll
 0002:00000184       __imp__UnhandledExceptionFilter@4 00448184     kernel32:KERNEL32.dll
 0002:00000188       __imp__FreeEnvironmentStringsA@4 00448188     kernel32:KERNEL32.dll
 0002:0000018c       __imp__GetEnvironmentStrings@0 0044818c     kernel32:KERNEL32.dll
 0002:00000190       __imp__FreeEnvironmentStringsW@4 00448190     kernel32:KERNEL32.dll
 0002:00000194       __imp__WideCharToMultiByte@32 00448194     kernel32:KERNEL32.dll
 0002:00000198       __imp__GetEnvironmentStringsW@0 00448198     kernel32:KERNEL32.dll
 0002:0000019c       __imp__VirtualQuery@12     0044819c     kernel32:KERNEL32.dll
 0002:000001a0       __imp__InterlockedExchange@8 004481a0     kernel32:KERNEL32.dll
 0002:000001a4       __imp__IsBadCodePtr@4      004481a4     kernel32:KERNEL32.dll
 0002:000001a8       __imp__GetACP@0            004481a8     kernel32:KERNEL32.dll
 0002:000001ac       __imp__GetOEMCP@0          004481ac     kernel32:KERNEL32.dll
 0002:000001b0       __imp__GetCPInfo@8         004481b0     kernel32:KERNEL32.dll
 0002:000001b4       __imp__InitializeCriticalSection@4 004481b4     kernel32:KERNEL32.dll
 0002:000001b8       __imp__SetFilePointer@16   004481b8     kernel32:KERNEL32.dll
 0002:000001bc       __imp__SetStdHandle@8      004481bc     kernel32:KERNEL32.dll
 0002:000001c0       __imp__FlushFileBuffers@4  004481c0     kernel32:KERNEL32.dll
 0002:000001c4       __imp__GetTimeFormatA@24   004481c4     kernel32:KERNEL32.dll
 0002:000001c8       __imp__GetDateFormatA@24   004481c8     kernel32:KERNEL32.dll
 0002:000001cc       __imp__MultiByteToWideChar@24 004481cc     kernel32:KERNEL32.dll
 0002:000001d0       __imp__GetStringTypeA@20   004481d0     kernel32:KERNEL32.dll
 0002:000001d4       __imp__GetStringTypeW@16   004481d4     kernel32:KERNEL32.dll
 0002:000001d8       __imp__IsValidLocale@8     004481d8     kernel32:KERNEL32.dll
 0002:000001dc       __imp__IsValidCodePage@4   004481dc     kernel32:KERNEL32.dll
 0002:000001e0       __imp__GetLocaleInfoA@16   004481e0     kernel32:KERNEL32.dll
 0002:000001e4       __imp__EnumSystemLocalesA@8 004481e4     kernel32:KERNEL32.dll
 0002:000001e8       __imp__GetUserDefaultLCID@0 004481e8     kernel32:KERNEL32.dll
 0002:000001ec       __imp__LCMapStringA@24     004481ec     kernel32:KERNEL32.dll
 0002:000001f0       __imp__LCMapStringW@24     004481f0     kernel32:KERNEL32.dll
 0002:000001f4       __imp__SetEndOfFile@4      004481f4     kernel32:KERNEL32.dll
 0002:000001f8       __imp__GetTimeZoneInformation@4 004481f8     kernel32:KERNEL32.dll
 0002:000001fc       __imp__VirtualProtect@16   004481fc     kernel32:KERNEL32.dll
 0002:00000200       __imp__GetSystemInfo@4     00448200     kernel32:KERNEL32.dll
 0002:00000204       __imp__GetLocaleInfoW@16   00448204     kernel32:KERNEL32.dll
 0002:00000208       __imp__CompareStringA@24   00448208     kernel32:KERNEL32.dll
 0002:0000020c       __imp__CompareStringW@24   0044820c     kernel32:KERNEL32.dll
 0002:00000210       __imp__FindResourceA@12    00448210     kernel32:KERNEL32.dll
 0002:00000214       __imp__GetModuleHandleA@4  00448214     kernel32:KERNEL32.dll
 0002:00000218       __imp__LoadResource@8      00448218     kernel32:KERNEL32.dll
 0002:0000021c       __imp__SizeofResource@8    0044821c     kernel32:KERNEL32.dll
 0002:00000220       __imp__LockResource@4      00448220     kernel32:KERNEL32.dll
 0002:00000224       __imp__Sleep@4             00448224     kernel32:KERNEL32.dll
 0002:00000228       __imp__CreateFileA@28      00448228     kernel32:KERNEL32.dll
 0002:0000022c       __imp__GetFileSize@8       0044822c     kernel32:KERNEL32.dll
 0002:00000230       __imp__TlsGetValue@4       00448230     kernel32:KERNEL32.dll
 0002:00000234       __imp__CloseHandle@4       00448234     kernel32:KERNEL32.dll
 0002:00000238       __imp__SetEnvironmentVariableA@8 00448238     kernel32:KERNEL32.dll
 0002:0000023c       \177KERNEL32_NULL_THUNK_DATA 0044823c     kernel32:KERNEL32.dll
 0002:00000240       __imp__NxInitCooking       00448240     NxCooking:NxCooking.dll
 0002:00000244       __imp__NxCookTriangleMesh  00448244     NxCooking:NxCooking.dll
 0002:00000248       __imp__NxCookConvexMesh    00448248     NxCooking:NxCooking.dll
 0002:0000024c       \177NxCooking_NULL_THUNK_DATA 0044824c     NxCooking:NxCooking.dll
 0002:00000250       __imp_??0OgreCEGUIRenderer@CEGUI@@QAE@PAVRenderWindow@Ogre@@E_NIPAVSceneManager@3@@Z 00448250     OgreGUIRenderer_d:OgreGUIRenderer_d.dll
 0002:00000254       __imp_??1OgreCEGUIRenderer@CEGUI@@UAE@XZ 00448254     OgreGUIRenderer_d:OgreGUIRenderer_d.dll
 0002:00000258       __imp_?createTexture@OgreCEGUIRenderer@CEGUI@@UAEPAVTexture@2@ABVString@2@0@Z 00448258     OgreGUIRenderer_d:OgreGUIRenderer_d.dll
 0002:0000025c       __imp_?createTexture@OgreCEGUIRenderer@CEGUI@@UAEPAVTexture@2@XZ 0044825c     OgreGUIRenderer_d:OgreGUIRenderer_d.dll
 0002:00000260       __imp_?destroyTexture@OgreCEGUIRenderer@CEGUI@@UAEXPAVTexture@2@@Z 00448260     OgreGUIRenderer_d:OgreGUIRenderer_d.dll
 0002:00000264       __imp_?destroyAllTextures@OgreCEGUIRenderer@CEGUI@@UAEXXZ 00448264     OgreGUIRenderer_d:OgreGUIRenderer_d.dll
 0002:00000268       __imp_?isQueueingEnabled@OgreCEGUIRenderer@CEGUI@@UBE_NXZ 00448268     OgreGUIRenderer_d:OgreGUIRenderer_d.dll
 0002:0000026c       __imp_?addQuad@OgreCEGUIRenderer@CEGUI@@UAEXABVRect@2@MPBVTexture@2@0ABVColourRect@2@W4QuadSplitMode@2@@Z 0044826c     OgreGUIRenderer_d:OgreGUIRenderer_d.dll
 0002:00000270       __imp_?getHeight@OgreCEGUIRenderer@CEGUI@@UBEMXZ 00448270     OgreGUIRenderer_d:OgreGUIRenderer_d.dll
 0002:00000274       __imp_?getSize@OgreCEGUIRenderer@CEGUI@@UBE?AVSize@2@XZ 00448274     OgreGUIRenderer_d:OgreGUIRenderer_d.dll
 0002:00000278       __imp_?getRect@OgreCEGUIRenderer@CEGUI@@UBE?AVRect@2@XZ 00448278     OgreGUIRenderer_d:OgreGUIRenderer_d.dll
 0002:0000027c       __imp_?getMaxTextureSize@OgreCEGUIRenderer@CEGUI@@UBEIXZ 0044827c     OgreGUIRenderer_d:OgreGUIRenderer_d.dll
 0002:00000280       __imp_?getHorzScreenDPI@OgreCEGUIRenderer@CEGUI@@UBEIXZ 00448280     OgreGUIRenderer_d:OgreGUIRenderer_d.dll
 0002:00000284       __imp_?getVertScreenDPI@OgreCEGUIRenderer@CEGUI@@UBEIXZ 00448284     OgreGUIRenderer_d:OgreGUIRenderer_d.dll
 0002:00000288       __imp_?createResourceProvider@OgreCEGUIRenderer@CEGUI@@UAEPAVResourceProvider@2@XZ 00448288     OgreGUIRenderer_d:OgreGUIRenderer_d.dll
 0002:0000028c       __imp_?createTexture@OgreCEGUIRenderer@CEGUI@@UAEPAVTexture@2@M@Z 0044828c     OgreGUIRenderer_d:OgreGUIRenderer_d.dll
 0002:00000290       __imp_?doRender@OgreCEGUIRenderer@CEGUI@@UAEXXZ 00448290     OgreGUIRenderer_d:OgreGUIRenderer_d.dll
 0002:00000294       __imp_?clearRenderList@OgreCEGUIRenderer@CEGUI@@UAEXXZ 00448294     OgreGUIRenderer_d:OgreGUIRenderer_d.dll
 0002:00000298       __imp_?setQueueingEnabled@OgreCEGUIRenderer@CEGUI@@UAEX_N@Z 00448298     OgreGUIRenderer_d:OgreGUIRenderer_d.dll
 0002:0000029c       __imp_?getWidth@OgreCEGUIRenderer@CEGUI@@UBEMXZ 0044829c     OgreGUIRenderer_d:OgreGUIRenderer_d.dll
 0002:000002a0       \177OgreGUIRenderer_d_NULL_THUNK_DATA 004482a0     OgreGUIRenderer_d:OgreGUIRenderer_d.dll
 0002:000002a4       __imp_?FromAngleAxis@Quaternion@Ogre@@QAEXABVRadian@2@ABVVector3@2@@Z 004482a4     OgreMain_d:OgreMain_d.dll
 0002:000002a8       __imp_??KVector3@Ogre@@QBE?AV01@M@Z 004482a8     OgreMain_d:OgreMain_d.dll
 0002:000002ac       __imp_?setPosition@Camera@Ogre@@QAEXMMM@Z 004482ac     OgreMain_d:OgreMain_d.dll
 0002:000002b0       __imp_?getName@Node@Ogre@@QBEABV?$basic_string@DU?$char_traits@D@std@@V?$allocator@D@2@@std@@XZ 004482b0     OgreMain_d:OgreMain_d.dll
 0002:000002b4       __imp_??GVector3@Ogre@@QBE?AV01@ABV01@@Z 004482b4     OgreMain_d:OgreMain_d.dll
 0002:000002b8       __imp_??9Vector3@Ogre@@QBE_NABV01@@Z 004482b8     OgreMain_d:OgreMain_d.dll
 0002:000002bc       __imp_?getCreator@SceneNode@Ogre@@QBEPAVSceneManager@2@XZ 004482bc     OgreMain_d:OgreMain_d.dll
 0002:000002c0       __imp_?IDENTITY@Quaternion@Ogre@@2V12@B 004482c0     OgreMain_d:OgreMain_d.dll
 0002:000002c4       __imp_?setOwner@MemoryManager@Ogre@@QAEXPBDI0@Z 004482c4     OgreMain_d:OgreMain_d.dll
 0002:000002c8       __imp_?getKey@KeyEvent@Ogre@@QAEHXZ 004482c8     OgreMain_d:OgreMain_d.dll
 0002:000002cc       __imp_?getButtonID@MouseEvent@Ogre@@QBEHXZ 004482cc     OgreMain_d:OgreMain_d.dll
 0002:000002d0       __imp_?getRelY@MouseEvent@Ogre@@QBEMXZ 004482d0     OgreMain_d:OgreMain_d.dll
 0002:000002d4       __imp_?getRelX@MouseEvent@Ogre@@QBEMXZ 004482d4     OgreMain_d:OgreMain_d.dll
 0002:000002d8       __imp_?consume@InputEvent@Ogre@@QAEXXZ 004482d8     OgreMain_d:OgreMain_d.dll
 0002:000002dc       __imp_??0Quaternion@Ogre@@QAE@ABV01@@Z 004482dc     OgreMain_d:OgreMain_d.dll
 0002:000002e0       __imp_??4Quaternion@Ogre@@QAEAAV01@ABV01@@Z 004482e0     OgreMain_d:OgreMain_d.dll
 0002:000002e4       __imp_?op_new_vc@MemoryManager@Ogre@@AAEPAXII@Z 004482e4     OgreMain_d:OgreMain_d.dll
 0002:000002e8       __imp_?Abs@Math@Ogre@@SAMM@Z 004482e8     OgreMain_d:OgreMain_d.dll
 0002:000002ec       __imp_?toString@StringConverter@Ogre@@SA?AV?$basic_string@DU?$char_traits@D@std@@V?$allocator@D@2@@std@@HGDH@Z 004482ec     OgreMain_d:OgreMain_d.dll
 0002:000002f0       __imp_??0MouseMotionListener@Ogre@@QAE@XZ 004482f0     OgreMain_d:OgreMain_d.dll
 0002:000002f4       __imp_??0MouseListener@Ogre@@QAE@XZ 004482f4     OgreMain_d:OgreMain_d.dll
 0002:000002f8       __imp_??0Timer@Ogre@@QAE@XZ 004482f8     OgreMain_d:OgreMain_d.dll
 0002:000002fc       __imp_?getLog@LogManager@Ogre@@QAEPAVLog@2@ABV?$basic_string@DU?$char_traits@D@std@@V?$allocator@D@2@@std@@@Z 004482fc     OgreMain_d:OgreMain_d.dll
 0002:00000300       __imp_?addMouseListener@MouseTarget@Ogre@@QAEXPAVMouseListener@2@@Z 00448300     OgreMain_d:OgreMain_d.dll
 0002:00000304       __imp_?addMouseMotionListener@MouseMotionTarget@Ogre@@QAEXPAVMouseMotionListener@2@@Z 00448304     OgreMain_d:OgreMain_d.dll
 0002:00000308       __imp_??0Vector3@Ogre@@QAE@ABV01@@Z 00448308     OgreMain_d:OgreMain_d.dll
 0002:0000030c       __imp_??1MouseMotionListener@Ogre@@UAE@XZ 0044830c     OgreMain_d:OgreMain_d.dll
 0002:00000310       __imp_??1MouseListener@Ogre@@UAE@XZ 00448310     OgreMain_d:OgreMain_d.dll
 0002:00000314       __imp_??1Timer@Ogre@@UAE@XZ 00448314     OgreMain_d:OgreMain_d.dll
 0002:00000318       __imp_?mouseDragMoved@MouseMotionListener@Ogre@@UAEXPAVMouseEvent@2@@Z 00448318     OgreMain_d:OgreMain_d.dll
 0002:0000031c       __imp_?op_new_sc@MemoryManager@Ogre@@AAEPAXII@Z 0044831c     OgreMain_d:OgreMain_d.dll
 0002:00000320       __imp_?_getProcessID@MemoryManager@Ogre@@AAEIXZ 00448320     OgreMain_d:OgreMain_d.dll
 0002:00000324       __imp_?DEFAULT_RESOURCE_GROUP_NAME@ResourceGroupManager@Ogre@@2V?$basic_string@DU?$char_traits@D@std@@V?$allocator@D@2@@std@@A 00448324     OgreMain_d:OgreMain_d.dll
 0002:00000328       __imp_?setAmbientLight@SceneManager@Ogre@@QAEXABVColourValue@2@@Z 00448328     OgreMain_d:OgreMain_d.dll
 0002:0000032c       __imp_?logMessage@Log@Ogre@@QAEXABV?$basic_string@DU?$char_traits@D@std@@V?$allocator@D@2@@std@@W4LogMessageLevel@2@_N@Z 0044832c     OgreMain_d:OgreMain_d.dll
 0002:00000330       __imp_?PI@Math@Ogre@@2MB   00448330     OgreMain_d:OgreMain_d.dll
 0002:00000334       __imp_?instance@MemoryManager@Ogre@@SAAAV12@XZ 00448334     OgreMain_d:OgreMain_d.dll
 0002:00000338       __imp_?op_del_sc@MemoryManager@Ogre@@AAEXPAXI@Z 00448338     OgreMain_d:OgreMain_d.dll
 0002:0000033c       __imp_?op_del_vc@MemoryManager@Ogre@@AAEXPAXI@Z 0044833c     OgreMain_d:OgreMain_d.dll
 0002:00000340       __imp_?getFullDescription@Exception@Ogre@@QBE?AV?$basic_string@DU?$char_traits@D@std@@V?$allocator@D@2@@std@@XZ 00448340     OgreMain_d:OgreMain_d.dll
 0002:00000344       __imp_?startRendering@Root@Ogre@@QAEXXZ 00448344     OgreMain_d:OgreMain_d.dll
 0002:00000348       __imp_?getSingleton@TextureManager@Ogre@@SAAAV12@XZ 00448348     OgreMain_d:OgreMain_d.dll
 0002:0000034c       __imp_??0Root@Ogre@@QAE@ABV?$basic_string@DU?$char_traits@D@std@@V?$allocator@D@2@@std@@00@Z 0044834c     OgreMain_d:OgreMain_d.dll
 0002:00000350       __imp_?initialise@Root@Ogre@@QAEPAVRenderWindow@2@_NABV?$basic_string@DU?$char_traits@D@std@@V?$allocator@D@2@@std@@@Z 00448350     OgreMain_d:OgreMain_d.dll
 0002:00000354       __imp_?showConfigDialog@Root@Ogre@@QAE_NXZ 00448354     OgreMain_d:OgreMain_d.dll
 0002:00000358       __imp_?createSceneManager@Root@Ogre@@QAEPAVSceneManager@2@GABV?$basic_string@DU?$char_traits@D@std@@V?$allocator@D@2@@std@@@Z 00448358     OgreMain_d:OgreMain_d.dll
 0002:0000035c       __imp_?lookAt@Camera@Ogre@@QAEXABVVector3@2@@Z 0044835c     OgreMain_d:OgreMain_d.dll
 0002:00000360       __imp_?setPosition@Camera@Ogre@@QAEXABVVector3@2@@Z 00448360     OgreMain_d:OgreMain_d.dll
 0002:00000364       __imp_?mouseDragEntered@MouseListener@Ogre@@UAEXPAVMouseEvent@2@@Z 00448364     OgreMain_d:OgreMain_d.dll
 0002:00000368       __imp_?mouseDragExited@MouseListener@Ogre@@UAEXPAVMouseEvent@2@@Z 00448368     OgreMain_d:OgreMain_d.dll
 0002:0000036c       __imp_?mouseDragDropped@MouseListener@Ogre@@UAEXPAVMouseEvent@2@@Z 0044836c     OgreMain_d:OgreMain_d.dll
 0002:00000370       __imp_?getSingleton@LogManager@Ogre@@SAAAV12@XZ 00448370     OgreMain_d:OgreMain_d.dll
 0002:00000374       __imp_?createLog@LogManager@Ogre@@QAEPAVLog@2@ABV?$basic_string@DU?$char_traits@D@std@@V?$allocator@D@2@@std@@_N11@Z 00448374     OgreMain_d:OgreMain_d.dll
 0002:00000378       __imp_??0Quaternion@Ogre@@QAE@MMMM@Z 00448378     OgreMain_d:OgreMain_d.dll
 0002:0000037c       __imp_?BLANK@StringUtil@Ogre@@2V?$basic_string@DU?$char_traits@D@std@@V?$allocator@D@2@@std@@B 0044837c     OgreMain_d:OgreMain_d.dll
 0002:00000380       __imp_??1Root@Ogre@@QAE@XZ 00448380     OgreMain_d:OgreMain_d.dll
 0002:00000384       __imp_?initialiseAllResourceGroups@ResourceGroupManager@Ogre@@QAEXXZ 00448384     OgreMain_d:OgreMain_d.dll
 0002:00000388       __imp_??0ConfigFile@Ogre@@QAE@XZ 00448388     OgreMain_d:OgreMain_d.dll
 0002:0000038c       __imp_?load@ConfigFile@Ogre@@QAEXABV?$basic_string@DU?$char_traits@D@std@@V?$allocator@D@2@@std@@0_N@Z 0044838c     OgreMain_d:OgreMain_d.dll
 0002:00000390       __imp_?getSectionIterator@ConfigFile@Ogre@@QAE?AV?$MapIterator@V?$map@V?$basic_string@DU?$char_traits@D@std@@V?$allocator@D@2@@std@@PAV?$multimap@V?$basic_string@DU?$char_traits@D@std@@V?$allocator@D@2@@std@@V12@U?$less@V?$basic_string@DU?$char_traits@D@std@@V?$allocator@D@2@@std@@@2@V?$allocator@U?$pair@$$CBV?$basic_string@DU?$char_traits@D@std@@V?$allocator@D@2@@std@@V12@@std@@@2@@2@U?$less@V?$basic_string@DU?$char_traits@D@std@@V?$allocator@D@2@@std@@@2@V?$allocator@U?$pair@$$CBV?$basic_string@DU?$char_traits@D@std@@V?$allocator@D@2@@std@@PAV?$multimap@V?$basic_string@DU?$char_traits@D@std@@V?$allocator@D@2@@std@@V12@U?$less@V?$basic_string@DU?$char_traits@D@std@@V?$allocator@D@2@@std@@@2@V?$allocator@U?$pair@$$CBV?$basic_string@DU?$char_traits@D@std@@V?$allocator@D@2@@std@@V12@@std@@@2@@2@@std@@@2@@std@@@2@XZ 00448390     OgreMain_d:OgreMain_d.dll
 0002:00000394       __imp_?getSingleton@ResourceGroupManager@Ogre@@SAAAV12@XZ 00448394     OgreMain_d:OgreMain_d.dll
 0002:00000398       __imp_?addResourceLocation@ResourceGroupManager@Ogre@@QAEXABV?$basic_string@DU?$char_traits@D@std@@V?$allocator@D@2@@std@@00_N@Z 00448398     OgreMain_d:OgreMain_d.dll
 0002:0000039c       __imp_??1ConfigFile@Ogre@@UAE@XZ 0044839c     OgreMain_d:OgreMain_d.dll
 0002:000003a0       __imp_??0ColourValue@Ogre@@QAE@MMMM@Z 004483a0     OgreMain_d:OgreMain_d.dll
 0002:000003a4       __imp_?setBackgroundColour@Viewport@Ogre@@QAEXABVColourValue@2@@Z 004483a4     OgreMain_d:OgreMain_d.dll
 0002:000003a8       __imp_?getActualWidth@Viewport@Ogre@@QBEHXZ 004483a8     OgreMain_d:OgreMain_d.dll
 0002:000003ac       __imp_?getActualHeight@Viewport@Ogre@@QBEHXZ 004483ac     OgreMain_d:OgreMain_d.dll
 0002:000003b0       __imp_??1EventProcessor@Ogre@@UAE@XZ 004483b0     OgreMain_d:OgreMain_d.dll
 0002:000003b4       __imp_?destroyInputReader@PlatformManager@Ogre@@QAEXPAVInputReader@2@@Z 004483b4     OgreMain_d:OgreMain_d.dll
 0002:000003b8       __imp_?getKeyChar@KeyEvent@Ogre@@QAEDXZ 004483b8     OgreMain_d:OgreMain_d.dll
 0002:000003bc       __imp_?getOverlayElement@OverlayManager@Ogre@@QAEPAVOverlayElement@2@ABV?$basic_string@DU?$char_traits@D@std@@V?$allocator@D@2@@std@@_N@Z 004483bc     OgreMain_d:OgreMain_d.dll
 0002:000003c0       __imp_?toString@StringConverter@Ogre@@SA?AV?$basic_string@DU?$char_traits@D@std@@V?$allocator@D@2@@std@@MGGDH@Z 004483c0     OgreMain_d:OgreMain_d.dll
 0002:000003c4       __imp_?toString@StringConverter@Ogre@@SA?AV?$basic_string@DU?$char_traits@D@std@@V?$allocator@D@2@@std@@KGDH@Z 004483c4     OgreMain_d:OgreMain_d.dll
 0002:000003c8       __imp_?toString@StringConverter@Ogre@@SA?AV?$basic_string@DU?$char_traits@D@std@@V?$allocator@D@2@@std@@IGDH@Z 004483c8     OgreMain_d:OgreMain_d.dll
 0002:000003cc       __imp_?getDebugText@RenderTarget@Ogre@@QBEABV?$basic_string@DU?$char_traits@D@std@@V?$allocator@D@2@@std@@XZ 004483cc     OgreMain_d:OgreMain_d.dll
 0002:000003d0       __imp_?pitch@Camera@Ogre@@QAEXABVRadian@2@@Z 004483d0     OgreMain_d:OgreMain_d.dll
 0002:000003d4       __imp_?moveRelative@Camera@Ogre@@QAEXABVVector3@2@@Z 004483d4     OgreMain_d:OgreMain_d.dll
 0002:000003d8       __imp_?show@Overlay@Ogre@@QAEXXZ 004483d8     OgreMain_d:OgreMain_d.dll
 0002:000003dc       __imp_?hide@Overlay@Ogre@@QAEXXZ 004483dc     OgreMain_d:OgreMain_d.dll
 0002:000003e0       __imp_?DegreesToRadians@Math@Ogre@@SAMM@Z 004483e0     OgreMain_d:OgreMain_d.dll
 0002:000003e4       __imp_?yaw@Camera@Ogre@@QAEXABVRadian@2@@Z 004483e4     OgreMain_d:OgreMain_d.dll
 0002:000003e8       __imp_?getSingleton@MaterialManager@Ogre@@SAAAV12@XZ 004483e8     OgreMain_d:OgreMain_d.dll
 0002:000003ec       __imp_?setDefaultAnisotropy@MaterialManager@Ogre@@QAEXI@Z 004483ec     OgreMain_d:OgreMain_d.dll
 0002:000003f0       __imp_?setPolygonMode@Camera@Ogre@@QAEXW4PolygonMode@2@@Z 004483f0     OgreMain_d:OgreMain_d.dll
 0002:000003f4       __imp_?getDerivedOrientation@Camera@Ogre@@QBEABVQuaternion@2@XZ 004483f4     OgreMain_d:OgreMain_d.dll
 0002:000003f8       __imp_?toString@StringConverter@Ogre@@SA?AV?$basic_string@DU?$char_traits@D@std@@V?$allocator@D@2@@std@@ABVQuaternion@2@@Z 004483f8     OgreMain_d:OgreMain_d.dll
 0002:000003fc       __imp_?getDerivedPosition@Camera@Ogre@@QBEABVVector3@2@XZ 004483fc     OgreMain_d:OgreMain_d.dll
 0002:00000400       __imp_?toString@StringConverter@Ogre@@SA?AV?$basic_string@DU?$char_traits@D@std@@V?$allocator@D@2@@std@@ABVVector3@2@@Z 00448400     OgreMain_d:OgreMain_d.dll
 0002:00000404       __imp_??0FrameListener@Ogre@@QAE@XZ 00448404     OgreMain_d:OgreMain_d.dll
 0002:00000408       __imp_??0KeyListener@Ogre@@QAE@XZ 00448408     OgreMain_d:OgreMain_d.dll
 0002:0000040c       __imp_??0Vector3@Ogre@@QAE@XZ 0044840c     OgreMain_d:OgreMain_d.dll
 0002:00000410       __imp_?getSingleton@OverlayManager@Ogre@@SAAAV12@XZ 00448410     OgreMain_d:OgreMain_d.dll
 0002:00000414       __imp_?getByName@OverlayManager@Ogre@@QAEPAVOverlay@2@ABV?$basic_string@DU?$char_traits@D@std@@V?$allocator@D@2@@std@@@Z 00448414     OgreMain_d:OgreMain_d.dll
 0002:00000418       __imp_??0EventProcessor@Ogre@@QAE@XZ 00448418     OgreMain_d:OgreMain_d.dll
 0002:0000041c       __imp_?initialise@EventProcessor@Ogre@@QAEXPAVRenderWindow@2@@Z 0044841c     OgreMain_d:OgreMain_d.dll
 0002:00000420       __imp_?startProcessingEvents@EventProcessor@Ogre@@QAEX_N@Z 00448420     OgreMain_d:OgreMain_d.dll
 0002:00000424       __imp_?addKeyListener@KeyTarget@Ogre@@QAEXPAVKeyListener@2@@Z 00448424     OgreMain_d:OgreMain_d.dll
 0002:00000428       __imp_?getInputReader@EventProcessor@Ogre@@QAEPAVInputReader@2@XZ 00448428     OgreMain_d:OgreMain_d.dll
 0002:0000042c       __imp_?getSingleton@PlatformManager@Ogre@@SAAAV12@XZ 0044842c     OgreMain_d:OgreMain_d.dll
 0002:00000430       __imp_?createInputReader@PlatformManager@Ogre@@QAEPAVInputReader@2@XZ 00448430     OgreMain_d:OgreMain_d.dll
 0002:00000434       __imp_?ZERO@Vector3@Ogre@@2V12@B 00448434     OgreMain_d:OgreMain_d.dll
 0002:00000438       __imp_??4Vector3@Ogre@@QAEAAV01@ABV01@@Z 00448438     OgreMain_d:OgreMain_d.dll
 0002:0000043c       __imp_??1FrameListener@Ogre@@UAE@XZ 0044843c     OgreMain_d:OgreMain_d.dll
 0002:00000440       __imp_??1KeyListener@Ogre@@UAE@XZ 00448440     OgreMain_d:OgreMain_d.dll
 0002:00000444       __imp_?keyFocusIn@KeyListener@Ogre@@UAEXPAVKeyEvent@2@@Z 00448444     OgreMain_d:OgreMain_d.dll
 0002:00000448       __imp_?keyFocusOut@KeyListener@Ogre@@UAEXPAVKeyEvent@2@@Z 00448448     OgreMain_d:OgreMain_d.dll
 0002:0000044c       __imp_?frameStarted@EventProcessor@Ogre@@UAE_NABUFrameEvent@2@@Z 0044844c     OgreMain_d:OgreMain_d.dll
 0002:00000450       __imp_?frameEnded@FrameListener@Ogre@@UAE_NABUFrameEvent@2@@Z 00448450     OgreMain_d:OgreMain_d.dll
 0002:00000454       __imp_?processEvent@EventProcessor@Ogre@@UAEXPAVInputEvent@2@@Z 00448454     OgreMain_d:OgreMain_d.dll
 0002:00000458       __imp_?getLeft@EventProcessor@Ogre@@UBEMXZ 00448458     OgreMain_d:OgreMain_d.dll
 0002:0000045c       __imp_?getTop@EventProcessor@Ogre@@UBEMXZ 0044845c     OgreMain_d:OgreMain_d.dll
 0002:00000460       __imp_?getPositionTargetParent@EventProcessor@Ogre@@UBEPAVPositionTarget@2@XZ 00448460     OgreMain_d:OgreMain_d.dll
 0002:00000464       __imp_?isKeyEnabled@EventProcessor@Ogre@@UBE_NXZ 00448464     OgreMain_d:OgreMain_d.dll
 0002:00000468       __imp_?addFrameListener@Root@Ogre@@QAEXPAVFrameListener@2@@Z 00448468     OgreMain_d:OgreMain_d.dll
 0002:0000046c       __imp_??0Vector3@Ogre@@QAE@MMM@Z 0044846c     OgreMain_d:OgreMain_d.dll
 0002:00000470       __imp_?setOrientation@Camera@Ogre@@QAEXABVQuaternion@2@@Z 00448470     OgreMain_d:OgreMain_d.dll
 0002:00000474       \177OgreMain_d_NULL_THUNK_DATA 00448474     OgreMain_d:OgreMain_d.dll
 0002:00000478       __imp__NxCreatePhysicsSDK  00448478     PhysXLoader:PhysXLoader.dll
 0002:0000047c       \177PhysXLoader_NULL_THUNK_DATA 0044847c     PhysXLoader:PhysXLoader.dll
 0002:00000480       __imp__GetForegroundWindow@0 00448480     user32:USER32.dll
 0002:00000484       __imp__MessageBoxA@16      00448484     user32:USER32.dll
 0002:00000488       \177USER32_NULL_THUNK_DATA 00448488     user32:USER32.dll
 0002:0000048c       __imp__mmioGetInfo@12      0044848c     winmm:WINMM.dll
 0002:00000490       __imp__mmioDescend@16      00448490     winmm:WINMM.dll
 0002:00000494       __imp__mmioCreateChunk@12  00448494     winmm:WINMM.dll
 0002:00000498       __imp__mmioAscend@12       00448498     winmm:WINMM.dll
 0002:0000049c       __imp__mmioOpenA@12        0044849c     winmm:WINMM.dll
 0002:000004a0       __imp__mmioClose@8         004484a0     winmm:WINMM.dll
 0002:000004a4       __imp__mmioSeek@12         004484a4     winmm:WINMM.dll
 0002:000004a8       __imp__mmioSetInfo@12      004484a8     winmm:WINMM.dll
 0002:000004ac       __imp__mmioAdvance@12      004484ac     winmm:WINMM.dll
 0002:000004b0       __imp__mmioWrite@12        004484b0     winmm:WINMM.dll
 0002:000004b4       __imp__mmioRead@12         004484b4     winmm:WINMM.dll
 0002:000004b8       \177WINMM_NULL_THUNK_DATA  004484b8     winmm:WINMM.dll
 0002:000004ec       __real@00000000            004484ec     AudioClass.obj
 0002:000004f0       ??_7SoundClass@@6B@        004484f0     AudioClass.obj
 0002:00000584       ?min_exponent10@?$numeric_limits@O@std@@2HB 00448584     CuteCar.obj
 0002:00000588       ?min_exponent@?$numeric_limits@O@std@@2HB 00448588     CuteCar.obj
 0002:0000058c       ?max_exponent10@?$numeric_limits@O@std@@2HB 0044858c     CuteCar.obj
 0002:00000590       ?max_exponent@?$numeric_limits@O@std@@2HB 00448590     CuteCar.obj
 0002:00000594       ?digits10@?$numeric_limits@O@std@@2HB 00448594     CuteCar.obj
 0002:00000598       ?digits@?$numeric_limits@O@std@@2HB 00448598     CuteCar.obj
 0002:0000059c       ?min_exponent10@?$numeric_limits@N@std@@2HB 0044859c     CuteCar.obj
 0002:000005a0       ?min_exponent@?$numeric_limits@N@std@@2HB 004485a0     CuteCar.obj
 0002:000005a4       ?max_exponent10@?$numeric_limits@N@std@@2HB 004485a4     CuteCar.obj
 0002:000005a8       ?max_exponent@?$numeric_limits@N@std@@2HB 004485a8     CuteCar.obj
 0002:000005ac       ?digits10@?$numeric_limits@N@std@@2HB 004485ac     CuteCar.obj
 0002:000005b0       ?digits@?$numeric_limits@N@std@@2HB 004485b0     CuteCar.obj
 0002:000005b4       ?min_exponent10@?$numeric_limits@M@std@@2HB 004485b4     CuteCar.obj
 0002:000005b8       ?min_exponent@?$numeric_limits@M@std@@2HB 004485b8     CuteCar.obj
 0002:000005bc       ?max_exponent10@?$numeric_limits@M@std@@2HB 004485bc     CuteCar.obj
 0002:000005c0       ?max_exponent@?$numeric_limits@M@std@@2HB 004485c0     CuteCar.obj
 0002:000005c4       ?digits10@?$numeric_limits@M@std@@2HB 004485c4     CuteCar.obj
 0002:000005c8       ?digits@?$numeric_limits@M@std@@2HB 004485c8     CuteCar.obj
 0002:000005cc       ?digits10@?$numeric_limits@_K@std@@2HB 004485cc     CuteCar.obj
 0002:000005d0       ?digits@?$numeric_limits@_K@std@@2HB 004485d0     CuteCar.obj
 0002:000005d4       ?is_signed@?$numeric_limits@_K@std@@2_NB 004485d4     CuteCar.obj
 0002:000005d8       ?digits10@?$numeric_limits@_J@std@@2HB 004485d8     CuteCar.obj
 0002:000005dc       ?digits@?$numeric_limits@_J@std@@2HB 004485dc     CuteCar.obj
 0002:000005e0       ?is_signed@?$numeric_limits@_J@std@@2_NB 004485e0     CuteCar.obj
 0002:000005e4       ?digits10@?$numeric_limits@K@std@@2HB 004485e4     CuteCar.obj
 0002:000005e8       ?digits@?$numeric_limits@K@std@@2HB 004485e8     CuteCar.obj
 0002:000005ec       ?is_signed@?$numeric_limits@K@std@@2_NB 004485ec     CuteCar.obj
 0002:000005f0       ?digits10@?$numeric_limits@J@std@@2HB 004485f0     CuteCar.obj
 0002:000005f4       ?digits@?$numeric_limits@J@std@@2HB 004485f4     CuteCar.obj
 0002:000005f8       ?is_signed@?$numeric_limits@J@std@@2_NB 004485f8     CuteCar.obj
 0002:000005fc       ?digits10@?$numeric_limits@I@std@@2HB 004485fc     CuteCar.obj
 0002:00000600       ?digits@?$numeric_limits@I@std@@2HB 00448600     CuteCar.obj
 0002:00000604       ?is_signed@?$numeric_limits@I@std@@2_NB 00448604     CuteCar.obj
 0002:00000608       ?digits10@?$numeric_limits@H@std@@2HB 00448608     CuteCar.obj
 0002:0000060c       ?digits@?$numeric_limits@H@std@@2HB 0044860c     CuteCar.obj
 0002:00000610       ?is_signed@?$numeric_limits@H@std@@2_NB 00448610     CuteCar.obj
 0002:00000614       ?digits10@?$numeric_limits@G@std@@2HB 00448614     CuteCar.obj
 0002:00000618       ?digits@?$numeric_limits@G@std@@2HB 00448618     CuteCar.obj
 0002:0000061c       ?is_signed@?$numeric_limits@G@std@@2_NB 0044861c     CuteCar.obj
 0002:00000620       ?digits10@?$numeric_limits@F@std@@2HB 00448620     CuteCar.obj
 0002:00000624       ?digits@?$numeric_limits@F@std@@2HB 00448624     CuteCar.obj
 0002:00000628       ?is_signed@?$numeric_limits@F@std@@2_NB 00448628     CuteCar.obj
 0002:0000062c       ?digits10@?$numeric_limits@E@std@@2HB 0044862c     CuteCar.obj
 0002:00000630       ?digits@?$numeric_limits@E@std@@2HB 00448630     CuteCar.obj
 0002:00000634       ?is_signed@?$numeric_limits@E@std@@2_NB 00448634     CuteCar.obj
 0002:00000638       ?digits10@?$numeric_limits@C@std@@2HB 00448638     CuteCar.obj
 0002:0000063c       ?digits@?$numeric_limits@C@std@@2HB 0044863c     CuteCar.obj
 0002:00000640       ?is_signed@?$numeric_limits@C@std@@2_NB 00448640     CuteCar.obj
 0002:00000644       ?digits10@?$numeric_limits@_N@std@@2HB 00448644     CuteCar.obj
 0002:00000648       ?digits@?$numeric_limits@_N@std@@2HB 00448648     CuteCar.obj
 0002:0000064c       ?is_signed@?$numeric_limits@_N@std@@2_NB 0044864c     CuteCar.obj
 0002:0000064d       ?is_modulo@?$numeric_limits@_N@std@@2_NB 0044864d     CuteCar.obj
 0002:00000650       ?digits10@?$numeric_limits@D@std@@2HB 00448650     CuteCar.obj
 0002:00000654       ?digits@?$numeric_limits@D@std@@2HB 00448654     CuteCar.obj
 0002:00000658       ?is_signed@?$numeric_limits@D@std@@2_NB 00448658     CuteCar.obj
 0002:0000065c       ?radix@_Num_float_base@std@@2HB 0044865c     CuteCar.obj
 0002:00000660       ?round_style@_Num_float_base@std@@2W4float_round_style@2@B 00448660     CuteCar.obj
 0002:00000664       ?traps@_Num_float_base@std@@2_NB 00448664     CuteCar.obj
 0002:00000665       ?tinyness_before@_Num_float_base@std@@2_NB 00448665     CuteCar.obj
 0002:00000666       ?is_specialized@_Num_float_base@std@@2_NB 00448666     CuteCar.obj
 0002:00000667       ?is_signed@_Num_float_base@std@@2_NB 00448667     CuteCar.obj
 0002:00000668       ?is_modulo@_Num_float_base@std@@2_NB 00448668     CuteCar.obj
 0002:00000669       ?is_integer@_Num_float_base@std@@2_NB 00448669     CuteCar.obj
 0002:0000066a       ?is_iec559@_Num_float_base@std@@2_NB 0044866a     CuteCar.obj
 0002:0000066b       ?is_exact@_Num_float_base@std@@2_NB 0044866b     CuteCar.obj
 0002:0000066c       ?is_bounded@_Num_float_base@std@@2_NB 0044866c     CuteCar.obj
 0002:0000066d       ?has_signaling_NaN@_Num_float_base@std@@2_NB 0044866d     CuteCar.obj
 0002:0000066e       ?has_quiet_NaN@_Num_float_base@std@@2_NB 0044866e     CuteCar.obj
 0002:0000066f       ?has_infinity@_Num_float_base@std@@2_NB 0044866f     CuteCar.obj
 0002:00000670       ?has_denorm_loss@_Num_float_base@std@@2_NB 00448670     CuteCar.obj
 0002:00000674       ?has_denorm@_Num_float_base@std@@2W4float_denorm_style@2@B 00448674     CuteCar.obj
 0002:00000678       ?radix@_Num_int_base@std@@2HB 00448678     CuteCar.obj
 0002:0000067c       ?is_specialized@_Num_int_base@std@@2_NB 0044867c     CuteCar.obj
 0002:0000067d       ?is_modulo@_Num_int_base@std@@2_NB 0044867d     CuteCar.obj
 0002:0000067e       ?is_integer@_Num_int_base@std@@2_NB 0044867e     CuteCar.obj
 0002:0000067f       ?is_exact@_Num_int_base@std@@2_NB 0044867f     CuteCar.obj
 0002:00000680       ?is_bounded@_Num_int_base@std@@2_NB 00448680     CuteCar.obj
 0002:00000684       ?radix@_Num_base@std@@2HB  00448684     CuteCar.obj
 0002:00000688       ?min_exponent10@_Num_base@std@@2HB 00448688     CuteCar.obj
 0002:0000068c       ?min_exponent@_Num_base@std@@2HB 0044868c     CuteCar.obj
 0002:00000690       ?max_exponent10@_Num_base@std@@2HB 00448690     CuteCar.obj
 0002:00000694       ?max_exponent@_Num_base@std@@2HB 00448694     CuteCar.obj
 0002:00000698       ?digits10@_Num_base@std@@2HB 00448698     CuteCar.obj
 0002:0000069c       ?digits@_Num_base@std@@2HB 0044869c     CuteCar.obj
 0002:000006a0       ?round_style@_Num_base@std@@2W4float_round_style@2@B 004486a0     CuteCar.obj
 0002:000006a4       ?traps@_Num_base@std@@2_NB 004486a4     CuteCar.obj
 0002:000006a5       ?tinyness_before@_Num_base@std@@2_NB 004486a5     CuteCar.obj
 0002:000006a6       ?is_specialized@_Num_base@std@@2_NB 004486a6     CuteCar.obj
 0002:000006a7       ?is_signed@_Num_base@std@@2_NB 004486a7     CuteCar.obj
 0002:000006a8       ?is_modulo@_Num_base@std@@2_NB 004486a8     CuteCar.obj
 0002:000006a9       ?is_integer@_Num_base@std@@2_NB 004486a9     CuteCar.obj
 0002:000006aa       ?is_iec559@_Num_base@std@@2_NB 004486aa     CuteCar.obj
 0002:000006ab       ?is_exact@_Num_base@std@@2_NB 004486ab     CuteCar.obj
 0002:000006ac       ?is_bounded@_Num_base@std@@2_NB 004486ac     CuteCar.obj
 0002:000006ad       ?has_signaling_NaN@_Num_base@std@@2_NB 004486ad     CuteCar.obj
 0002:000006ae       ?has_quiet_NaN@_Num_base@std@@2_NB 004486ae     CuteCar.obj
 0002:000006af       ?has_infinity@_Num_base@std@@2_NB 004486af     CuteCar.obj
 0002:000006b0       ?has_denorm_loss@_Num_base@std@@2_NB 004486b0     CuteCar.obj
 0002:000006b4       ?has_denorm@_Num_base@std@@2W4float_denorm_style@2@B 004486b4     CuteCar.obj
 0002:000006b8       ?end@?$_Iosb@H@std@@2W4_Seekdir@12@B 004486b8     CuteCar.obj
 0002:000006bc       ?cur@?$_Iosb@H@std@@2W4_Seekdir@12@B 004486bc     CuteCar.obj
 0002:000006c0       ?beg@?$_Iosb@H@std@@2W4_Seekdir@12@B 004486c0     CuteCar.obj
 0002:000006c4       ?binary@?$_Iosb@H@std@@2W4_Openmode@12@B 004486c4     CuteCar.obj
 0002:000006c8       ?_Noreplace@?$_Iosb@H@std@@2W4_Openmode@12@B 004486c8     CuteCar.obj
 0002:000006cc       ?_Nocreate@?$_Iosb@H@std@@2W4_Openmode@12@B 004486cc     CuteCar.obj
 0002:000006d0       ?trunc@?$_Iosb@H@std@@2W4_Openmode@12@B 004486d0     CuteCar.obj
 0002:000006d4       ?app@?$_Iosb@H@std@@2W4_Openmode@12@B 004486d4     CuteCar.obj
 0002:000006d8       ?ate@?$_Iosb@H@std@@2W4_Openmode@12@B 004486d8     CuteCar.obj
 0002:000006dc       ?out@?$_Iosb@H@std@@2W4_Openmode@12@B 004486dc     CuteCar.obj
 0002:000006e0       ?in@?$_Iosb@H@std@@2W4_Openmode@12@B 004486e0     CuteCar.obj
 0002:000006e4       ?_Hardfail@?$_Iosb@H@std@@2W4_Iostate@12@B 004486e4     CuteCar.obj
 0002:000006e8       ?badbit@?$_Iosb@H@std@@2W4_Iostate@12@B 004486e8     CuteCar.obj
 0002:000006ec       ?failbit@?$_Iosb@H@std@@2W4_Iostate@12@B 004486ec     CuteCar.obj
 0002:000006f0       ?eofbit@?$_Iosb@H@std@@2W4_Iostate@12@B 004486f0     CuteCar.obj
 0002:000006f4       ?goodbit@?$_Iosb@H@std@@2W4_Iostate@12@B 004486f4     CuteCar.obj
 0002:000006f8       ?floatfield@?$_Iosb@H@std@@2W4_Fmtflags@12@B 004486f8     CuteCar.obj
 0002:000006fc       ?basefield@?$_Iosb@H@std@@2W4_Fmtflags@12@B 004486fc     CuteCar.obj
 0002:00000700       ?adjustfield@?$_Iosb@H@std@@2W4_Fmtflags@12@B 00448700     CuteCar.obj
 0002:00000704       ?_Stdio@?$_Iosb@H@std@@2W4_Fmtflags@12@B 00448704     CuteCar.obj
 0002:00000708       ?boolalpha@?$_Iosb@H@std@@2W4_Fmtflags@12@B 00448708     CuteCar.obj
 0002:0000070c       ?fixed@?$_Iosb@H@std@@2W4_Fmtflags@12@B 0044870c     CuteCar.obj
 0002:00000710       ?scientific@?$_Iosb@H@std@@2W4_Fmtflags@12@B 00448710     CuteCar.obj
 0002:00000714       ?hex@?$_Iosb@H@std@@2W4_Fmtflags@12@B 00448714     CuteCar.obj
 0002:00000718       ?oct@?$_Iosb@H@std@@2W4_Fmtflags@12@B 00448718     CuteCar.obj
 0002:0000071c       ?dec@?$_Iosb@H@std@@2W4_Fmtflags@12@B 0044871c     CuteCar.obj
 0002:00000720       ?internal@?$_Iosb@H@std@@2W4_Fmtflags@12@B 00448720     CuteCar.obj
 0002:00000724       ?right@?$_Iosb@H@std@@2W4_Fmtflags@12@B 00448724     CuteCar.obj
 0002:00000728       ?left@?$_Iosb@H@std@@2W4_Fmtflags@12@B 00448728     CuteCar.obj
 0002:0000072c       ?showpos@?$_Iosb@H@std@@2W4_Fmtflags@12@B 0044872c     CuteCar.obj
 0002:00000730       ?showpoint@?$_Iosb@H@std@@2W4_Fmtflags@12@B 00448730     CuteCar.obj
 0002:00000734       ?showbase@?$_Iosb@H@std@@2W4_Fmtflags@12@B 00448734     CuteCar.obj
 0002:00000738       ?uppercase@?$_Iosb@H@std@@2W4_Fmtflags@12@B 00448738     CuteCar.obj
 0002:0000073c       ?unitbuf@?$_Iosb@H@std@@2W4_Fmtflags@12@B 0044873c     CuteCar.obj
 0002:00000740       ?skipws@?$_Iosb@H@std@@2W4_Fmtflags@12@B 00448740     CuteCar.obj
 0002:00000744       ?none@?$_Locbase@H@std@@2HB 00448744     CuteCar.obj
 0002:00000748       ?all@?$_Locbase@H@std@@2HB 00448748     CuteCar.obj
 0002:0000074c       ?messages@?$_Locbase@H@std@@2HB 0044874c     CuteCar.obj
 0002:00000750       ?time@?$_Locbase@H@std@@2HB 00448750     CuteCar.obj
 0002:00000754       ?numeric@?$_Locbase@H@std@@2HB 00448754     CuteCar.obj
 0002:00000758       ?monetary@?$_Locbase@H@std@@2HB 00448758     CuteCar.obj
 0002:0000075c       ?ctype@?$_Locbase@H@std@@2HB 0044875c     CuteCar.obj
 0002:00000760       ?collate@?$_Locbase@H@std@@2HB 00448760     CuteCar.obj
 0002:00000764       ??_7CuteCarApplication@@6B@ 00448764     CuteCar.obj
 0002:00000798       ??_7ExampleApplication@@6B@ 00448798     CuteCar.obj
 0002:000007cc       ??_C@_0M@HKNDGOBH@plugins?4cfg?$AA@ 004487cc     CuteCar.obj
 0002:000007d8       ??_C@_08FCEINABH@ogre?4cfg?$AA@ 004487d8     CuteCar.obj
 0002:000007e4       ??_C@_08IHALHJGN@Ogre?4log?$AA@ 004487e4     CuteCar.obj
 0002:000007f0       ??_C@_0BD@KOAKHGFB@OGRE?5Render?5Window?$AA@ 004487f0     CuteCar.obj
 0002:00000804       ??_C@_0BC@PODCMBAO@ExampleSMInstance?$AA@ 00448804     CuteCar.obj
 0002:00000818       ??_C@_09LBELDIME@PlayerCam?$AA@ 00448818     CuteCar.obj
 0002:00000824       ??_SEventProcessor@Ogre@@6BKeyTarget@1@@ 00448824     CuteCar.obj
 0002:0000082c       ??_SEventProcessor@Ogre@@6BMouseMotionTarget@1@@ 0044882c     CuteCar.obj
 0002:00000844       ??_SEventProcessor@Ogre@@6BMouseTarget@1@@ 00448844     CuteCar.obj
 0002:0000085c       ??_SEventProcessor@Ogre@@6BFrameListener@1@@ 0044885c     CuteCar.obj
 0002:00000868       ??_C@_0BC@EACOAGDP@Core?1DebugOverlay?$AA@ 00448868     CuteCar.obj
 0002:0000087c       ??_7ExampleFrameListener@@6BKeyListener@Ogre@@@ 0044887c     CuteCar.obj
 0002:00000894       ??_7ExampleFrameListener@@6BFrameListener@Ogre@@@ 00448894     CuteCar.obj
 0002:000008a4       ??_C@_03KBLECMGM@O?3?5?$AA@ 004488a4     CuteCar.obj
 0002:000008a8       ??_C@_01CLKCMJKC@?5?$AA@   004488a8     CuteCar.obj
 0002:000008ac       ??_C@_03KJMOGLKF@P?3?5?$AA@ 004488ac     CuteCar.obj
 0002:000008b0       ??_C@_00CNPNBAHC@?$AA@     004488b0     CuteCar.obj
 0002:000008b4       ??_C@_06OGKMKBEM@Wrote?5?$AA@ 004488b4     CuteCar.obj
 0002:000008bc       ??_C@_0BC@IFNMFGFJ@screenshot_?$CFd?4png?$AA@ 004488bc     CuteCar.obj
 0002:000008d0       __real@3fc0a3d70a3d70a4    004488d0     CuteCar.obj
 0002:000008d8       ??_C@_0P@DOMOJALM@Core?1DebugText?$AA@ 004488d8     CuteCar.obj
 0002:000008e8       ??_C@_0N@BPFODGEE@Core?1NumTris?$AA@ 004488e8     CuteCar.obj
 0002:000008f8       ??_C@_03DKJEPNJL@?5ms?$AA@ 004488f8     CuteCar.obj
 0002:000008fc       ??_C@_0O@GGMMAFHL@Core?1WorstFps?$AA@ 004488fc     CuteCar.obj
 0002:0000090c       ??_C@_0N@LLIMAECD@Core?1BestFps?$AA@ 0044890c     CuteCar.obj
 0002:0000091c       ??_C@_0N@FEOELOHG@Core?1CurrFps?$AA@ 0044891c     CuteCar.obj
 0002:0000092c       ??_C@_0BA@ODFCIOAM@Core?1AverageFps?$AA@ 0044892c     CuteCar.obj
 0002:0000093c       ??_C@_0BB@MKFNLKNP@Triangle?5Count?3?5?$AA@ 0044893c     CuteCar.obj
 0002:00000950       ??_C@_0M@FHACCGLM@Worst?5FPS?3?5?$AA@ 00448950     CuteCar.obj
 0002:0000095c       ??_C@_0L@IHMJLKPN@Best?5FPS?3?5?$AA@ 0044895c     CuteCar.obj
 0002:00000968       ??_C@_0O@CLBPBFLO@Average?5FPS?3?5?$AA@ 00448968     CuteCar.obj
 0002:00000978       ??_C@_0O@BKGCJODK@Current?5FPS?3?5?$AA@ 00448978     CuteCar.obj
 0002:00000988       ??_C@_0O@FDIMDEOH@resources?4cfg?$AA@ 00448988     CuteCar.obj
 0002:00000998       ??_C@_03OAKHEHJB@?7?3?$DN?$AA@ 00448998     CuteCar.obj
 0002:0000099c       ??_C@_05BJNOIGHO@MyCam?$AA@ 0044899c     CuteCar.obj
 0002:000009a4       ??_C@_0M@PPLMFBO@CuteCar?4log?$AA@ 004489a4     CuteCar.obj
 0002:000009b0       ??_C@_0BF@MHCJLEHJ@?4?4?2resources?2end?4wav?$AA@ 004489b0     CuteCar.obj
 0002:000009c8       ??_C@_0BH@CLONDPHK@?4?4?2resources?2begin?4wav?$AA@ 004489c8     CuteCar.obj
 0002:000009e0       ??_C@_0BJ@PGBJHJAL@?4?4?2resources?2GetItem?4wav?$AA@ 004489e0     CuteCar.obj
 0002:000009fc       ??_C@_0BJ@JIBFOODG@?4?4?2resources?2UseItem?4wav?$AA@ 004489fc     CuteCar.obj
 0002:00000a18       __real@3fe0000000000000    00448a18     CuteCar.obj
 0002:00000a20       ??_C@_0BL@JFDGCHJM@?4?4?2resources?2CarTravel?4wav?$AA@ 00448a20     CuteCar.obj
 0002:00000a3c       ??_C@_04OKHOINCN@tony?$AA@ 00448a3c     CuteCar.obj
 0002:00000a44       ??_C@_09BDNLENBC@Tahoma?912?$AA@ 00448a44     CuteCar.obj
 0002:00000a50       ??_C@_09LHLAOIPI@GUIConfig?$AA@ 00448a50     CuteCar.obj
 0002:00000a5c       ??_C@_0L@ENPIFHPA@MouseArrow?$AA@ 00448a5c     CuteCar.obj
 0002:00000a68       ??_C@_0BF@EAACADIJ@GUIConfigSkin?4scheme?$AA@ 00448a68     CuteCar.obj
 0002:00000a80       ??_SSystem@CEGUI@@6B@      00448a80     CuteCar.obj
 0002:00000a98       ??_C@_09OBCJJDIB@CEGUI?4log?$AA@ 00448a98     CuteCar.obj
 0002:00000aa8       ??_SOgreCEGUIRenderer@CEGUI@@6B@ 00448aa8     CuteCar.obj
 0002:00000b08       ??_7CuteCarFrameListener@@6BMouseListener@Ogre@@@ 00448b08     CuteCar.obj
 0002:00000b2c       ??_7CuteCarFrameListener@@6BMouseMotionListener@Ogre@@@ 00448b2c     CuteCar.obj
 0002:00000b3c       ??_7CuteCarFrameListener@@6BKeyListener@Ogre@@@ 00448b3c     CuteCar.obj
 0002:00000b54       ??_7CuteCarFrameListener@@6BFrameListener@Ogre@@@ 00448b54     CuteCar.obj
 0002:00000b64       ??_C@_0N@BDBECGDO@login?4layout?$AA@ 00448b64     CuteCar.obj
 0002:00000b74       ??_C@_05DHEMANOL@Login?$AA@ 00448b74     CuteCar.obj
 0002:00000b7c       ??_C@_04GMBKPCGK@Quit?$AA@ 00448b7c     CuteCar.obj
 0002:00000b84       ??_C@_05MPPALGBK@Place?$AA@ 00448b84     CuteCar.obj
 0002:00000b8c       ??_C@_04DDFEFHOJ@Help?$AA@ 00448b8c     CuteCar.obj
 0002:00000b94       ??_C@_09OJGDKKCB@DeathMode?$AA@ 00448b94     CuteCar.obj
 0002:00000ba0       ??_C@_09PIGHGOHF@SpeedMode?$AA@ 00448ba0     CuteCar.obj
 0002:00000bac       ??_C@_07CAKNAKJH@UsrName?$AA@ 00448bac     CuteCar.obj
 0002:00000bb4       ??_C@_08PAEGHBBF@CheckEsc?$AA@ 00448bb4     CuteCar.obj
 0002:00000bc0       ??_C@_01KMDKNFGN@?1?$AA@   00448bc0     CuteCar.obj
 0002:00000bc4       ??_C@_04OKOFBOPB@Time?$AA@ 00448bc4     CuteCar.obj
 0002:00000bcc       ??_C@_04KLCPKPBE@Loop?$AA@ 00448bcc     CuteCar.obj
 0002:00000bd4       ??_C@_05HOIAGEJD@Speed?$AA@ 00448bd4     CuteCar.obj
 0002:00000bdc       ??_C@_03PCONDBEP@Tip?$AA@  00448bdc     CuteCar.obj
 0002:00000be0       ??_C@_01HIHLOKLC@1?$AA@    00448be0     CuteCar.obj
 0002:00000be4       ??_C@_05BLGBJKKH@Meter?$AA@ 00448be4     CuteCar.obj
 0002:00000bec       ??_C@_04BNMICOAK@Tool?$AA@ 00448bec     CuteCar.obj
 0002:00000bf4       ??_C@_07FMOFDADP@infolap?$AA@ 00448bf4     CuteCar.obj
 0002:00000bfc       ??_C@_07KGDEJDDE@infooil?$AA@ 00448bfc     CuteCar.obj
 0002:00000c04       ??_C@_04PJDNGLKJ@self?$AA@ 00448c04     CuteCar.obj
 0002:00000c0c       ??_C@_04BJPIHCBA@Info?$AA@ 00448c0c     CuteCar.obj
 0002:00000c14       ??_C@_08DIGDHHDM@elements?$AA@ 00448c14     CuteCar.obj
 0002:00000c20       ??_C@_05BMMNJPJB@meter?$AA@ 00448c20     CuteCar.obj
 0002:00000c28       ??_C@_0BB@NAEIGKMO@GUIConfig?4layout?$AA@ 00448c28     CuteCar.obj
 0002:00000c3c       ??_C@_0M@FNCDMHJP@help?4layout?$AA@ 00448c3c     CuteCar.obj
 0002:00000c48       ??_C@_08GPBPALIL@DeadTime?$AA@ 00448c48     CuteCar.obj
 0002:00000c54       ??_C@_04NANCPOOO@Dead?$AA@ 00448c54     CuteCar.obj
 0002:00000c5c       ??_C@_08GIEMPMAG@RaceTime?$AA@ 00448c5c     CuteCar.obj
 0002:00000c68       ??_C@_04KKIPOOLE@Race?$AA@ 00448c68     CuteCar.obj
 0002:00000c70       ??_C@_0BD@CIJMAPFP@?4?4?2resources?2grade?$AA@ 00448c70     CuteCar.obj
 0002:00000c84       ??_C@_02JDPG@rb?$AA@       00448c84     CuteCar.obj
 0002:00000c88       ??_C@_0N@DHPFCPLI@place?4layout?$AA@ 00448c88     CuteCar.obj
 0002:00000c98       ??_C@_0P@INIBCIN@?$CFd?$CFd?3?$CFd?$CFd?3?$CFd?$CFd?$AA@ 00448c98     CuteCar.obj
 0002:00000ca8       ??_C@_08BLBMJMBD@?$CF3d?5km?1h?$AA@ 00448ca8     CuteCar.obj
 0002:00000cb4       ??_C@_0CC@MKPDGPGB@The?5speed?5effect?5has?5disappeared@ 00448cb4     CuteCar.obj
 0002:00000cd8       ??_C@_0CB@CJCFHLJD@The?5slip?5effect?5has?5disappeared?4@ 00448cd8     CuteCar.obj
 0002:00000d00       __real@4004000000000000    00448d00     CuteCar.obj
 0002:00000d08       ??_C@_04MLLLIHIP@null?$AA@ 00448d08     CuteCar.obj
 0002:00000d10       ??_C@_03FJGAPNJI@acc?$AA@  00448d10     CuteCar.obj
 0002:00000d14       ??_C@_04PFAPHHFJ@oilm?$AA@ 00448d14     CuteCar.obj
 0002:00000d1c       ??_C@_04CBEOEIIG@oils?$AA@ 00448d1c     CuteCar.obj
 0002:00000d24       ??_C@_04OMBEEGBI@oill?$AA@ 00448d24     CuteCar.obj
 0002:00000d2c       ??_C@_0CL@KHJDHPDO@Come?5into?5a?5ill?5item?0?5oil?5decrea@ 00448d2c     CuteCar.obj
 0002:00000d58       ??_C@_0DE@PGJANIDP@Come?5into?5a?5block?5item?0?5car?5spee@ 00448d58     CuteCar.obj
 0002:00000d8c       ??_C@_0BH@DADCCBBJ@Picked?5a?5speedup?5item?4?$AA@ 00448d8c     CuteCar.obj
 0002:00000da4       ??_C@_0BJ@NMPMOFFF@Picked?5a?5small?5fix?5item?4?$AA@ 00448da4     CuteCar.obj
 0002:00000dc0       ??_C@_0BK@EMDNKPEI@Picked?5a?5middle?5fix?5item?4?$AA@ 00448dc0     CuteCar.obj
 0002:00000ddc       ??_C@_0BH@CONNABOO@Picked?5a?5big?5fix?5item?4?$AA@ 00448ddc     CuteCar.obj
 0002:00000df4       ??_C@_0DA@IPJADIKL@Come?5into?5a?5slip?5item?0?5car?5to?5sl@ 00448df4     CuteCar.obj
 0002:00000e24       ??_C@_0CN@IBCBGPCN@Used?5a?5speed?5item?0?5car?5speed?5up?5@ 00448e24     CuteCar.obj
 0002:00000e54       ??_C@_0CK@LLAJCDEB@Used?5a?5big?5fix?5item?0?5oil?5increas@ 00448e54     CuteCar.obj
 0002:00000e80       ??_C@_0CK@KJLMIMKP@Used?5a?5big?5fix?5item?0?5oil?5increas@ 00448e80     CuteCar.obj
 0002:00000eac       ??_C@_0CL@JDJPAKND@Used?5a?5big?5fix?5item?0?5oil?5increas@ 00448eac     CuteCar.obj
 0002:00000ed8       __real@4078800000000000    00448ed8     CuteCar.obj
 0002:00000ee0       __real@bf800000            00448ee0     CuteCar.obj
 0002:00000ee4       ??_C@_05LLMLLFP@Grade?$AA@ 00448ee4     CuteCar.obj
 0002:00000eec       ??_C@_0M@MMEMIPJG@over?4layout?$AA@ 00448eec     CuteCar.obj
 0002:00000ef8       ??_C@_03JKGCGCNJ@God?$AA@  00448ef8     CuteCar.obj
 0002:00000efc       ??_C@_02GMLFBBN@wb?$AA@    00448efc     CuteCar.obj
 0002:00000f00       ??_C@_06HCFIKKEA@Return?$AA@ 00448f00     CuteCar.obj
 0002:00000f08       ??_C@_09MMGIDAMP@ShowGrade?$AA@ 00448f08     CuteCar.obj
 0002:00000f14       ??_C@_02DPKJAMEF@?$CFd?$AA@ 00448f14     CuteCar.obj
 0002:00000f18       ??_C@_02JINPPBEP@No?$AA@   00448f18     CuteCar.obj
 0002:00000f1c       ??_C@_03CCLAEDDF@Yes?$AA@  00448f1c     CuteCar.obj
 0002:00000f20       ?npos@?$basic_string@DU?$char_traits@D@std@@V?$allocator@D@2@@std@@2IB 00448f20     CuteCar.obj
 0002:00000f24       ??_7?$_memberBinder@VCuteCarFrameListener@@_NABVEventArgs@CEGUI@@@CEGUI@@6B@ 00448f24     CuteCar.obj
 0002:00000f2c       ??_7?$SubscriberInterface@_NABVEventArgs@CEGUI@@@CEGUI@@6B@ 00448f2c     CuteCar.obj
 0002:00001044       ??_7NxAllVehicle@@6B@      00449044     NxAllVehicle.obj
 0002:00001048       __real@40800000            00449048     NxAllVehicle.obj
 0002:00001050       __real@bfe6666666666666    00449050     NxAllVehicle.obj
 0002:00001058       __real@bfe0000000000000    00449058     NxAllVehicle.obj
 0002:00001060       __real@3f4a3d71            00449060     NxAllVehicle.obj
 0002:00001064       __real@3e800000            00449064     NxAllVehicle.obj
 0002:00001068       __real@3f4ccccd            00449068     NxAllVehicle.obj
 0002:00001070       __real@bfe999999999999a    00449070     NxAllVehicle.obj
 0002:00001078       __real@3fb999999999999a    00449078     NxAllVehicle.obj
 0002:00001080       __real@3f666666            00449080     NxAllVehicle.obj
 0002:00001084       __real@3e4ccccd            00449084     NxAllVehicle.obj
 0002:00001088       __real@3f333333            00449088     NxAllVehicle.obj
 0002:0000108c       __real@3dcccccd            0044908c     NxAllVehicle.obj
 0002:00001090       __real@40000000            00449090     NxAllVehicle.obj
 0002:00001094       __real@3f000000            00449094     NxAllVehicle.obj
 0002:00001098       __real@3f800000            00449098     NxAllVehicle.obj
 0002:0000109c       __real@3c8efa35            0044909c     NxAllVehicle.obj
 0002:000010a0       ??_7NxBoxShapeDesc@@6B@    004490a0     NxAllVehicle.obj
 0002:000010ac       ??_7NxShapeDesc@@6B@       004490ac     NxAllVehicle.obj
 0002:000010b8       ??_7NxConvexShapeDesc@@6B@ 004490b8     NxAllVehicle.obj
 0002:000010c4       ??_C@_0BM@PAPJHAGI@invalid?5map?1set?$DMT?$DO?5iterator?$AA@ 004490c4     NxAllVehicle.obj
 0002:000010e0       ??_C@_0BE@JONHPENG@map?1set?$DMT?$DO?5too?5long?$AA@ 004490e0     NxAllVehicle.obj
 0002:000010f8       ??_C@_0FN@MHNPNPA@C?3?2Program?5Files?2AGEIA?5Technolog@ 004490f8     NxAllVehicle.obj
 0002:00001158       ??_C@_08PAIMBGIE@ElemType?$AA@ 00449158     NxAllVehicle.obj
 0002:00001284       ??_7NxTerrain@@6B@         00449284     NxTerrain.obj
 0002:00001288       ??_7NxTriangleMeshShapeDesc@@6B@ 00449288     NxTerrain.obj
 0002:00001294       __real@3ccccccd            00449294     NxTerrain.obj
 0002:00001298       __real@3c23d70a            00449298     NxTerrain.obj
 0002:000012f8       ??_7NxTerrainItem@@6B@     004492f8     NxTerrainItem.obj
 0002:00001300       ??_C@_0FN@LMCCFOPP@c?3?2program?5files?2ageia?5technolog@ 00449300     NxTerrainItem.obj
 0002:00001360       ??_7ItemTrigger@NxTerrainItem@@6B@ 00449360     NxTerrainItem.obj
 0002:00001364       ??_7NxUserTriggerReport@@6B@ 00449364     NxTerrainItem.obj
 0002:000013e0       ??_C@_0FB@JOKHHDEP@NxVehilceGearDesc?3?3isValid?$CI?$CJ?3?5fo@ 004493e0     NxVehicle.obj
 0002:00001438       ??_C@_0FL@MPHAMJGC@NxVehilceGearDesc?3?3isValid?$CI?$CJ?3?5ba@ 00449438     NxVehicle.obj
 0002:00001498       ??_C@_0EF@MACDDONF@NxVehicleGearDesc?3?3isValid?$CI?$CJ?3?5nb@ 00449498     NxVehicle.obj
 0002:000014e0       ??_C@_0EK@DDFNBEOK@NxVehicleGearDesc?3?3isValid?$CI?$CJ?3?5nb@ 004494e0     NxVehicle.obj
 0002:00001530       ??_C@_0GA@LPJFLBOA@NxVehicleMotorDesc?3?3isValid?$CI?$CJ?3?5m@ 00449530     NxVehicle.obj
 0002:00001590       ??_C@_0DC@LENHBHAF@NxVehicleMotorDesc?3?3isValid?$CI?$CJ?3?5E@ 00449590     NxVehicle.obj
 0002:000015c4       __real@41f00000            004495c4     NxVehicle.obj
 0002:000015c8       __real@42652ee1            004495c8     NxVehicle.obj
 0002:000015cc       __real@40a00000            004495cc     NxVehicle.obj
 0002:000015d0       __real@38d1b717            004495d0     NxVehicle.obj
 0002:000015d8       __real@3fceb851eb851eb8    004495d8     NxVehicle.obj
 0002:000015e0       __real@40400000            004495e0     NxVehicle.obj
 0002:000015e4       __real@41200000            004495e4     NxVehicle.obj
 0002:000015e8       __real@42c80000            004495e8     NxVehicle.obj
 0002:000015ec       __real@47000000            004495ec     NxVehicle.obj
 0002:000015f0       ??_7NxTireFunctionDesc@@6B@ 004495f0     NxVehicle.obj
 0002:00001614       ??_7NxWheel@@6B@           00449614     NxWheel.obj
 0002:00001638       ??_7NxWheelShapeDesc@@6B@  00449638     NxWheel.obj
 0002:00001648       __real@42700000            00449648     NxWheel.obj
 0002:00001860       ??_7OgreAllVehicle@@6B@    00449860     OgreAllVehicle.obj
 0002:00001864       ??_7OgreVehicle@@6B@       00449864     OgreAllVehicle.obj
 0002:00001868       ??_7OgreWheel@@6B@         00449868     OgreAllVehicle.obj
 0002:0000186c       ??_7OgreTerrainItem@@6B@   0044986c     OgreAllVehicle.obj
 0002:00001870       ??_C@_0BD@OLBABOEK@vector?$DMT?$DO?5too?5long?$AA@ 00449870     OgreAllVehicle.obj
 0002:00001948       ??_7OgreTerrain@@6B@       00449948     OgreTerrain.obj
 0002:00001980       ??_7type_info@@6B@         00449980     LIBCMTD:typinfo.obj
 0002:00001994       ??_C@_0P@NFGNABCI@string?5?$CB?$DN?5NULL?$AA@ 00449994     LIBCMTD:sprintf.obj
 0002:000019a4       ??_C@_09FNBBCGGI@sprintf?4c?$AA@ 004499a4     LIBCMTD:sprintf.obj
 0002:000019b0       ??_C@_0P@NHGFNCDP@format?5?$CB?$DN?5NULL?$AA@ 004499b0     LIBCMTD:sprintf.obj
 0002:000019cc       ??_C@_08GNMOIKDK@onexit?4c?$AA@ 004499cc     LIBCMTD:onexit.obj
 0002:000019d8       ??_C@_08BDNGOBJJ@fclose?4c?$AA@ 004499d8     LIBCMTD:fclose.obj
 0002:000019e4       ??_C@_0P@FELNCIKG@stream?5?$CB?$DN?5NULL?$AA@ 004499e4     LIBCMTD:fclose.obj
 0002:00001a04       ??_C@_0M@CMNAFCJK@str?5?$CB?$DN?5NULL?$AA@ 00449a04     LIBCMTD:fclose.obj
 0002:00001a1c       ??_C@_0BC@LDFCGPMK@?$CKmode?5?$CB?$DN?5_T?$CI?8?20?8?$CJ?$AA@ 00449a1c     LIBCMTD:fopen.obj
 0002:00001a30       ??_C@_0N@HDDIJGHA@mode?5?$CB?$DN?5NULL?$AA@ 00449a30     LIBCMTD:fopen.obj
 0002:00001a40       ??_C@_0BC@JKMANOLD@?$CKfile?5?$CB?$DN?5_T?$CI?8?20?8?$CJ?$AA@ 00449a40     LIBCMTD:fopen.obj
 0002:00001a54       ??_C@_07MKNJDOE@fopen?4c?$AA@ 00449a54     LIBCMTD:fopen.obj
 0002:00001a5c       ??_C@_0N@MBAPGNHG@file?5?$CB?$DN?5NULL?$AA@ 00449a5c     LIBCMTD:fopen.obj
 0002:00001ac0       __real@0000000000000000    00449ac0     LIBCMTD:ieeemisc.obj
 0002:00001ac8       __real@3ff0000000000000    00449ac8     LIBCMTD:ieeemisc.obj
 0002:00001ad0       ??_C@_06PJIGMIJB@Client?$AA@ 00449ad0     LIBCMTD:dbgheap.obj
 0002:00001ad8       ??_C@_06KMEJCCGM@Ignore?$AA@ 00449ad8     LIBCMTD:dbgheap.obj
 0002:00001ae0       ??_C@_03OGPFLFLO@CRT?$AA@  00449ae0     LIBCMTD:dbgheap.obj
 0002:00001ae4       ??_C@_06EFAGIKOH@Normal?$AA@ 00449ae4     LIBCMTD:dbgheap.obj
 0002:00001aec       ??_C@_04HJMOFLDF@Free?$AA@ 00449aec     LIBCMTD:dbgheap.obj
 0002:00001b04       ??_C@_0DC@JEMAGEKG@Error?3?5memory?5allocation?3?5bad?5me@ 00449b04     LIBCMTD:dbgheap.obj
 0002:00001b38       ??_C@_0CF@BICKFLAF@Invalid?5allocation?5size?3?5?$CFIu?5byt@ 00449b38     LIBCMTD:dbgheap.obj
 0002:00001b60       ??_C@_02DKCKIIND@?$CFs?$AA@ 00449b60     LIBCMTD:dbgheap.obj
 0002:00001b64       ??_C@_0CB@CCLOLAHO@Client?5hook?5allocation?5failure?4?6@ 00449b64     LIBCMTD:dbgheap.obj
 0002:00001b88       ??_C@_0DF@BBEGIFEK@Client?5hook?5allocation?5failure?5a@ 00449b88     LIBCMTD:dbgheap.obj
 0002:00001bc0       ??_C@_09DPMMACIH@dbgheap?4c?$AA@ 00449bc0     LIBCMTD:dbgheap.obj
 0002:00001bcc       ??_C@_0BC@FKEPGOPH@_CrtCheckMemory?$CI?$CJ?$AA@ 00449bcc     LIBCMTD:dbgheap.obj
 0002:00001bec       ??_C@_0BK@DJDKJKNJ@_pFirstBlock?5?$DN?$DN?5pOldBlock?$AA@ 00449bec     LIBCMTD:dbgheap.obj
 0002:00001c08       ??_C@_0BJ@PGMLBCKP@_pLastBlock?5?$DN?$DN?5pOldBlock?$AA@ 00449c08     LIBCMTD:dbgheap.obj
 0002:00001c24       ??_C@_0DC@LIEEBBFH@fRealloc?5?$HM?$HM?5?$CI?$CBfRealloc?5?$CG?$CG?5pNewBl@ 00449c24     LIBCMTD:dbgheap.obj
 0002:00001c58       ??_C@_0EF@BKJNHFDP@pOldBlock?9?$DOnLine?5?$DN?$DN?5IGNORE_LINE?5@ 00449c58     LIBCMTD:dbgheap.obj
 0002:00001ca0       ??_C@_0CC@MCCNOMLK@_CrtIsValidHeapPointer?$CIpUserData@ 00449ca0     LIBCMTD:dbgheap.obj
 0002:00001cc8       ??_C@_0EM@LGFLMAGJ@The?5Block?5at?50x?$CFp?5was?5allocated?5@ 00449cc8     LIBCMTD:dbgheap.obj
 0002:00001d14       ??_C@_0CO@KPNFNEPA@Allocation?5too?5large?5or?5negative@ 00449d14     LIBCMTD:dbgheap.obj
 0002:00001d44       ??_C@_0CE@DOFMDOL@Client?5hook?5re?9allocation?5failur@ 00449d44     LIBCMTD:dbgheap.obj
 0002:00001d68       ??_C@_0DI@KKJPDPGM@Client?5hook?5re?9allocation?5failur@ 00449d68     LIBCMTD:dbgheap.obj
 0002:00001dbc       ??_C@_0BG@JDINNDDC@_pFirstBlock?5?$DN?$DN?5pHead?$AA@ 00449dbc     LIBCMTD:dbgheap.obj
 0002:00001dd4       ??_C@_0BF@LMGMGAEG@_pLastBlock?5?$DN?$DN?5pHead?$AA@ 00449dd4     LIBCMTD:dbgheap.obj
 0002:00001dec       ??_C@_0BO@LGCGBMOH@pHead?9?$DOnBlockUse?5?$DN?$DN?5nBlockUse?$AA@ 00449dec     LIBCMTD:dbgheap.obj
 0002:00001e0c       ??_C@_0DN@GKKPDMLN@pHead?9?$DOnLine?5?$DN?$DN?5IGNORE_LINE?5?$CG?$CG?5p@ 00449e0c     LIBCMTD:dbgheap.obj
 0002:00001e4c       ??_C@_0CI@CMGHMNIC@DAMAGE?3?5after?5?$CFhs?5block?5?$CI?$CD?$CFd?$CJ?5at@ 00449e4c     LIBCMTD:dbgheap.obj
 0002:00001e74       ??_C@_0CJ@OHOOBLKI@DAMAGE?3?5before?5?$CFhs?5block?5?$CI?$CD?$CFd?$CJ?5a@ 00449e74     LIBCMTD:dbgheap.obj
 0002:00001ea0       ??_C@_0CH@IAGMNLOM@_BLOCK_TYPE_IS_VALID?$CIpHead?9?$DOnBlo@ 00449ea0     LIBCMTD:dbgheap.obj
 0002:00001ec8       ??_C@_0BL@KEIPLFAC@Client?5hook?5free?5failure?4?6?$AA@ 00449ec8     LIBCMTD:dbgheap.obj
 0002:00001ee8       ??_C@_0EJ@HEIBCIMJ@The?5Block?5at?50x?$CFp?5was?5allocated?5@ 00449ee8     LIBCMTD:dbgheap.obj
 0002:00001f54       ??_C@_0CI@JMLBEDHJ@?$CFhs?5located?5at?50x?$CFp?5is?5?$CFIu?5bytes@ 00449f54     LIBCMTD:dbgheap.obj
 0002:00001f7c       ??_C@_0CA@FGFAGAOM@?$CFhs?5allocated?5at?5file?5?$CFhs?$CI?$CFd?$CJ?4?6?$AA@ 00449f7c     LIBCMTD:dbgheap.obj
 0002:00001f9c       ??_C@_0CH@JKKAOBEK@DAMAGE?3?5on?5top?5of?5Free?5block?5at?5@ 00449f9c     LIBCMTD:dbgheap.obj
 0002:00001fc4       ??_C@_07OHKEFPKJ@DAMAGED?$AA@ 00449fc4     LIBCMTD:dbgheap.obj
 0002:00001fcc       ??_C@_0CL@HNNNMKMJ@_heapchk?5fails?5with?5unknown?5retu@ 00449fcc     LIBCMTD:dbgheap.obj
 0002:00001ff8       ??_C@_0CC@MFFCHFHO@_heapchk?5fails?5with?5_HEAPBADPTR?4@ 00449ff8     LIBCMTD:dbgheap.obj
 0002:0000201c       ??_C@_0CC@MJGLGBDG@_heapchk?5fails?5with?5_HEAPBADEND?4@ 0044a01c     LIBCMTD:dbgheap.obj
 0002:00002040       ??_C@_0CD@CPKEAPBD@_heapchk?5fails?5with?5_HEAPBADNODE@ 0044a040     LIBCMTD:dbgheap.obj
 0002:00002064       ??_C@_0CE@MKKHMBMK@_heapchk?5fails?5with?5_HEAPBADBEGI@ 0044a064     LIBCMTD:dbgheap.obj
 0002:000020c4       ??_C@_0CB@EAAIGELO@Bad?5memory?5block?5found?5at?50x?$CFp?4?6@ 0044a0c4     LIBCMTD:dbgheap.obj
 0002:000020e8       ??_C@_0CI@KDKEAJEJ@_CrtMemCheckPoint?3?5NULL?5state?5po@ 0044a0e8     LIBCMTD:dbgheap.obj
 0002:0000211c       ??_C@_0CI@ENCLCMLG@_CrtMemDifference?3?5NULL?5state?5po@ 0044a11c     LIBCMTD:dbgheap.obj
 0002:00002144       ??_C@_0BH@GFGKJDCO@Object?5dump?5complete?4?6?$AA@ 0044a144     LIBCMTD:dbgheap.obj
 0002:0000215c       ??_C@_0DA@MDLBNIBM@crt?5block?5at?50x?$CFp?0?5subtype?5?$CFx?0?5?$CF@ 0044a15c     LIBCMTD:dbgheap.obj
 0002:0000218c       ??_C@_0CH@FAGDDGPN@normal?5block?5at?50x?$CFp?0?5?$CFIu?5bytes?5@ 0044a18c     LIBCMTD:dbgheap.obj
 0002:000021b4       ??_C@_0DD@GHNAAKBB@client?5block?5at?50x?$CFp?0?5subtype?5?$CFx@ 0044a1b4     LIBCMTD:dbgheap.obj
 0002:000021e8       ??_C@_06PKLGBFGM@?$HL?$CFld?$HN?5?$AA@ 0044a1e8     LIBCMTD:dbgheap.obj
 0002:000021f0       ??_C@_0L@JMEFFCCJ@?$CFhs?$CI?$CFd?$CJ?5?3?5?$AA@ 0044a1f0     LIBCMTD:dbgheap.obj
 0002:000021fc       ??_C@_0BE@OIEFNFL@?$CDFile?5Error?$CD?$CI?$CFd?$CJ?5?3?5?$AA@ 0044a1fc     LIBCMTD:dbgheap.obj
 0002:00002210       ??_C@_0BE@KCIPKCIA@Dumping?5objects?5?9?$DO?6?$AA@ 0044a210     LIBCMTD:dbgheap.obj
 0002:00002234       ??_C@_0BA@HJBKCELP@?5Data?3?5?$DM?$CFs?$DO?5?$CFs?6?$AA@ 0044a234     LIBCMTD:dbgheap.obj
 0002:00002244       ??_C@_05MKKEDADM@?$CF?42X?5?$AA@ 0044a244     LIBCMTD:dbgheap.obj
 0002:0000224c       ??_C@_0BI@JBFPOEJA@Detected?5memory?5leaks?$CB?6?$AA@ 0044a24c     LIBCMTD:dbgheap.obj
 0002:00002264       ??_C@_0BP@DEDHGGGI@Total?5allocations?3?5?$CFId?5bytes?4?6?$AA@ 0044a264     LIBCMTD:dbgheap.obj
 0002:00002284       ??_C@_0CB@BLHDAFNE@Largest?5number?5used?3?5?$CFId?5bytes?4?6@ 0044a284     LIBCMTD:dbgheap.obj
 0002:000022a8       ??_C@_0BO@DACNIABB@?$CFId?5bytes?5in?5?$CFId?5?$CFhs?5Blocks?4?6?$AA@ 0044a2a8     LIBCMTD:dbgheap.obj
 0002:000022c8       ??_C@_0CC@GFBJAAAH@?$CI?$CCoffset?5must?5be?5within?5size?$CC?0?50@ 0044a2c8     LIBCMTD:dbgheap.obj
 0002:000022ec       ??_C@_0CF@PGBEDOC@?$CI?$CCalignment?5must?5be?5a?5power?5of?52@ 0044a2ec     LIBCMTD:dbgheap.obj
 0002:00002314       ??_C@_0DL@PGHMMKNE@Damage?5before?50x?$CFp?5which?5was?5all@ 0044a314     LIBCMTD:dbgheap.obj
 0002:00002350       ??_C@_0EI@NDNJMAJK@The?5block?5at?50x?$CFp?5was?5not?5alloca@ 0044a350     LIBCMTD:dbgheap.obj
 0002:00002398       ??_C@_0EF@PGELACII@The?5block?5at?50x?$CFp?5was?5not?5alloca@ 0044a398     LIBCMTD:dbgheap.obj
 0002:000023e4       ??_7exception@@6B@         0044a3e4     LIBCMTD:stdexcpt.obj
 0002:000023ec       ??_C@_0BC@EOODALEL@Unknown?5exception?$AA@ 0044a3ec     LIBCMTD:stdexcpt.obj
 0002:00002404       ??_7bad_cast@@6B@          0044a404     LIBCMTD:stdexcpt.obj
 0002:00002410       ??_7bad_typeid@@6B@        0044a410     LIBCMTD:stdexcpt.obj
 0002:0000241c       ??_7__non_rtti_object@@6B@ 0044a41c     LIBCMTD:stdexcpt.obj
 0002:00002424       ??_C@_02PHMGELLB@?6?6?$AA@ 0044a424     LIBCMTD:assert.obj
 0002:00002428       ??_C@_01EEMJAFIK@?6?$AA@   0044a428     LIBCMTD:assert.obj
 0002:0000242c       ??_C@_03KHICJKCI@?4?4?4?$AA@ 0044a42c     LIBCMTD:assert.obj
 0002:00002430       ??_C@_0CF@GOGNBNAK@Microsoft?5Visual?5C?$CL?$CL?5Runtime?5Lib@ 0044a430     LIBCMTD:assert.obj
 0002:00002458       ??_C@_0DN@EBBNMLME@?$CIPress?5Retry?5to?5debug?5the?5applic@ 0044a458     LIBCMTD:assert.obj
 0002:00002498       ??_C@_0HA@OJHAGA@For?5information?5on?5how?5your?5prog@ 0044a498     LIBCMTD:assert.obj
 0002:00002508       ??_C@_0N@MEECIJGN@Expression?3?5?$AA@ 0044a508     LIBCMTD:assert.obj
 0002:00002518       ??_C@_06FIEBOLOH@Line?3?5?$AA@ 0044a518     LIBCMTD:assert.obj
 0002:00002520       ??_C@_06IGPBOHMJ@File?3?5?$AA@ 0044a520     LIBCMTD:assert.obj
 0002:00002528       ??_C@_0BH@DNAGHKFM@?$DMprogram?5name?5unknown?$DO?$AA@ 0044a528     LIBCMTD:assert.obj
 0002:00002540       ??_C@_09KLGCKDOD@Program?3?5?$AA@ 0044a540     LIBCMTD:assert.obj
 0002:0000254c       ??_C@_0BC@LAIDCHCH@Assertion?5failed?$CB?$AA@ 0044a54c     LIBCMTD:assert.obj
 0002:00002560       ??_C@_09JMJGGMME@fprintf?4c?$AA@ 0044a560     LIBCMTD:fprintf.obj
 0002:0000257c       ??_C@_07PNHPCIEC@_file?4c?$AA@ 0044a57c     LIBCMTD:_file.obj
 0002:00002598       ??_C@_0KA@JEHFIFGP@A?5buffer?5overrun?5has?5been?5detect@ 0044a598     LIBCMTD:secfail.obj
 0002:00002638       ??_C@_0BJ@MDEKIEOJ@Buffer?5overrun?5detected?$CB?$AA@ 0044a638     LIBCMTD:secfail.obj
 0002:00002658       ??_C@_0LB@BPLHHLFD@A?5security?5error?5of?5unknown?5caus@ 0044a658     LIBCMTD:secfail.obj
 0002:0000270c       ??_C@_0CD@GMKACBEK@Unknown?5security?5failure?5detecte@ 0044a70c     LIBCMTD:secfail.obj
 0002:00002740       __real@4150017ec0000000    0044a740     LIBCMTD:testfdiv.obj
 0002:00002748       __real@4147ffff80000000    0044a748     LIBCMTD:testfdiv.obj
 0002:00002750       ??_C@_0BK@NHEOCAHP@IsProcessorFeaturePresent?$AA@ 0044a750     LIBCMTD:testfdiv.obj
 0002:0000276c       ??_C@_08CPNIBGIE@KERNEL32?$AA@ 0044a76c     LIBCMTD:testfdiv.obj
 0002:00002778       ??_C@_05KLBDPFGC@e?$CL000?$AA@ 0044a778     LIBCMTD:cvt.obj
 0002:000027ec       ??_C@_0L@JKCACIOJ@tidtable?4c?$AA@ 0044a7ec     LIBCMTD:tidtable.obj
 0002:000027f8       ??_C@_07PEJMOBNF@FlsFree?$AA@ 0044a7f8     LIBCMTD:tidtable.obj
 0002:00002800       ??_C@_0M@JCPCPOEF@FlsSetValue?$AA@ 0044a800     LIBCMTD:tidtable.obj
 0002:0000280c       ??_C@_0M@GDNOONDI@FlsGetValue?$AA@ 0044a80c     LIBCMTD:tidtable.obj
 0002:00002818       ??_C@_08KNHFBNJ@FlsAlloc?$AA@ 0044a818     LIBCMTD:tidtable.obj
 0002:00002824       ??_C@_0N@MDJJJHMB@kernel32?4dll?$AA@ 0044a824     LIBCMTD:tidtable.obj
 0002:0000286c       ??_C@_07CKDBCAPD@mlock?4c?$AA@ 0044a86c     LIBCMTD:mlock.obj
 0002:00002894       ??_C@_0DP@FICHPIPH@?$CI?$CCinconsistent?5IOB?5fields?$CC?0?5stre@ 0044a894     LIBCMTD:_flsbuf.obj
 0002:000028d4       ??_C@_09DHJHPHJP@_flsbuf?4c?$AA@ 0044a8d4     LIBCMTD:_flsbuf.obj
 0002:000028e0       ___lookuptable             0044a8e0     LIBCMTD:output.obj
 0002:0000293c       ??_C@_1O@CEDCILHN@?$AA?$CI?$AAn?$AAu?$AAl?$AAl?$AA?$CJ?$AA?$AA@ 0044a93c     LIBCMTD:output.obj
 0002:0000294c       ??_C@_06OJHGLDPL@?$CInull?$CJ?$AA@ 0044a94c     LIBCMTD:output.obj
 0002:00002954       ??_C@_08MEPFMIND@output?4c?$AA@ 0044a954     LIBCMTD:output.obj
 0002:00002960       ??_C@_0P@LGFCLPDP@ch?5?$CB?$DN?5_T?$CI?8?20?8?$CJ?$AA@ 0044a960     LIBCMTD:output.obj
 0002:00002970       ??_C@_0BB@NAGLCMLI@Assertion?5Failed?$AA@ 0044a970     LIBCMTD:dbgrpt.obj
 0002:00002984       ??_C@_05NAOIJFC@Error?$AA@ 0044a984     LIBCMTD:dbgrpt.obj
 0002:0000298c       ??_C@_07KGMMFLDN@Warning?$AA@ 0044a98c     LIBCMTD:dbgrpt.obj
 0002:00002994       ??_C@_08ODMAMGBE@dbgrpt?4c?$AA@ 0044a994     LIBCMTD:dbgrpt.obj
 0002:000029ac       ??_C@_0M@IPILFDFN@?$CFs?$CI?$CFd?$CJ?5?3?5?$CFs?$AA@ 0044a9ac     LIBCMTD:dbgrpt.obj
 0002:000029b8       ??_C@_01LIIJDEN@?$AN?$AA@  0044a9b8     LIBCMTD:dbgrpt.obj
 0002:000029bc       ??_C@_0BD@CAENFOHP@Assertion?5failed?3?5?$AA@ 0044a9bc     LIBCMTD:dbgrpt.obj
 0002:000029d0       ??_C@_0CL@EACFGMNB@_CrtDbgReport?3?5String?5too?5long?5o@ 0044a9d0     LIBCMTD:dbgrpt.obj
 0002:000029fc       ??_C@_0DC@HLHDIIKH@Second?5Chance?5Assertion?5Failed?3?5@ 0044a9fc     LIBCMTD:dbgrpt.obj
 0002:00002a30       ??_C@_09FOPFMPEJ@wsprintfA?$AA@ 0044aa30     LIBCMTD:dbgrpt.obj
 0002:00002a3c       ??_C@_0L@GMPLCCII@user32?4dll?$AA@ 0044aa3c     LIBCMTD:dbgrpt.obj
 0002:00002a54       ??_C@_0CD@EBCGLDDL@Microsoft?5Visual?5C?$CL?$CL?5Debug?5Libra@ 0044aa54     LIBCMTD:dbgrpt.obj
 0002:00002a78       ??_C@_0FD@IIKNDPHJ@Debug?5?$CFs?$CB?6?6Program?3?5?$CFs?$CFs?$CFs?$CFs?$CFs?$CFs@ 0044aa78     LIBCMTD:dbgrpt.obj
 0002:00002acc       ??_C@_09OFBFHMBK@?6Module?3?5?$AA@ 0044aacc     LIBCMTD:dbgrpt.obj
 0002:00002ad8       ??_C@_07OPHPPLBG@?6File?3?5?$AA@ 0044aad8     LIBCMTD:dbgrpt.obj
 0002:00002ae0       ??_C@_07DBMPPHDI@?6Line?3?5?$AA@ 0044aae0     LIBCMTD:dbgrpt.obj
 0002:00002ae8       ??_C@_0HD@GNBNFCCL@?6?6For?5information?5on?5how?5your?5pr@ 0044aae8     LIBCMTD:dbgrpt.obj
 0002:00002b5c       ??_C@_0BG@IHOEIIEJ@szUserMessage?5?$CB?$DN?5NULL?$AA@ 0044ab5c     LIBCMTD:dbgrpt.obj
 0002:00002b84       ??_C@_0P@MIGLKIOC@CorExitProcess?$AA@ 0044ab84     LIBCMTD:crt0dat.obj
 0002:00002b94       ??_C@_0M@MBOPBNBK@mscoree?4dll?$AA@ 0044ab94     LIBCMTD:crt0dat.obj
 0002:00002bac       ??_C@_0L@CKFHAPLH@_freebuf?4c?$AA@ 0044abac     LIBCMTD:_freebuf.obj
 0002:00002be0       ??_C@_09OOOBBFNM@_filbuf?4c?$AA@ 0044abe0     LIBCMTD:_filbuf.obj
 0002:00002bfc       ??_C@_07JGCPNLLC@_open?4c?$AA@ 0044abfc     LIBCMTD:_open.obj
 0002:00002c04       ??_C@_0BB@KFELMOAG@filename?5?$CB?$DN?5NULL?$AA@ 0044ac04     LIBCMTD:_open.obj
 0002:00002c18       ??_C@_08MKBBPGGN@stream?4c?$AA@ 0044ac18     LIBCMTD:stream.obj
 0002:00002c58       __DEFAULT_CW_in_mem        0044ac58     LIBCMTD:common.obj
 0002:00002c5a       __pi_by_2_to_61            0044ac5a     LIBCMTD:common.obj
 0002:00002c94       ??_C@_0L@KDOEJCKC@_nextafter?$AA@ 0044ac94     LIBCMTD:fpexcept.obj
 0002:00002ca0       ??_C@_05JGDBENOH@_logb?$AA@ 0044aca0     LIBCMTD:fpexcept.obj
 0002:00002ca8       ??_C@_03ONILCKOB@_yn?$AA@  0044aca8     LIBCMTD:fpexcept.obj
 0002:00002cac       ??_C@_03NAKIGLHK@_y1?$AA@  0044acac     LIBCMTD:fpexcept.obj
 0002:00002cb0       ??_C@_03MJLDFKDL@_y0?$AA@  0044acb0     LIBCMTD:fpexcept.obj
 0002:00002cb4       ??_C@_05GKKHEGJL@frexp?$AA@ 0044acb4     LIBCMTD:fpexcept.obj
 0002:00002cbc       ??_C@_04KEPJIHGP@fmod?$AA@ 0044acbc     LIBCMTD:fpexcept.obj
 0002:00002cc4       ??_C@_06MEIMCGCF@_hypot?$AA@ 0044acc4     LIBCMTD:fpexcept.obj
 0002:00002ccc       ??_C@_05KBKMEMPO@_cabs?$AA@ 0044accc     LIBCMTD:fpexcept.obj
 0002:00002cd4       ??_C@_05CEJMAHNP@ldexp?$AA@ 0044acd4     LIBCMTD:fpexcept.obj
 0002:00002cdc       ??_C@_04EHEDPDJG@modf?$AA@ 0044acdc     LIBCMTD:fpexcept.obj
 0002:00002ce4       ??_C@_04ODHECPBC@fabs?$AA@ 0044ace4     LIBCMTD:fpexcept.obj
 0002:00002cec       ??_C@_05PBJFFIGL@floor?$AA@ 0044acec     LIBCMTD:fpexcept.obj
 0002:00002cf4       ??_C@_04GFPJNGEK@ceil?$AA@ 0044acf4     LIBCMTD:fpexcept.obj
 0002:00002cfc       ??_C@_03IIINPABG@tan?$AA@  0044acfc     LIBCMTD:fpexcept.obj
 0002:00002d00       ??_C@_03LALBNOCG@cos?$AA@  0044ad00     LIBCMTD:fpexcept.obj
 0002:00002d04       ??_C@_03BLEJJJBH@sin?$AA@  0044ad04     LIBCMTD:fpexcept.obj
 0002:00002d08       ??_C@_04EIAKFFMI@sqrt?$AA@ 0044ad08     LIBCMTD:fpexcept.obj
 0002:00002d10       ??_C@_05KNGEOGJB@atan2?$AA@ 0044ad10     LIBCMTD:fpexcept.obj
 0002:00002d18       ??_C@_04MLLJIGOK@atan?$AA@ 0044ad18     LIBCMTD:fpexcept.obj
 0002:00002d20       ??_C@_04PDIFKINK@acos?$AA@ 0044ad20     LIBCMTD:fpexcept.obj
 0002:00002d28       ??_C@_04FIHNOPOL@asin?$AA@ 0044ad28     LIBCMTD:fpexcept.obj
 0002:00002d30       ??_C@_04FJHINJAO@tanh?$AA@ 0044ad30     LIBCMTD:fpexcept.obj
 0002:00002d38       ??_C@_04HPJJNFIM@cosh?$AA@ 0044ad38     LIBCMTD:fpexcept.obj
 0002:00002d40       ??_C@_04COOMCNPB@sinh?$AA@ 0044ad40     LIBCMTD:fpexcept.obj
 0002:00002d48       ??_C@_05HGHHAHAP@log10?$AA@ 0044ad48     LIBCMTD:fpexcept.obj
 0002:00002d50       ??_C@_03MGHMBJCF@log?$AA@  0044ad50     LIBCMTD:fpexcept.obj
 0002:00002d54       ??_C@_03JGHBODFD@pow?$AA@  0044ad54     LIBCMTD:fpexcept.obj
 0002:00002d58       ??_C@_03KHJOGHMM@exp?$AA@  0044ad58     LIBCMTD:fpexcept.obj
 0002:00002f20       ??_C@_07LCBHPJJN@LC_TIME?$AA@ 0044af20     LIBCMTD:setlocal.obj
 0002:00002f28       ??_C@_0L@DLHIECNL@LC_NUMERIC?$AA@ 0044af28     LIBCMTD:setlocal.obj
 0002:00002f34       ??_C@_0M@MIENIKLA@LC_MONETARY?$AA@ 0044af34     LIBCMTD:setlocal.obj
 0002:00002f40       ??_C@_08EADHIDAD@LC_CTYPE?$AA@ 0044af40     LIBCMTD:setlocal.obj
 0002:00002f4c       ??_C@_0L@KFJHEKIK@LC_COLLATE?$AA@ 0044af4c     LIBCMTD:setlocal.obj
 0002:00002f58       ??_C@_06NEFDFEKB@LC_ALL?$AA@ 0044af58     LIBCMTD:setlocal.obj
 0002:00002f6c       ??_C@_0L@LEECJGMI@setlocal?4c?$AA@ 0044af6c     LIBCMTD:setlocal.obj
 0002:00002f84       ??_C@_01ICJEACDI@?$DL?$AA@ 0044af84     LIBCMTD:setlocal.obj
 0002:00002f88       ??_C@_02BALPLPBG@?$DN?$DL?$AA@ 0044af88     LIBCMTD:setlocal.obj
 0002:00002f8c       ??_C@_01NEMOKFLO@?$DN?$AA@ 0044af8c     LIBCMTD:setlocal.obj
 0002:00002f90       ??_C@_03EGDHDPFD@_?4?0?$AA@ 0044af90     LIBCMTD:setlocal.obj
 0002:00002f94       ??_C@_01LFCBOECM@?4?$AA@   0044af94     LIBCMTD:setlocal.obj
 0002:00002f98       ??_C@_01IDAFKMJL@_?$AA@    0044af98     LIBCMTD:setlocal.obj
 0002:00002f9c       ??_C@_09BLOOPMDK@isctype?4c?$AA@ 0044af9c     LIBCMTD:isctype.obj
 0002:00002fa8       ??_C@_0BJ@IAKBGELC@?$CIunsigned?$CJ?$CIc?5?$CL?51?$CJ?5?$DM?$DN?5256?$AA@ 0044afa8     LIBCMTD:isctype.obj
 0002:00002fc4       ??_C@_08FKHPDPAC@winsig?4c?$AA@ 0044afc4     LIBCMTD:winsig.obj
 0002:00002ffc       ??_C@_0BI@DFKBFLJE@GetProcessWindowStation?$AA@ 0044affc     LIBCMTD:crtmbox.obj
 0002:00003014       ??_C@_0BK@CIDNPOGP@GetUserObjectInformationA?$AA@ 0044b014     LIBCMTD:crtmbox.obj
 0002:00003030       ??_C@_0BD@HHGDFDBJ@GetLastActivePopup?$AA@ 0044b030     LIBCMTD:crtmbox.obj
 0002:00003044       ??_C@_0BA@HNOPNCHB@GetActiveWindow?$AA@ 0044b044     LIBCMTD:crtmbox.obj
 0002:00003054       ??_C@_0M@CHKKJDAI@MessageBoxA?$AA@ 0044b054     LIBCMTD:crtmbox.obj
 0002:00003060       ??_C@_09KGBNCNDN@setvbuf?4c?$AA@ 0044b060     LIBCMTD:setvbuf.obj
 0002:0000307c       ??_C@_09IFKHNCOH@_sftbuf?4c?$AA@ 0044b07c     LIBCMTD:_sftbuf.obj
 0002:00003088       ??_C@_0BH@HIGALIFJ@flag?5?$DN?$DN?50?5?$HM?$HM?5flag?5?$DN?$DN?51?$AA@ 0044b088     LIBCMTD:_sftbuf.obj
 0002:000030a0       ??_C@_08MAFBHINM@ioinit?4c?$AA@ 0044b0a0     LIBCMTD:ioinit.obj
 0002:000030bc       ??_C@_0N@FFJGBINN@AuthenticAMD?$AA@ 0044b0bc     LIBCMTD:cpu_disp.obj
 0002:00006bc0       __real@4000000000000000    0044ebc0     LIBCMTD:powhlp.obj
 0002:00006bc8       ??_C@_09HCDLHOJP@stdenvp?4c?$AA@ 0044ebc8     LIBCMTD:stdenvp.obj
 0002:00006bd4       ??_C@_09IKILHJIC@stdargv?4c?$AA@ 0044ebd4     LIBCMTD:stdargv.obj
 0002:00006be0       ??_C@_07BPGNOCOG@a_env?4c?$AA@ 0044ebe0     LIBCMTD:a_env.obj
 0002:00006c04       ??_C@_0P@GGKDKEEG@runtime?5error?5?$AA@ 0044ec04     LIBCMTD:crt0msg.obj
 0002:00006c14       ??_C@_02PCIJFNDE@?$AN?6?$AA@ 0044ec14     LIBCMTD:crt0msg.obj
 0002:00006c18       ??_C@_0O@MJNIPGOH@TLOSS?5error?$AN?6?$AA@ 0044ec18     LIBCMTD:crt0msg.obj
 0002:00006c28       ??_C@_0N@BONNPDHF@SING?5error?$AN?6?$AA@ 0044ec28     LIBCMTD:crt0msg.obj
 0002:00006c38       ??_C@_0P@MBDAJNE@DOMAIN?5error?$AN?6?$AA@ 0044ec38     LIBCMTD:crt0msg.obj
 0002:00006c48       ??_C@_0KC@BDDGGBEJ@R6029?$AN?6?9?5This?5application?5cannot@ 0044ec48     LIBCMTD:crt0msg.obj
 0002:00006cec       ??_C@_0CF@KJDAIALP@R6028?$AN?6?9?5unable?5to?5initialize?5he@ 0044ecec     LIBCMTD:crt0msg.obj
 0002:00006d14       ??_C@_0DF@GAKBPDFP@R6027?$AN?6?9?5not?5enough?5space?5for?5lo@ 0044ed14     LIBCMTD:crt0msg.obj
 0002:00006d4c       ??_C@_0DF@IBLNNAIG@R6026?$AN?6?9?5not?5enough?5space?5for?5st@ 0044ed4c     LIBCMTD:crt0msg.obj
 0002:00006d84       ??_C@_0CG@IOHKGFNJ@R6025?$AN?6?9?5pure?5virtual?5function?5c@ 0044ed84     LIBCMTD:crt0msg.obj
 0002:00006dac       ??_C@_0DF@JIJJFJDC@R6024?$AN?6?9?5not?5enough?5space?5for?5_o@ 0044edac     LIBCMTD:crt0msg.obj
 0002:00006de4       ??_C@_0CJ@EGEJHFME@R6019?$AN?6?9?5unable?5to?5open?5console?5@ 0044ede4     LIBCMTD:crt0msg.obj
 0002:00006e10       ??_C@_0CB@GNHNIELH@R6018?$AN?6?9?5unexpected?5heap?5error?$AN?6@ 0044ee10     LIBCMTD:crt0msg.obj
 0002:00006e34       ??_C@_0CN@FOLDKNG@R6017?$AN?6?9?5unexpected?5multithread?5@ 0044ee34     LIBCMTD:crt0msg.obj
 0002:00006e64       ??_C@_0CM@FAHFJNHO@R6016?$AN?6?9?5not?5enough?5space?5for?5th@ 0044ee64     LIBCMTD:crt0msg.obj
 0002:00006e90       ??_C@_0JG@LBKMGKLD@?$AN?6This?5application?5has?5requested@ 0044ee90     LIBCMTD:crt0msg.obj
 0002:00006f28       ??_C@_0CM@FLCNIPKK@R6009?$AN?6?9?5not?5enough?5space?5for?5en@ 0044ef28     LIBCMTD:crt0msg.obj
 0002:00006f54       ??_C@_0CK@KMMJOAPP@R6008?$AN?6?9?5not?5enough?5space?5for?5ar@ 0044ef54     LIBCMTD:crt0msg.obj
 0002:00006f80       ??_C@_0CF@HOHMHDEK@R6002?$AN?6?9?5floating?5point?5not?5load@ 0044ef80     LIBCMTD:crt0msg.obj
 0002:00006fa8       ??_C@_0BK@OFGJDLJJ@Runtime?5Error?$CB?6?6Program?3?5?$AA@ 0044efa8     LIBCMTD:crt0msg.obj
 0002:00006fd4       ??_C@_09KJLOAKHC@mbctype?4c?$AA@ 0044efd4     LIBCMTD:mbctype.obj
 0002:00006fec       ??_C@_0CG@PKBDLMEO@InitializeCriticalSectionAndSpin@ 0044efec     LIBCMTD:initcrit.obj
 0002:00007034       ??_C@_09PKAEMGHJ@_getbuf?4c?$AA@ 0044f034     LIBCMTD:_getbuf.obj
 0002:00007040       ___newctype                0044f040     LIBCMTD:ctype.obj
 0002:00007340       __wctype                   0044f340     LIBCMTD:ctype.obj
 0002:00007544       ??_C@_0CP@PEILCOHB@f?3?2vs70builds?23077?2vc?2crtbld?2crt@ 0044f544     LIBCMTD:snprintf.obj
 0002:00007574       ??_C@_0DA@KHEJFFIK@f?3?2vs70builds?23077?2vc?2crtbld?2crt@ 0044f574     LIBCMTD:vsnprint.obj
 0002:000075a4       ??_C@_09MGNHMPHC@osfinfo?4c?$AA@ 0044f5a4     LIBCMTD:osfinfo.obj
 0002:00007624       ??_C@_08JCCMCCIL@HH?3mm?3ss?$AA@ 0044f624     LIBCMTD:strftime.obj
 0002:00007630       ??_C@_0BE@CKGJFCPC@dddd?0?5MMMM?5dd?0?5yyyy?$AA@ 0044f630     LIBCMTD:strftime.obj
 0002:00007644       ??_C@_08BPBNCDIB@MM?1dd?1yy?$AA@ 0044f644     LIBCMTD:strftime.obj
 0002:00007650       ??_C@_02CJNFDJBF@PM?$AA@   0044f650     LIBCMTD:strftime.obj
 0002:00007654       ??_C@_02DEDBPAFC@AM?$AA@   0044f654     LIBCMTD:strftime.obj
 0002:00007658       ??_C@_08EDHMEBNP@December?$AA@ 0044f658     LIBCMTD:strftime.obj
 0002:00007664       ??_C@_08HCHEGEOA@November?$AA@ 0044f664     LIBCMTD:strftime.obj
 0002:00007670       ??_C@_07JJNFCEND@October?$AA@ 0044f670     LIBCMTD:strftime.obj
 0002:00007678       ??_C@_09BHHEALKD@September?$AA@ 0044f678     LIBCMTD:strftime.obj
 0002:00007684       ??_C@_06LBBHFDDG@August?$AA@ 0044f684     LIBCMTD:strftime.obj
 0002:0000768c       ??_C@_04MIEPOIFP@July?$AA@ 0044f68c     LIBCMTD:strftime.obj
 0002:00007694       ??_C@_04CNLMGBGM@June?$AA@ 0044f694     LIBCMTD:strftime.obj
 0002:0000769c       ??_C@_05DMJDNLEJ@April?$AA@ 0044f69c     LIBCMTD:strftime.obj
 0002:000076a4       ??_C@_05HPCKOFNC@March?$AA@ 0044f6a4     LIBCMTD:strftime.obj
 0002:000076ac       ??_C@_08GNJGEPFN@February?$AA@ 0044f6ac     LIBCMTD:strftime.obj
 0002:000076b8       ??_C@_07CGJPFGJA@January?$AA@ 0044f6b8     LIBCMTD:strftime.obj
 0002:000076c0       ??_C@_03MKABNOCG@Dec?$AA@  0044f6c0     LIBCMTD:strftime.obj
 0002:000076c4       ??_C@_03JPJOFNIA@Nov?$AA@  0044f6c4     LIBCMTD:strftime.obj
 0002:000076c8       ??_C@_03BMAOKBAD@Oct?$AA@  0044f6c8     LIBCMTD:strftime.obj
 0002:000076cc       ??_C@_03GGCAPAJC@Sep?$AA@  0044f6cc     LIBCMTD:strftime.obj
 0002:000076d0       ??_C@_03IFJFEIGA@Aug?$AA@  0044f6d0     LIBCMTD:strftime.obj
 0002:000076d4       ??_C@_03LBGABGKK@Jul?$AA@  0044f6d4     LIBCMTD:strftime.obj
 0002:000076d8       ??_C@_03IDFGHECI@Jun?$AA@  0044f6d8     LIBCMTD:strftime.obj
 0002:000076dc       ??_C@_03CNMDKL@May?$AA@    0044f6dc     LIBCMTD:strftime.obj
 0002:000076e0       ??_C@_03LEOLGMJP@Apr?$AA@  0044f6e0     LIBCMTD:strftime.obj
 0002:000076e4       ??_C@_03ODNJBKGA@Mar?$AA@  0044f6e4     LIBCMTD:strftime.obj
 0002:000076e8       ??_C@_03HJBDCHOM@Feb?$AA@  0044f6e8     LIBCMTD:strftime.obj
 0002:000076ec       ??_C@_03JIHJHPIE@Jan?$AA@  0044f6ec     LIBCMTD:strftime.obj
 0002:000076f0       ??_C@_08INBOOONO@Saturday?$AA@ 0044f6f0     LIBCMTD:strftime.obj
 0002:000076fc       ??_C@_06JECMNKMI@Friday?$AA@ 0044f6fc     LIBCMTD:strftime.obj
 0002:00007704       ??_C@_08HACCIKIA@Thursday?$AA@ 0044f704     LIBCMTD:strftime.obj
 0002:00007710       ??_C@_09DLIGFAKA@Wednesday?$AA@ 0044f710     LIBCMTD:strftime.obj
 0002:0000771c       ??_C@_07BAAGCFCM@Tuesday?$AA@ 0044f71c     LIBCMTD:strftime.obj
 0002:00007724       ??_C@_06JLEDEDGH@Monday?$AA@ 0044f724     LIBCMTD:strftime.obj
 0002:0000772c       ??_C@_06OOPIFAJ@Sunday?$AA@ 0044f72c     LIBCMTD:strftime.obj
 0002:00007734       ??_C@_03FEFJNEK@Sat?$AA@   0044f734     LIBCMTD:strftime.obj
 0002:00007738       ??_C@_03IDIOELNC@Fri?$AA@  0044f738     LIBCMTD:strftime.obj
 0002:0000773c       ??_C@_03IOFIKPDN@Thu?$AA@  0044f73c     LIBCMTD:strftime.obj
 0002:00007740       ??_C@_03MHOMLAJA@Wed?$AA@  0044f740     LIBCMTD:strftime.obj
 0002:00007744       ??_C@_03NAGEINEP@Tue?$AA@  0044f744     LIBCMTD:strftime.obj
 0002:00007748       ??_C@_03PDAGKDH@Mon?$AA@   0044f748     LIBCMTD:strftime.obj
 0002:0000774c       ??_C@_03KOEHGMDN@Sun?$AA@  0044f74c     LIBCMTD:strftime.obj
 0002:00007750       ??_C@_0L@OCEOFAIF@strftime?4c?$AA@ 0044f750     LIBCMTD:strftime.obj
 0002:0000775c       ??_C@_0DJ@BLPIACFC@?$CI?$CCInvalid?5MBCS?5character?5sequenc@ 0044f75c     LIBCMTD:strftime.obj
 0002:00007798       ??_C@_0DD@GLPHLKIC@?$CI?$CCZero?5length?5output?5buffer?5pass@ 0044f798     LIBCMTD:strftime.obj
 0002:000077cc       ??_C@_0DL@LLHFCBKO@?$CI?$CCInvalid?5MBCS?5character?5sequenc@ 0044f7cc     LIBCMTD:strftime.obj
 0002:00007808       ??_C@_0EC@CJNAOFBG@?$CI?$CCInvalid?5MBCS?5character?5sequenc@ 0044f808     LIBCMTD:strftime.obj
 0002:0000784c       ??_C@_03EBAPMIKO@a?1p?$AA@ 0044f84c     LIBCMTD:strftime.obj
 0002:00007850       ??_C@_05JAMEPDIN@am?1pm?$AA@ 0044f850     LIBCMTD:strftime.obj
 0002:00007864       ??_C@_0L@IOJADHBB@inittime?4c?$AA@ 0044f864     LIBCMTD:inittime.obj
 0002:00007870       ??_C@_09MECGNAGI@initnum?4c?$AA@ 0044f870     LIBCMTD:initnum.obj
 0002:0000787c       ??_C@_09HKFHICAL@initmon?4c?$AA@ 0044f87c     LIBCMTD:initmon.obj
 0002:00007888       ??_C@_0L@GBAGBCPL@initctyp?4c?$AA@ 0044f888     LIBCMTD:initctyp.obj
 0002:00007894       ??_C@_07GPNABLBE@a_str?4c?$AA@ 0044f894     LIBCMTD:a_str.obj
 0002:0000789c       ??_C@_13NOLLCAOD@?$AA?$AA?$AA?$AA@ 0044f89c     LIBCMTD:a_str.obj
 0002:000078b0       ___rgLocInfo               0044f8b0     LIBCMTD:getqloc.obj
 0002:00007d54       ??_C@_08PKBIPKE@Paraguay?$AA@ 0044fd54     LIBCMTD:getqloc.obj
 0002:00007d60       ??_C@_07GHBIBIBP@Uruguay?$AA@ 0044fd60     LIBCMTD:getqloc.obj
 0002:00007d68       ??_C@_05HBNKAPDN@Chile?$AA@ 0044fd68     LIBCMTD:getqloc.obj
 0002:00007d70       ??_C@_07FEIFIPNF@Ecuador?$AA@ 0044fd70     LIBCMTD:getqloc.obj
 0002:00007d78       ??_C@_09PGNFPGME@Argentina?$AA@ 0044fd78     LIBCMTD:getqloc.obj
 0002:00007d84       ??_C@_04IALPBJF@Peru?$AA@  0044fd84     LIBCMTD:getqloc.obj
 0002:00007d8c       ??_C@_08IJPLNLKH@Colombia?$AA@ 0044fd8c     LIBCMTD:getqloc.obj
 0002:00007d98       ??_C@_09IDMFKCN@Venezuela?$AA@ 0044fd98     LIBCMTD:getqloc.obj
 0002:00007da4       ??_C@_0BD@DNEJOGOK@Dominican?5Republic?$AA@ 0044fda4     LIBCMTD:getqloc.obj
 0002:00007db8       ??_C@_0N@LPINDNDB@South?5Africa?$AA@ 0044fdb8     LIBCMTD:getqloc.obj
 0002:00007dc8       ??_C@_06BLJPEOBG@Panama?$AA@ 0044fdc8     LIBCMTD:getqloc.obj
 0002:00007dd0       ??_C@_0L@BOCNDGON@Luxembourg?$AA@ 0044fdd0     LIBCMTD:getqloc.obj
 0002:00007ddc       ??_C@_0L@CONEHKA@Costa?5Rica?$AA@ 0044fddc     LIBCMTD:getqloc.obj
 0002:00007de8       ??_C@_0M@KGBPELAM@Switzerland?$AA@ 0044fde8     LIBCMTD:getqloc.obj
 0002:00007df4       ??_C@_09FJGLIMAG@Guatemala?$AA@ 0044fdf4     LIBCMTD:getqloc.obj
 0002:00007e00       ??_C@_06ECHIPDMK@Canada?$AA@ 0044fe00     LIBCMTD:getqloc.obj
 0002:00007e08       ??_C@_0BG@CCEBNPGH@Spanish?5?9?5Modern?5Sort?$AA@ 0044fe08     LIBCMTD:getqloc.obj
 0002:00007e20       ??_C@_09EFGJAPAD@Australia?$AA@ 0044fe20     LIBCMTD:getqloc.obj
 0002:00007e2c       ??_C@_07NEKHPBCG@English?$AA@ 0044fe2c     LIBCMTD:getqloc.obj
 0002:00007e34       ??_C@_07LKIIOGFH@Austria?$AA@ 0044fe34     LIBCMTD:getqloc.obj
 0002:00007e3c       ??_C@_06EDDDIONA@German?$AA@ 0044fe3c     LIBCMTD:getqloc.obj
 0002:00007e44       ??_C@_07LIIIOFOA@Belgium?$AA@ 0044fe44     LIBCMTD:getqloc.obj
 0002:00007e4c       ??_C@_06DIAOLLEH@Mexico?$AA@ 0044fe4c     LIBCMTD:getqloc.obj
 0002:00007e54       ??_C@_07PFALJOGE@Spanish?$AA@ 0044fe54     LIBCMTD:getqloc.obj
 0002:00007e5c       ??_C@_06FFOOPAJB@Basque?$AA@ 0044fe5c     LIBCMTD:getqloc.obj
 0002:00007e64       ??_C@_06DGHNDJFJ@Sweden?$AA@ 0044fe64     LIBCMTD:getqloc.obj
 0002:00007e6c       ??_C@_07OBINPKFN@Swedish?$AA@ 0044fe6c     LIBCMTD:getqloc.obj
 0002:00007e74       ??_C@_07NCOIHDGC@Iceland?$AA@ 0044fe74     LIBCMTD:getqloc.obj
 0002:00007e7c       ??_C@_09JHBBDDIA@Icelandic?$AA@ 0044fe7c     LIBCMTD:getqloc.obj
 0002:00007e88       ??_C@_06COBCPIFO@France?$AA@ 0044fe88     LIBCMTD:getqloc.obj
 0002:00007e90       ??_C@_06GODMCAND@French?$AA@ 0044fe90     LIBCMTD:getqloc.obj
 0002:00007e98       ??_C@_07MFHPMOED@Finland?$AA@ 0044fe98     LIBCMTD:getqloc.obj
 0002:00007ea0       ??_C@_07MCEAMKOD@Finnish?$AA@ 0044fea0     LIBCMTD:getqloc.obj
 0002:00007ea8       ??_C@_05CBHOCCK@Spain?$AA@ 0044fea8     LIBCMTD:getqloc.obj
 0002:00007eb0       ??_C@_0BL@GIOEGDHB@Spanish?5?9?5Traditional?5Sort?$AA@ 0044feb0     LIBCMTD:getqloc.obj
 0002:00007ecc       ___rglangidNotDefault      0044fecc     LIBCMTD:getqloc.obj
 0002:00007ee0       ___rg_country              0044fee0     LIBCMTD:getqloc.obj
 0002:00007f98       ??_C@_0O@FMJNFNKE@united?9states?$AA@ 0044ff98     LIBCMTD:getqloc.obj
 0002:00007fa8       ??_C@_0P@NDHFFKCA@united?9kingdom?$AA@ 0044ffa8     LIBCMTD:getqloc.obj
 0002:00007fb8       ??_C@_0BC@HHDADLGF@trinidad?5?$CG?5tobago?$AA@ 0044ffb8     LIBCMTD:getqloc.obj
 0002:00007fcc       ??_C@_0M@IOAEBDAC@south?9korea?$AA@ 0044ffcc     LIBCMTD:getqloc.obj
 0002:00007fd8       ??_C@_0N@FIELFKIJ@south?9africa?$AA@ 0044ffd8     LIBCMTD:getqloc.obj
 0002:00007fe8       ??_C@_0M@OPNDHCMC@south?5korea?$AA@ 0044ffe8     LIBCMTD:getqloc.obj
 0002:00007ff4       ??_C@_0N@MDEOEPFI@south?5africa?$AA@ 0044fff4     LIBCMTD:getqloc.obj
 0002:00008004       ??_C@_06FKAPCJLB@slovak?$AA@ 00450004     LIBCMTD:getqloc.obj
 0002:0000800c       ??_C@_0M@EFJANOAL@puerto?9rico?$AA@ 0045000c     LIBCMTD:getqloc.obj
 0002:00008018       ??_C@_08PGOJKDAI@pr?9china?$AA@ 00450018     LIBCMTD:getqloc.obj
 0002:00008024       ??_C@_08JHDOMCMI@pr?5china?$AA@ 00450024     LIBCMTD:getqloc.obj
 0002:00008030       ??_C@_02JHCHFBLL@nz?$AA@   00450030     LIBCMTD:getqloc.obj
 0002:00008034       ??_C@_0M@LINHDHKP@new?9zealand?$AA@ 00450034     LIBCMTD:getqloc.obj
 0002:00008040       ??_C@_09IIIPPBDB@hong?9kong?$AA@ 00450040     LIBCMTD:getqloc.obj
 0002:0000804c       ??_C@_07HJLCKBG@holland?$AA@ 0045004c     LIBCMTD:getqloc.obj
 0002:00008054       ??_C@_0O@LEHGMHAG@great?5britain?$AA@ 00450054     LIBCMTD:getqloc.obj
 0002:00008064       ??_C@_07FACOMELA@england?$AA@ 00450064     LIBCMTD:getqloc.obj
 0002:0000806c       ??_C@_05JIHCEICB@czech?$AA@ 0045006c     LIBCMTD:getqloc.obj
 0002:00008074       ??_C@_05BBJOBLGB@china?$AA@ 00450074     LIBCMTD:getqloc.obj
 0002:0000807c       ??_C@_07GPKPHICP@britain?$AA@ 0045007c     LIBCMTD:getqloc.obj
 0002:00008084       ??_C@_07MHIPBHMG@america?$AA@ 00450084     LIBCMTD:getqloc.obj
 0002:00008090       ___rg_language             00450090     LIBCMTD:getqloc.obj
 0002:00008298       ??_C@_03KIALPMKC@usa?$AA@  00450298     LIBCMTD:getqloc.obj
 0002:0000829c       ??_C@_02FGJGKGGD@us?$AA@   0045029c     LIBCMTD:getqloc.obj
 0002:000082a0       ??_C@_02NEINDODK@uk?$AA@   004502a0     LIBCMTD:getqloc.obj
 0002:000082a4       ??_C@_05JMPCFJFJ@swiss?$AA@ 004502a4     LIBCMTD:getqloc.obj
 0002:000082ac       ??_C@_0BA@HLOCPIOD@swedish?9finland?$AA@ 004502ac     LIBCMTD:getqloc.obj
 0002:000082bc       ??_C@_0BC@PKCNIABK@spanish?9venezuela?$AA@ 004502bc     LIBCMTD:getqloc.obj
 0002:000082d0       ??_C@_0BA@GBHHMIJI@spanish?9uruguay?$AA@ 004502d0     LIBCMTD:getqloc.obj
 0002:000082e0       ??_C@_0BE@BHDOHPMC@spanish?9puerto?5rico?$AA@ 004502e0     LIBCMTD:getqloc.obj
 0002:000082f4       ??_C@_0N@KMOIDGGN@spanish?9peru?$AA@ 004502f4     LIBCMTD:getqloc.obj
 0002:00008304       ??_C@_0BB@HMHLPGPH@spanish?9paraguay?$AA@ 00450304     LIBCMTD:getqloc.obj
 0002:00008318       ??_C@_0P@MCPKNGFD@spanish?9panama?$AA@ 00450318     LIBCMTD:getqloc.obj
 0002:00008328       ??_C@_0BC@IHOHGAIL@spanish?9nicaragua?$AA@ 00450328     LIBCMTD:getqloc.obj
 0002:0000833c       ??_C@_0P@KLMJDNFJ@spanish?9modern?$AA@ 0045033c     LIBCMTD:getqloc.obj
 0002:0000834c       ??_C@_0BA@BPAPGBCM@spanish?9mexican?$AA@ 0045034c     LIBCMTD:getqloc.obj
 0002:0000835c       ??_C@_0BB@PDECHHHE@spanish?9honduras?$AA@ 0045035c     LIBCMTD:getqloc.obj
 0002:00008370       ??_C@_0BC@KLHKFGDB@spanish?9guatemala?$AA@ 00450370     LIBCMTD:getqloc.obj
 0002:00008384       ??_C@_0BE@MFOOKJAI@spanish?9el?5salvador?$AA@ 00450384     LIBCMTD:getqloc.obj
 0002:00008398       ??_C@_0BA@FCOKFPFC@spanish?9ecuador?$AA@ 00450398     LIBCMTD:getqloc.obj
 0002:000083a8       ??_C@_0BL@PLMGIMOO@spanish?9dominican?5republic?$AA@ 004503a8     LIBCMTD:getqloc.obj
 0002:000083c4       ??_C@_0BD@HLGDNMHB@spanish?9costa?5rica?$AA@ 004503c4     LIBCMTD:getqloc.obj
 0002:000083d8       ??_C@_0BB@PKCBKCPE@spanish?9colombia?$AA@ 004503d8     LIBCMTD:getqloc.obj
 0002:000083ec       ??_C@_0O@MCBIJGNE@spanish?9chile?$AA@ 004503ec     LIBCMTD:getqloc.obj
 0002:000083fc       ??_C@_0BA@BEFEIGJJ@spanish?9bolivia?$AA@ 004503fc     LIBCMTD:getqloc.obj
 0002:0000840c       ??_C@_0BC@EMECMPD@spanish?9argentina?$AA@ 0045040c     LIBCMTD:getqloc.obj
 0002:00008420       ??_C@_0BF@EALFLENP@portuguese?9brazilian?$AA@ 00450420     LIBCMTD:getqloc.obj
 0002:00008438       ??_C@_0BC@HBLEBLNN@norwegian?9nynorsk?$AA@ 00450438     LIBCMTD:getqloc.obj
 0002:0000844c       ??_C@_0BB@HMACDDCK@norwegian?9bokmal?$AA@ 0045044c     LIBCMTD:getqloc.obj
 0002:00008460       ??_C@_09BAFFPPHE@norwegian?$AA@ 00450460     LIBCMTD:getqloc.obj
 0002:0000846c       ??_C@_0O@EAJFJDFG@italian?9swiss?$AA@ 0045046c     LIBCMTD:getqloc.obj
 0002:0000847c       ??_C@_0O@CNOMPGD@irish?9english?$AA@ 0045047c     LIBCMTD:getqloc.obj
 0002:0000848c       ??_C@_0N@EDHBGCKG@german?9swiss?$AA@ 0045048c     LIBCMTD:getqloc.obj
 0002:0000849c       ??_C@_0BC@JACMHNBP@german?9luxembourg?$AA@ 0045049c     LIBCMTD:getqloc.obj
 0002:000084b0       ??_C@_0BE@HBGMGFEG@german?9lichtenstein?$AA@ 004504b0     LIBCMTD:getqloc.obj
 0002:000084c4       ??_C@_0BA@HKKBIBKL@german?9austrian?$AA@ 004504c4     LIBCMTD:getqloc.obj
 0002:000084d4       ??_C@_0N@GCAEPEBK@french?9swiss?$AA@ 004504d4     LIBCMTD:getqloc.obj
 0002:000084e4       ??_C@_0BC@DJFJJCK@french?9luxembourg?$AA@ 004504e4     LIBCMTD:getqloc.obj
 0002:000084f8       ??_C@_0BA@NNCEDFIC@french?9canadian?$AA@ 004504f8     LIBCMTD:getqloc.obj
 0002:00008508       ??_C@_0P@CMPOCLM@french?9belgian?$AA@ 00450508     LIBCMTD:getqloc.obj
 0002:00008518       ??_C@_0M@GHHDJOK@english?9usa?$AA@ 00450518     LIBCMTD:getqloc.obj
 0002:00008524       ??_C@_0L@PLDJKEIL@english?9us?$AA@ 00450524     LIBCMTD:getqloc.obj
 0002:00008530       ??_C@_0L@HJCCDMNC@english?9uk?$AA@ 00450530     LIBCMTD:getqloc.obj
 0002:0000853c       ??_C@_0BK@CKLIAGJB@english?9trinidad?5y?5tobago?$AA@ 0045053c     LIBCMTD:getqloc.obj
 0002:00008558       ??_C@_0BF@JMJMGNNF@english?9south?5africa?$AA@ 00450558     LIBCMTD:getqloc.obj
 0002:00008570       ??_C@_0L@DKIIFDFD@english?9nz?$AA@ 00450570     LIBCMTD:getqloc.obj
 0002:0000857c       ??_C@_0BA@ONHGJCLH@english?9jamaica?$AA@ 0045057c     LIBCMTD:getqloc.obj
 0002:0000858c       ??_C@_0M@HJBGHOPO@english?9ire?$AA@ 0045058c     LIBCMTD:getqloc.obj
 0002:00008598       ??_C@_0BC@LFEKMIFB@english?9caribbean?$AA@ 00450598     LIBCMTD:getqloc.obj
 0002:000085ac       ??_C@_0M@OLDPFKHI@english?9can?$AA@ 004505ac     LIBCMTD:getqloc.obj
 0002:000085b8       ??_C@_0P@OMDEHBMP@english?9belize?$AA@ 004505b8     LIBCMTD:getqloc.obj
 0002:000085c8       ??_C@_0M@KFHFPFED@english?9aus?$AA@ 004505c8     LIBCMTD:getqloc.obj
 0002:000085d4       ??_C@_0BB@MNMBKDFE@english?9american?$AA@ 004505d4     LIBCMTD:getqloc.obj
 0002:000085e8       ??_C@_0O@KIDLNNBA@dutch?9belgian?$AA@ 004505e8     LIBCMTD:getqloc.obj
 0002:000085f8       ??_C@_0BE@JBKABBMH@chinese?9traditional?$AA@ 004505f8     LIBCMTD:getqloc.obj
 0002:0000860c       ??_C@_0BC@MJJMPKCG@chinese?9singapore?$AA@ 0045060c     LIBCMTD:getqloc.obj
 0002:00008620       ??_C@_0BD@FDKADDCP@chinese?9simplified?$AA@ 00450620     LIBCMTD:getqloc.obj
 0002:00008634       ??_C@_0BB@DBEFDDME@chinese?9hongkong?$AA@ 00450634     LIBCMTD:getqloc.obj
 0002:00008648       ??_C@_07DHNMFMCI@chinese?$AA@ 00450648     LIBCMTD:getqloc.obj
 0002:00008650       ??_C@_03FNDDCHI@chi?$AA@   00450650     LIBCMTD:getqloc.obj
 0002:00008654       ??_C@_03BMMIADDJ@chh?$AA@  00450654     LIBCMTD:getqloc.obj
 0002:00008658       ??_C@_08OAIPJDGI@canadian?$AA@ 00450658     LIBCMTD:getqloc.obj
 0002:00008664       ??_C@_07HBPMNPNJ@belgian?$AA@ 00450664     LIBCMTD:getqloc.obj
 0002:0000866c       ??_C@_0L@OEKOPBEL@australian?$AA@ 0045066c     LIBCMTD:getqloc.obj
 0002:00008678       ??_C@_0BB@MEIMBEDG@american?9english?$AA@ 00450678     LIBCMTD:getqloc.obj
 0002:0000868c       ??_C@_0BB@DFMDPDGB@american?5english?$AA@ 0045068c     LIBCMTD:getqloc.obj
 0002:000086a0       ??_C@_08IJLOKOLL@american?$AA@ 004506a0     LIBCMTD:getqloc.obj
 0002:000086ac       ??_C@_0BC@NFIEMBLL@Norwegian?9Nynorsk?$AA@ 004506ac     LIBCMTD:getqloc.obj
 0002:000086c0       ??_C@_03NFKLAGEF@OCP?$AA@  004506c0     LIBCMTD:getqloc.obj
 0002:000086c4       ??_C@_03DFHEHBHG@ACP?$AA@  004506c4     LIBCMTD:getqloc.obj
 0002:00008730       ??_C@_05EOHGHCHD@exp10?$AA@ 00450730     LIBCMTD:libm_error.obj
 0002:00008738       ??_C@_04HPAFEEIN@exp2?$AA@ 00450738     LIBCMTD:libm_error.obj
 0002:00008740       ??_C@_04KGLCPMCP@log2?$AA@ 00450740     LIBCMTD:libm_error.obj
 0002:00008748       __atan_table               00450748     LIBCMTD:atan_table.obj
 0002:00009f58       ??_C@_07FEAFKIIG@a_map?4c?$AA@ 00451f58     LIBCMTD:a_map.obj
 0002:00009f84       ??_C@_06IMKFLFPG@1?$CDQNAN?$AA@ 00451f84     LIBCMTD:x10fout.obj
 0002:00009f8c       ??_C@_05DNEBIAHO@1?$CDINF?$AA@ 00451f8c     LIBCMTD:x10fout.obj
 0002:00009f94       ??_C@_05PHHOCPM@1?$CDIND?$AA@ 00451f94     LIBCMTD:x10fout.obj
 0002:00009f9c       ??_C@_06PGGFOGJG@1?$CDSNAN?$AA@ 00451f9c     LIBCMTD:x10fout.obj
 0002:00009fb4       ??_C@_08EOPENFML@chsize?4c?$AA@ 00451fb4     LIBCMTD:chsize.obj
 0002:00009fc0       ??_C@_09OJCCCDEJ@size?5?$DO?$DN?50?$AA@ 00451fc0     LIBCMTD:chsize.obj
 0002:00009fcc       ___dnames                  00451fcc     LIBCMTD:timeset.obj
 0002:00009fe4       ___mnames                  00451fe4     LIBCMTD:timeset.obj
 0002:0000a02c       ??_C@_07LOOFNDIO@tzset?4c?$AA@ 0045202c     LIBCMTD:tzset.obj
 0002:0000a034       ??_C@_02CLFPBFFP@TZ?$AA@   00452034     LIBCMTD:tzset.obj
 0002:0000a054       ??_C@_0L@DILIPMN@inithelp?4c?$AA@ 00452054     LIBCMTD:inithelp.obj
 0002:0000a060       ??_C@_0L@KBNGFDKM@convrtcp?4c?$AA@ 00452060     LIBCMTD:convrtcp.obj
 0002:0000a09c       ??_C@_07NIBBAFJP@w_loc?4c?$AA@ 0045209c     LIBCMTD:w_loc.obj
 0002:0000a0b4       ??_C@_07GCMFDNDD@a_loc?4c?$AA@ 004520b4     LIBCMTD:a_loc.obj
 0002:0000a0cc       ??_C@_0L@CELCHBFJ@wtombenv?4c?$AA@ 004520cc     LIBCMTD:wtombenv.obj
 0002:0000a0d8       ??_C@_07KLPPCEPH@a_cmp?4c?$AA@ 004520d8     LIBCMTD:a_cmp.obj
 0002:0000a0e0       ??_C@_0DN@NFIMOOFE@cchCount1?$DN?$DN0?5?$CG?$CG?5cchCount2?$DN?$DN1?5?$HM?$HM?5@ 004520e0     LIBCMTD:a_cmp.obj
 0002:0000a138       ??_C@_08BMJILFKN@setenv?4c?$AA@ 00452138     LIBCMTD:setenv.obj
 0002:0000a144       ??_C@_05MAJJAKPI@FALSE?$AA@ 00452144     LIBCMTD:setenv.obj
 0002:0000a168       ??_7UserStream@@6B@        00452168     SampleCommonCodeDEBUG:Stream.obj
 0002:0000a19c       ??_7NxStream@@6B@          0045219c     SampleCommonCodeDEBUG:Stream.obj
 0002:0000a1d0       ??_C@_01KDCPPGHE@r?$AA@    004521d0     SampleCommonCodeDEBUG:Stream.obj
 0002:0000a1d8       ??_C@_0GB@KHGECHOM@?2Program?5Files?2AGEIA?5Technologie@ 004521d8     SampleCommonCodeDEBUG:Stream.obj
 0002:0000a23c       ??_C@_01NOFIACDB@w?$AA@    0045223c     SampleCommonCodeDEBUG:Stream.obj
 0002:0000a240       ??_C@_02DBHOLHAJ@ww?$AA@   00452240     SampleCommonCodeDEBUG:Stream.obj
 0002:0000a244       ??_7MemoryWriteBuffer@@6B@ 00452244     SampleCommonCodeDEBUG:Stream.obj
 0002:0000a278       ??_C@_01GBGANLPD@0?$AA@    00452278     SampleCommonCodeDEBUG:Stream.obj
 0002:0000a280       ??_C@_0GB@FNGGMJAM@c?3?2program?5files?2ageia?5technolog@ 00452280     SampleCommonCodeDEBUG:Stream.obj
 0002:0000a2e4       ??_C@_0L@GKFKIAAC@newData?$CB?$DN0?$AA@ 004522e4     SampleCommonCodeDEBUG:Stream.obj
 0002:0000a2f0       ??_7MemoryReadBuffer@@6B@  004522f0     SampleCommonCodeDEBUG:Stream.obj
 0002:0000a324       _IID_IDxDiagContainer      00452324     dxguid:dxguid.obj
 0002:0000a334       _IID_IDxDiagProvider       00452334     dxguid:dxguid.obj
 0002:0000a344       _CLSID_DxDiagProvider      00452344     dxguid:dxguid.obj
 0002:0000a354       _KSDATAFORMAT_SUBTYPE_DIRECTMUSIC 00452354     dxguid:dxguid.obj
 0002:0000a364       _KSDATAFORMAT_SUBTYPE_MIDI 00452364     dxguid:dxguid.obj
 0002:0000a374       _IID_IKsControl            00452374     dxguid:dxguid.obj
 0002:0000a384       _IID_IDirectMusicAudioPath 00452384     dxguid:dxguid.obj
 0002:0000a394       _IID_IDirectMusicContainer 00452394     dxguid:dxguid.obj
 0002:0000a3a4       _IID_IDirectMusicScript    004523a4     dxguid:dxguid.obj
 0002:0000a3b4       _IID_IDirectMusicPatternTrack 004523b4     dxguid:dxguid.obj
 0002:0000a3c4       _IID_IDirectMusicStyle8    004523c4     dxguid:dxguid.obj
 0002:0000a3d4       _IID_IDirectMusicSegmentState8 004523d4     dxguid:dxguid.obj
 0002:0000a3e4       _IID_IDirectMusicSegment8  004523e4     dxguid:dxguid.obj
 0002:0000a3f4       _IID_IDirectMusicPerformance8 004523f4     dxguid:dxguid.obj
 0002:0000a404       _IID_IDirectMusicLoader8   00452404     dxguid:dxguid.obj
 0002:0000a414       _IID_IDirectMusicSegment2  00452414     dxguid:dxguid.obj
 0002:0000a424       _IID_IDirectMusicPerformance2 00452424     dxguid:dxguid.obj
 0002:0000a434       _IID_IDirectMusicBand      00452434     dxguid:dxguid.obj
 0002:0000a444       _IID_IDirectMusicComposer  00452444     dxguid:dxguid.obj
 0002:0000a454       _IID_IDirectMusicChordMap  00452454     dxguid:dxguid.obj
 0002:0000a464       _IID_IDirectMusicStyle     00452464     dxguid:dxguid.obj
 0002:0000a474       _IID_IDirectMusicGraph     00452474     dxguid:dxguid.obj
 0002:0000a484       _IID_IDirectMusicPerformance 00452484     dxguid:dxguid.obj
 0002:0000a494       _IID_IDirectMusicSegmentState 00452494     dxguid:dxguid.obj
 0002:0000a4a4       _IID_IDirectMusicSegment   004524a4     dxguid:dxguid.obj
 0002:0000a4b4       _IID_IDirectMusicObject    004524b4     dxguid:dxguid.obj
 0002:0000a4c4       _IID_IDirectMusicGetLoader 004524c4     dxguid:dxguid.obj
 0002:0000a4d4       _IID_IDirectMusicLoader    004524d4     dxguid:dxguid.obj
 0002:0000a4e4       _GUID_Buffer_Mono          004524e4     dxguid:dxguid.obj
 0002:0000a4f4       _GUID_Buffer_3D_Dry        004524f4     dxguid:dxguid.obj
 0002:0000a504       _GUID_Buffer_Stereo        00452504     dxguid:dxguid.obj
 0002:0000a514       _GUID_Buffer_EnvReverb     00452514     dxguid:dxguid.obj
 0002:0000a524       _GUID_Buffer_Reverb        00452524     dxguid:dxguid.obj
 0002:0000a534       _GUID_Synth_Default        00452534     dxguid:dxguid.obj
 0002:0000a544       _GUID_DefaultGMCollection  00452544     dxguid:dxguid.obj
 0002:0000a554       _GUID_PerfAutoDownload     00452554     dxguid:dxguid.obj
 0002:0000a564       _GUID_PerfMasterGrooveLevel 00452564     dxguid:dxguid.obj
 0002:0000a574       _GUID_PerfMasterVolume     00452574     dxguid:dxguid.obj
 0002:0000a584       _GUID_PerfMasterTempo      00452584     dxguid:dxguid.obj
 0002:0000a594       _GUID_UnloadFromAudioPath  00452594     dxguid:dxguid.obj
 0002:0000a5a4       _GUID_DownloadToAudioPath  004525a4     dxguid:dxguid.obj
 0002:0000a5b4       _GUID_Variations           004525b4     dxguid:dxguid.obj
 0002:0000a5c4       _GUID_SeedVariations       004525c4     dxguid:dxguid.obj
 0002:0000a5d4       _GUID_EnableTempo          004525d4     dxguid:dxguid.obj
 0002:0000a5e4       _GUID_DisableTempo         004525e4     dxguid:dxguid.obj
 0002:0000a5f4       _GUID_EnableTimeSig        004525f4     dxguid:dxguid.obj
 0002:0000a604       _GUID_DisableTimeSig       00452604     dxguid:dxguid.obj
 0002:0000a614       _GUID_StandardMIDIFile     00452614     dxguid:dxguid.obj
 0002:0000a624       _GUID_Clear_All_Bands      00452624     dxguid:dxguid.obj
 0002:0000a634       _GUID_Disable_Auto_Download 00452634     dxguid:dxguid.obj
 0002:0000a644       _GUID_Enable_Auto_Download 00452644     dxguid:dxguid.obj
 0002:0000a654       _GUID_ConnectToDLSCollection 00452654     dxguid:dxguid.obj
 0002:0000a664       _GUID_Unload               00452664     dxguid:dxguid.obj
 0002:0000a674       _GUID_Download             00452674     dxguid:dxguid.obj
 0002:0000a684       _GUID_MuteParam            00452684     dxguid:dxguid.obj
 0002:0000a694       _GUID_IDirectMusicChordMap 00452694     dxguid:dxguid.obj
 0002:0000a6a4       _GUID_IDirectMusicBand     004526a4     dxguid:dxguid.obj
 0002:0000a6b4       _GUID_BandParam            004526b4     dxguid:dxguid.obj
 0002:0000a6c4       _GUID_Play_Marker          004526c4     dxguid:dxguid.obj
 0002:0000a6d4       _GUID_Valid_Start_Time     004526d4     dxguid:dxguid.obj
 0002:0000a6e4       _GUID_TempoParam           004526e4     dxguid:dxguid.obj
 0002:0000a6f4       _GUID_TimeSignature        004526f4     dxguid:dxguid.obj
 0002:0000a704       _GUID_IDirectMusicStyle    00452704     dxguid:dxguid.obj
 0002:0000a714       _GUID_RhythmParam          00452714     dxguid:dxguid.obj
 0002:0000a724       _GUID_ChordParam           00452724     dxguid:dxguid.obj
 0002:0000a734       _GUID_CommandParamNext     00452734     dxguid:dxguid.obj
 0002:0000a744       _GUID_CommandParam2        00452744     dxguid:dxguid.obj
 0002:0000a754       _GUID_CommandParam         00452754     dxguid:dxguid.obj
 0002:0000a764       _GUID_NOTIFICATION_RECOMPOSE 00452764     dxguid:dxguid.obj
 0002:0000a774       _GUID_NOTIFICATION_COMMAND 00452774     dxguid:dxguid.obj
 0002:0000a784       _GUID_NOTIFICATION_CHORD   00452784     dxguid:dxguid.obj
 0002:0000a794       _GUID_NOTIFICATION_MEASUREANDBEAT 00452794     dxguid:dxguid.obj
 0002:0000a7a4       _GUID_NOTIFICATION_PERFORMANCE 004527a4     dxguid:dxguid.obj
 0002:0000a7b4       _GUID_NOTIFICATION_SEGMENT 004527b4     dxguid:dxguid.obj
 0002:0000a7c4       _GUID_DirectMusicAllTypes  004527c4     dxguid:dxguid.obj
 0002:0000a7d4       _CLSID_DirectMusicAudioPathConfig 004527d4     dxguid:dxguid.obj
 0002:0000a7e4       _CLSID_DirectSoundWave     004527e4     dxguid:dxguid.obj
 0002:0000a7f4       _CLSID_DirectMusicContainer 004527f4     dxguid:dxguid.obj
 0002:0000a804       _CLSID_DirectMusicScript   00452804     dxguid:dxguid.obj
 0002:0000a814       _CLSID_DirectMusicPatternTrack 00452814     dxguid:dxguid.obj
 0002:0000a824       _CLSID_DirectMusicBand     00452824     dxguid:dxguid.obj
 0002:0000a834       _CLSID_DirectMusicLoader   00452834     dxguid:dxguid.obj
 0002:0000a844       _CLSID_DirectMusicComposer 00452844     dxguid:dxguid.obj
 0002:0000a854       _CLSID_DirectMusicChordMap 00452854     dxguid:dxguid.obj
 0002:0000a864       _CLSID_DirectMusicStyle    00452864     dxguid:dxguid.obj
 0002:0000a874       _CLSID_DirectMusicGraph    00452874     dxguid:dxguid.obj
 0002:0000a884       _CLSID_DirectMusicSegmentState 00452884     dxguid:dxguid.obj
 0002:0000a894       _CLSID_DirectMusicSegment  00452894     dxguid:dxguid.obj
 0002:0000a8a4       _CLSID_DirectMusicPerformance 004528a4     dxguid:dxguid.obj
 0002:0000a8b4       _IID_IDirectMusicTrack8    004528b4     dxguid:dxguid.obj
 0002:0000a8c4       _IID_IDirectMusicTool8     004528c4     dxguid:dxguid.obj
 0002:0000a8d4       _IID_IDirectMusicTool      004528d4     dxguid:dxguid.obj
 0002:0000a8e4       _IID_IDirectMusicTrack     004528e4     dxguid:dxguid.obj
 0002:0000a8f4       _CLSID_DirectMusicWaveTrack 004528f4     dxguid:dxguid.obj
 0002:0000a904       _CLSID_DirectMusicParamControlTrack 00452904     dxguid:dxguid.obj
 0002:0000a914       _CLSID_DirectMusicLyricsTrack 00452914     dxguid:dxguid.obj
 0002:0000a924       _CLSID_DirectMusicSegmentTriggerTrack 00452924     dxguid:dxguid.obj
 0002:0000a934       _CLSID_DirectMusicMarkerTrack 00452934     dxguid:dxguid.obj
 0002:0000a944       _CLSID_DirectMusicScriptTrack 00452944     dxguid:dxguid.obj
 0002:0000a954       _CLSID_DirectMusicMuteTrack 00452954     dxguid:dxguid.obj
 0002:0000a964       _CLSID_DirectMusicChordMapTrack 00452964     dxguid:dxguid.obj
 0002:0000a974       _CLSID_DirectMusicBandTrack 00452974     dxguid:dxguid.obj
 0002:0000a984       _CLSID_DirectMusicSignPostTrack 00452984     dxguid:dxguid.obj
 0002:0000a994       _CLSID_DirectMusicMotifTrack 00452994     dxguid:dxguid.obj
 0002:0000a9a4       _CLSID_DirectMusicStyleTrack 004529a4     dxguid:dxguid.obj
 0002:0000a9b4       _CLSID_DirectMusicCommandTrack 004529b4     dxguid:dxguid.obj
 0002:0000a9c4       _CLSID_DirectMusicChordTrack 004529c4     dxguid:dxguid.obj
 0002:0000a9d4       _CLSID_DirectMusicTimeSigTrack 004529d4     dxguid:dxguid.obj
 0002:0000a9e4       _CLSID_DirectMusicSysExTrack 004529e4     dxguid:dxguid.obj
 0002:0000a9f4       _CLSID_DirectMusicSeqTrack 004529f4     dxguid:dxguid.obj
 0002:0000aa04       _CLSID_DirectMusicTempoTrack 00452a04     dxguid:dxguid.obj
 0002:0000aa14       _GUID_DMUS_PROP_Volume     00452a14     dxguid:dxguid.obj
 0002:0000aa24       _GUID_DMUS_PROP_LegacyCaps 00452a24     dxguid:dxguid.obj
 0002:0000aa34       _GUID_DMUS_PROP_Effects    00452a34     dxguid:dxguid.obj
 0002:0000aa44       _GUID_DMUS_PROP_WavesReverb 00452a44     dxguid:dxguid.obj
 0002:0000aa54       _GUID_DMUS_PROP_MemorySize 00452a54     dxguid:dxguid.obj
 0002:0000aa64       _GUID_DMUS_PROP_WritePeriod 00452a64     dxguid:dxguid.obj
 0002:0000aa74       _GUID_DMUS_PROP_WriteLatency 00452a74     dxguid:dxguid.obj
 0002:0000aa84       _GUID_DMUS_PROP_SamplePlaybackRate 00452a84     dxguid:dxguid.obj
 0002:0000aa94       _GUID_DMUS_PROP_SampleMemorySize 00452a94     dxguid:dxguid.obj
 0002:0000aaa4       _GUID_DMUS_PROP_SynthSink_WAVE 00452aa4     dxguid:dxguid.obj
 0002:0000aab4       _GUID_DMUS_PROP_SynthSink_DSOUND 00452ab4     dxguid:dxguid.obj
 0002:0000aac4       _GUID_DMUS_PROP_INSTRUMENT2 00452ac4     dxguid:dxguid.obj
 0002:0000aad4       _GUID_DMUS_PROP_DLS2       00452ad4     dxguid:dxguid.obj
 0002:0000aae4       _GUID_DMUS_PROP_DLS1       00452ae4     dxguid:dxguid.obj
 0002:0000aaf4       _GUID_DMUS_PROP_GS_Capable 00452af4     dxguid:dxguid.obj
 0002:0000ab04       _GUID_DMUS_PROP_XG_Capable 00452b04     dxguid:dxguid.obj
 0002:0000ab14       _GUID_DMUS_PROP_XG_Hardware 00452b14     dxguid:dxguid.obj
 0002:0000ab24       _GUID_DMUS_PROP_GS_Hardware 00452b24     dxguid:dxguid.obj
 0002:0000ab34       _GUID_DMUS_PROP_GM_Hardware 00452b34     dxguid:dxguid.obj
 0002:0000ab44       _IID_IDirectMusic8         00452b44     dxguid:dxguid.obj
 0002:0000ab54       _IID_IDirectMusic2         00452b54     dxguid:dxguid.obj
 0002:0000ab64       _IID_IDirectMusicDownloadedInstrument 00452b64     dxguid:dxguid.obj
 0002:0000ab74       _IID_IDirectMusicInstrument 00452b74     dxguid:dxguid.obj
 0002:0000ab84       _IID_IDirectMusicCollection 00452b84     dxguid:dxguid.obj
 0002:0000ab94       _IID_IDirectMusicDownload  00452b94     dxguid:dxguid.obj
 0002:0000aba4       _IID_IDirectMusicPortDownload 00452ba4     dxguid:dxguid.obj
 0002:0000abb4       _IID_IDirectMusicThru      00452bb4     dxguid:dxguid.obj
 0002:0000abc4       _IID_IDirectMusicPort      00452bc4     dxguid:dxguid.obj
 0002:0000abd4       _IID_IDirectMusicBuffer    00452bd4     dxguid:dxguid.obj
 0002:0000abe4       _IID_IDirectMusic          00452be4     dxguid:dxguid.obj
 0002:0000abf4       _CLSID_DirectMusicSynth    00452bf4     dxguid:dxguid.obj
 0002:0000ac04       _CLSID_DirectMusicCollection 00452c04     dxguid:dxguid.obj
 0002:0000ac14       _CLSID_DirectMusic         00452c14     dxguid:dxguid.obj
 0002:0000ac24       _IID_IDirectPlay8LobbyClient 00452c24     dxguid:dxguid.obj
 0002:0000ac34       _IID_IDirectPlay8LobbiedApplication 00452c34     dxguid:dxguid.obj
 0002:0000ac44       _CLSID_DirectPlay8LobbyClient 00452c44     dxguid:dxguid.obj
 0002:0000ac54       _CLSID_DirectPlay8LobbiedApplication 00452c54     dxguid:dxguid.obj
 0002:0000ac64       _CLSID_DP8SP_BLUETOOTH     00452c64     dxguid:dxguid.obj
 0002:0000ac74       _CLSID_DP8SP_TCPIP         00452c74     dxguid:dxguid.obj
 0002:0000ac84       _CLSID_DP8SP_SERIAL        00452c84     dxguid:dxguid.obj
 0002:0000ac94       _CLSID_DP8SP_MODEM         00452c94     dxguid:dxguid.obj
 0002:0000aca4       _CLSID_DP8SP_IPX           00452ca4     dxguid:dxguid.obj
 0002:0000acb4       _IID_IDirectPlay8NATResolver 00452cb4     dxguid:dxguid.obj
 0002:0000acc4       _IID_IDirectPlay8ThreadPool 00452cc4     dxguid:dxguid.obj
 0002:0000acd4       _IID_IDirectPlay8Peer      00452cd4     dxguid:dxguid.obj
 0002:0000ace4       _IID_IDirectPlay8Server    00452ce4     dxguid:dxguid.obj
 0002:0000acf4       _IID_IDirectPlay8Client    00452cf4     dxguid:dxguid.obj
 0002:0000ad04       _CLSID_DirectPlay8NATResolver 00452d04     dxguid:dxguid.obj
 0002:0000ad14       _CLSID_DirectPlay8ThreadPool 00452d14     dxguid:dxguid.obj
 0002:0000ad24       _CLSID_DirectPlay8Peer     00452d24     dxguid:dxguid.obj
 0002:0000ad34       _CLSID_DirectPlay8Server   00452d34     dxguid:dxguid.obj
 0002:0000ad44       _CLSID_DirectPlay8Client   00452d44     dxguid:dxguid.obj
 0002:0000ad54       _IID_IDirectPlay8AddressIP 00452d54     dxguid:dxguid.obj
 0002:0000ad64       _IID_IDirectPlay8Address   00452d64     dxguid:dxguid.obj
 0002:0000ad74       _CLSID_DirectPlay8Address  00452d74     dxguid:dxguid.obj
 0002:0000ad84       _DPVCTGUID_VR12            00452d84     dxguid:dxguid.obj
 0002:0000ad94       _DPVCTGUID_TRUESPEECH      00452d94     dxguid:dxguid.obj
 0002:0000ada4       _DPVCTGUID_SC06            00452da4     dxguid:dxguid.obj
 0002:0000adb4       _DPVCTGUID_SC03            00452db4     dxguid:dxguid.obj
 0002:0000adc4       _DPVCTGUID_NONE            00452dc4     dxguid:dxguid.obj
 0002:0000add4       _DPVCTGUID_GSM             00452dd4     dxguid:dxguid.obj
 0002:0000ade4       _DPVCTGUID_ADPCM           00452de4     dxguid:dxguid.obj
 0002:0000adf4       _IID_IDirectPlayVoiceTest  00452df4     dxguid:dxguid.obj
 0002:0000ae04       _IID_IDirectPlayVoiceServer 00452e04     dxguid:dxguid.obj
 0002:0000ae14       _IID_IDirectPlayVoiceClient 00452e14     dxguid:dxguid.obj
 0002:0000ae24       _CLSID_DirectPlayVoiceTest 00452e24     dxguid:dxguid.obj
 0002:0000ae34       _CLSID_DirectPlayVoiceServer 00452e34     dxguid:dxguid.obj
 0002:0000ae44       _CLSID_DirectPlayVoiceClient 00452e44     dxguid:dxguid.obj
 0002:0000ae54       _GUID_DSCFX_SYSTEM_NS      00452e54     dxguid:dxguid.obj
 0002:0000ae64       _GUID_DSCFX_MS_NS          00452e64     dxguid:dxguid.obj
 0002:0000ae74       _GUID_DSCFX_CLASS_NS       00452e74     dxguid:dxguid.obj
 0002:0000ae84       _GUID_DSCFX_SYSTEM_AEC     00452e84     dxguid:dxguid.obj
 0002:0000ae94       _GUID_DSCFX_MS_AEC         00452e94     dxguid:dxguid.obj
 0002:0000aea4       _GUID_DSCFX_CLASS_AEC      00452ea4     dxguid:dxguid.obj
 0002:0000aeb4       _GUID_DSFX_WAVES_REVERB    00452eb4     dxguid:dxguid.obj
 0002:0000aec4       _GUID_DSFX_STANDARD_I3DL2REVERB 00452ec4     dxguid:dxguid.obj
 0002:0000aed4       _GUID_DSFX_STANDARD_PARAMEQ 00452ed4     dxguid:dxguid.obj
 0002:0000aee4       _GUID_DSFX_STANDARD_COMPRESSOR 00452ee4     dxguid:dxguid.obj
 0002:0000aef4       _GUID_DSFX_STANDARD_DISTORTION 00452ef4     dxguid:dxguid.obj
 0002:0000af04       _GUID_DSFX_STANDARD_ECHO   00452f04     dxguid:dxguid.obj
 0002:0000af14       _GUID_DSFX_STANDARD_FLANGER 00452f14     dxguid:dxguid.obj
 0002:0000af24       _GUID_DSFX_STANDARD_CHORUS 00452f24     dxguid:dxguid.obj
 0002:0000af34       _GUID_DSFX_STANDARD_GARGLE 00452f34     dxguid:dxguid.obj
 0002:0000af44       _DS3DALG_HRTF_LIGHT        00452f44     dxguid:dxguid.obj
 0002:0000af54       _DS3DALG_HRTF_FULL         00452f54     dxguid:dxguid.obj
 0002:0000af64       _DS3DALG_NO_VIRTUALIZATION 00452f64     dxguid:dxguid.obj
 0002:0000af74       _IID_IDirectSoundFullDuplex 00452f74     dxguid:dxguid.obj
 0002:0000af84       _IID_IDirectSoundCaptureFXNoiseSuppress 00452f84     dxguid:dxguid.obj
 0002:0000af94       _IID_IDirectSoundCaptureFXAec 00452f94     dxguid:dxguid.obj
 0002:0000afa4       _IID_IDirectSoundFXWavesReverb 00452fa4     dxguid:dxguid.obj
 0002:0000afb4       _IID_IDirectSoundFXI3DL2Reverb 00452fb4     dxguid:dxguid.obj
 0002:0000afc4       _IID_IDirectSoundFXParamEq 00452fc4     dxguid:dxguid.obj
 0002:0000afd4       _IID_IDirectSoundFXCompressor 00452fd4     dxguid:dxguid.obj
 0002:0000afe4       _IID_IDirectSoundFXDistortion 00452fe4     dxguid:dxguid.obj
 0002:0000aff4       _IID_IDirectSoundFXEcho    00452ff4     dxguid:dxguid.obj
 0002:0000b004       _IID_IDirectSoundFXFlanger 00453004     dxguid:dxguid.obj
 0002:0000b014       _IID_IDirectSoundFXChorus  00453014     dxguid:dxguid.obj
 0002:0000b024       _IID_IDirectSoundFXGargle  00453024     dxguid:dxguid.obj
 0002:0000b034       _IID_IKsPropertySet        00453034     dxguid:dxguid.obj
 0002:0000b044       _IID_IDirectSoundNotify    00453044     dxguid:dxguid.obj
 0002:0000b054       _IID_IDirectSoundCaptureBuffer8 00453054     dxguid:dxguid.obj
 0002:0000b064       _IID_IDirectSoundCaptureBuffer 00453064     dxguid:dxguid.obj
 0002:0000b074       _IID_IDirectSoundCapture   00453074     dxguid:dxguid.obj
 0002:0000b084       _IID_IDirectSound3DBuffer  00453084     dxguid:dxguid.obj
 0002:0000b094       _IID_IDirectSound3DListener 00453094     dxguid:dxguid.obj
 0002:0000b0a4       _GUID_All_Objects          004530a4     dxguid:dxguid.obj
 0002:0000b0b4       _IID_IDirectSoundBuffer8   004530b4     dxguid:dxguid.obj
 0002:0000b0c4       _IID_IDirectSoundBuffer    004530c4     dxguid:dxguid.obj
 0002:0000b0d4       _IID_IDirectSound8         004530d4     dxguid:dxguid.obj
 0002:0000b0e4       _IID_IDirectSound          004530e4     dxguid:dxguid.obj
 0002:0000b0f4       _IID_IReferenceClock       004530f4     dxguid:dxguid.obj
 0002:0000b104       _DSDEVID_DefaultVoiceCapture 00453104     dxguid:dxguid.obj
 0002:0000b114       _DSDEVID_DefaultVoicePlayback 00453114     dxguid:dxguid.obj
 0002:0000b124       _DSDEVID_DefaultCapture    00453124     dxguid:dxguid.obj
 0002:0000b134       _DSDEVID_DefaultPlayback   00453134     dxguid:dxguid.obj
 0002:0000b144       _CLSID_DirectSoundFullDuplex 00453144     dxguid:dxguid.obj
 0002:0000b154       _CLSID_DirectSoundCapture8 00453154     dxguid:dxguid.obj
 0002:0000b164       _CLSID_DirectSoundCapture  00453164     dxguid:dxguid.obj
 0002:0000b174       _CLSID_DirectSound8        00453174     dxguid:dxguid.obj
 0002:0000b184       _CLSID_DirectSound         00453184     dxguid:dxguid.obj
 0002:0000b194       _DPAID_ComPort             00453194     dxguid:dxguid.obj
 0002:0000b1a4       _DPAID_INetPort            004531a4     dxguid:dxguid.obj
 0002:0000b1b4       _DPAID_INetW               004531b4     dxguid:dxguid.obj
 0002:0000b1c4       _DPAID_INet                004531c4     dxguid:dxguid.obj
 0002:0000b1d4       _DPAID_ModemW              004531d4     dxguid:dxguid.obj
 0002:0000b1e4       _DPAID_Modem               004531e4     dxguid:dxguid.obj
 0002:0000b1f4       _DPAID_PhoneW              004531f4     dxguid:dxguid.obj
 0002:0000b204       _DPAID_Phone               00453204     dxguid:dxguid.obj
 0002:0000b214       _DPAID_LobbyProvider       00453214     dxguid:dxguid.obj
 0002:0000b224       _DPAID_ServiceProvider     00453224     dxguid:dxguid.obj
 0002:0000b234       _DPAID_TotalSize           00453234     dxguid:dxguid.obj
 0002:0000b244       _DPLPROPERTY_PlayerScore   00453244     dxguid:dxguid.obj
 0002:0000b254       _DPLPROPERTY_PlayerGuid    00453254     dxguid:dxguid.obj
 0002:0000b264       _DPLPROPERTY_LobbyGuid     00453264     dxguid:dxguid.obj
 0002:0000b274       _DPLPROPERTY_MessagesSupported 00453274     dxguid:dxguid.obj
 0002:0000b284       _CLSID_DirectPlayLobby     00453284     dxguid:dxguid.obj
 0002:0000b294       _IID_IDirectPlayLobby3A    00453294     dxguid:dxguid.obj
 0002:0000b2a4       _IID_IDirectPlayLobby3     004532a4     dxguid:dxguid.obj
 0002:0000b2b4       _IID_IDirectPlayLobby2A    004532b4     dxguid:dxguid.obj
 0002:0000b2c4       _IID_IDirectPlayLobby2     004532c4     dxguid:dxguid.obj
 0002:0000b2d4       _IID_IDirectPlayLobbyA     004532d4     dxguid:dxguid.obj
 0002:0000b2e4       _IID_IDirectPlayLobby      004532e4     dxguid:dxguid.obj
 0002:0000b2f4       _IID_IDirectPlay           004532f4     dxguid:dxguid.obj
 0002:0000b304       _DPSPGUID_MODEM            00453304     dxguid:dxguid.obj
 0002:0000b314       _DPSPGUID_SERIAL           00453314     dxguid:dxguid.obj
 0002:0000b324       _DPSPGUID_TCPIP            00453324     dxguid:dxguid.obj
 0002:0000b334       _DPSPGUID_IPX              00453334     dxguid:dxguid.obj
 0002:0000b344       _CLSID_DirectPlay          00453344     dxguid:dxguid.obj
 0002:0000b354       _IID_IDirectPlay4A         00453354     dxguid:dxguid.obj
 0002:0000b364       _IID_IDirectPlay4          00453364     dxguid:dxguid.obj
 0002:0000b374       _IID_IDirectPlay3A         00453374     dxguid:dxguid.obj
 0002:0000b384       _IID_IDirectPlay3          00453384     dxguid:dxguid.obj
 0002:0000b394       _IID_IDirectPlay2A         00453394     dxguid:dxguid.obj
 0002:0000b3a4       _IID_IDirectPlay2          004533a4     dxguid:dxguid.obj
 0002:0000b3b4       _GUID_HIDClass             004533b4     dxguid:dxguid.obj
 0002:0000b3c4       _GUID_MouseClass           004533c4     dxguid:dxguid.obj
 0002:0000b3d4       _GUID_MediaClass           004533d4     dxguid:dxguid.obj
 0002:0000b3e4       _GUID_KeyboardClass        004533e4     dxguid:dxguid.obj
 0002:0000b3f4       _IID_IDirectInputJoyConfig8 004533f4     dxguid:dxguid.obj
 0002:0000b404       _IID_IDirectInputPIDDriver 00453404     dxguid:dxguid.obj
 0002:0000b414       _IID_IDirectInputJoyConfig 00453414     dxguid:dxguid.obj
 0002:0000b424       _IID_IDirectInputEffectDriver 00453424     dxguid:dxguid.obj
 0002:0000b434       _GUID_CustomForce          00453434     dxguid:dxguid.obj
 0002:0000b444       _GUID_Friction             00453444     dxguid:dxguid.obj
 0002:0000b454       _GUID_Inertia              00453454     dxguid:dxguid.obj
 0002:0000b464       _GUID_Damper               00453464     dxguid:dxguid.obj
 0002:0000b474       _GUID_Spring               00453474     dxguid:dxguid.obj
 0002:0000b484       _GUID_SawtoothDown         00453484     dxguid:dxguid.obj
 0002:0000b494       _GUID_SawtoothUp           00453494     dxguid:dxguid.obj
 0002:0000b4a4       _GUID_Triangle             004534a4     dxguid:dxguid.obj
 0002:0000b4b4       _GUID_Sine                 004534b4     dxguid:dxguid.obj
 0002:0000b4c4       _GUID_Square               004534c4     dxguid:dxguid.obj
 0002:0000b4d4       _GUID_RampForce            004534d4     dxguid:dxguid.obj
 0002:0000b4e4       _GUID_ConstantForce        004534e4     dxguid:dxguid.obj
 0002:0000b4f4       _GUID_SysKeyboardEm2       004534f4     dxguid:dxguid.obj
 0002:0000b504       _GUID_SysKeyboardEm        00453504     dxguid:dxguid.obj
 0002:0000b514       _GUID_SysMouseEm2          00453514     dxguid:dxguid.obj
 0002:0000b524       _GUID_SysMouseEm           00453524     dxguid:dxguid.obj
 0002:0000b534       _GUID_Joystick             00453534     dxguid:dxguid.obj
 0002:0000b544       _GUID_SysKeyboard          00453544     dxguid:dxguid.obj
 0002:0000b554       _GUID_SysMouse             00453554     dxguid:dxguid.obj
 0002:0000b564       _GUID_Unknown              00453564     dxguid:dxguid.obj
 0002:0000b574       _GUID_POV                  00453574     dxguid:dxguid.obj
 0002:0000b584       _GUID_Key                  00453584     dxguid:dxguid.obj
 0002:0000b594       _GUID_Button               00453594     dxguid:dxguid.obj
 0002:0000b5a4       _GUID_Slider               004535a4     dxguid:dxguid.obj
 0002:0000b5b4       _GUID_RzAxis               004535b4     dxguid:dxguid.obj
 0002:0000b5c4       _GUID_RyAxis               004535c4     dxguid:dxguid.obj
 0002:0000b5d4       _GUID_RxAxis               004535d4     dxguid:dxguid.obj
 0002:0000b5e4       _GUID_ZAxis                004535e4     dxguid:dxguid.obj
 0002:0000b5f4       _GUID_YAxis                004535f4     dxguid:dxguid.obj
 0002:0000b604       _GUID_XAxis                00453604     dxguid:dxguid.obj
 0002:0000b614       _IID_IDirectInputEffect    00453614     dxguid:dxguid.obj
 0002:0000b624       _IID_IDirectInputDevice8W  00453624     dxguid:dxguid.obj
 0002:0000b634       _IID_IDirectInputDevice8A  00453634     dxguid:dxguid.obj
 0002:0000b644       _IID_IDirectInputDevice7W  00453644     dxguid:dxguid.obj
 0002:0000b654       _IID_IDirectInputDevice7A  00453654     dxguid:dxguid.obj
 0002:0000b664       _IID_IDirectInputDevice2W  00453664     dxguid:dxguid.obj
 0002:0000b674       _IID_IDirectInputDevice2A  00453674     dxguid:dxguid.obj
 0002:0000b684       _IID_IDirectInputDeviceW   00453684     dxguid:dxguid.obj
 0002:0000b694       _IID_IDirectInputDeviceA   00453694     dxguid:dxguid.obj
 0002:0000b6a4       _IID_IDirectInput8W        004536a4     dxguid:dxguid.obj
 0002:0000b6b4       _IID_IDirectInput8A        004536b4     dxguid:dxguid.obj
 0002:0000b6c4       _IID_IDirectInput7W        004536c4     dxguid:dxguid.obj
 0002:0000b6d4       _IID_IDirectInput7A        004536d4     dxguid:dxguid.obj
 0002:0000b6e4       _IID_IDirectInput2W        004536e4     dxguid:dxguid.obj
 0002:0000b6f4       _IID_IDirectInput2A        004536f4     dxguid:dxguid.obj
 0002:0000b704       _IID_IDirectInputW         00453704     dxguid:dxguid.obj
 0002:0000b714       _IID_IDirectInputA         00453714     dxguid:dxguid.obj
 0002:0000b724       _CLSID_DirectInputDevice8  00453724     dxguid:dxguid.obj
 0002:0000b734       _CLSID_DirectInput8        00453734     dxguid:dxguid.obj
 0002:0000b744       _CLSID_DirectInputDevice   00453744     dxguid:dxguid.obj
 0002:0000b754       _CLSID_DirectInput         00453754     dxguid:dxguid.obj
 0002:0000b764       _TID_DXFILEHeader          00453764     dxguid:dxguid.obj
 0002:0000b774       _IID_IDirectXFileBinary    00453774     dxguid:dxguid.obj
 0002:0000b784       _IID_IDirectXFileDataReference 00453784     dxguid:dxguid.obj
 0002:0000b794       _IID_IDirectXFileData      00453794     dxguid:dxguid.obj
 0002:0000b7a4       _IID_IDirectXFileObject    004537a4     dxguid:dxguid.obj
 0002:0000b7b4       _IID_IDirectXFileSaveObject 004537b4     dxguid:dxguid.obj
 0002:0000b7c4       _IID_IDirectXFileEnumObject 004537c4     dxguid:dxguid.obj
 0002:0000b7d4       _IID_IDirectXFile          004537d4     dxguid:dxguid.obj
 0002:0000b7e4       _CLSID_CDirectXFile        004537e4     dxguid:dxguid.obj
 0002:0000b7f4       _TID_D3DRMRightHanded      004537f4     dxguid:dxguid.obj
 0002:0000b804       _TID_D3DRMPropertyBag      00453804     dxguid:dxguid.obj
 0002:0000b814       _TID_D3DRMStringProperty   00453814     dxguid:dxguid.obj
 0002:0000b824       _TID_D3DRMExternalVisual   00453824     dxguid:dxguid.obj
 0002:0000b834       _TID_D3DRMProgressiveMesh  00453834     dxguid:dxguid.obj
 0002:0000b844       _TID_D3DRMUrl              00453844     dxguid:dxguid.obj
 0002:0000b854       _TID_D3DRMInlineData       00453854     dxguid:dxguid.obj
 0002:0000b864       _TID_D3DRMLightAttenuation 00453864     dxguid:dxguid.obj
 0002:0000b874       _TID_D3DRMLightPenumbra    00453874     dxguid:dxguid.obj
 0002:0000b884       _TID_D3DRMLightRange       00453884     dxguid:dxguid.obj
 0002:0000b894       _TID_D3DRMLightUmbra       00453894     dxguid:dxguid.obj
 0002:0000b8a4       _TID_D3DRMAppData          004538a4     dxguid:dxguid.obj
 0002:0000b8b4       _TID_D3DRMCamera           004538b4     dxguid:dxguid.obj
 0002:0000b8c4       _TID_D3DRMLight            004538c4     dxguid:dxguid.obj
 0002:0000b8d4       _TID_D3DRMFrameRotation    004538d4     dxguid:dxguid.obj
 0002:0000b8e4       _TID_D3DRMFrameVelocity    004538e4     dxguid:dxguid.obj
 0002:0000b8f4       _TID_D3DRMFramePosition    004538f4     dxguid:dxguid.obj
 0002:0000b904       _TID_D3DRMAnimationOptions 00453904     dxguid:dxguid.obj
 0002:0000b914       _TID_D3DRMTimedFloatKeys   00453914     dxguid:dxguid.obj
 0002:0000b924       _TID_D3DRMBoolean2d        00453924     dxguid:dxguid.obj
 0002:0000b934       _TID_D3DRMMeshFaceWraps    00453934     dxguid:dxguid.obj
 0002:0000b944       _TID_D3DRMBoolean          00453944     dxguid:dxguid.obj
 0002:0000b954       _TID_D3DRMMaterialWrap     00453954     dxguid:dxguid.obj
 0002:0000b964       _TID_D3DRMMeshVertexColors 00453964     dxguid:dxguid.obj
 0002:0000b974       _TID_D3DRMIndexedColor     00453974     dxguid:dxguid.obj
 0002:0000b984       _TID_D3DRMTextureReference 00453984     dxguid:dxguid.obj
 0002:0000b994       _TID_D3DRMTextureFilename  00453994     dxguid:dxguid.obj
 0002:0000b9a4       _TID_D3DRMGuid             004539a4     dxguid:dxguid.obj
 0002:0000b9b4       _TID_D3DRMColorRGB         004539b4     dxguid:dxguid.obj
 0002:0000b9c4       _TID_D3DRMColorRGBA        004539c4     dxguid:dxguid.obj
 0002:0000b9d4       _TID_D3DRMMaterialPower    004539d4     dxguid:dxguid.obj
 0002:0000b9e4       _TID_D3DRMMaterialEmissiveColor 004539e4     dxguid:dxguid.obj
 0002:0000b9f4       _TID_D3DRMMaterialSpecularColor 004539f4     dxguid:dxguid.obj
 0002:0000ba04       _TID_D3DRMMaterialDiffuseColor 00453a04     dxguid:dxguid.obj
 0002:0000ba14       _TID_D3DRMMaterialAmbientColor 00453a14     dxguid:dxguid.obj
 0002:0000ba24       _TID_D3DRMFloatKeys        00453a24     dxguid:dxguid.obj
 0002:0000ba34       _TID_D3DRMAnimationKey     00453a34     dxguid:dxguid.obj
 0002:0000ba44       _TID_D3DRMAnimationSet     00453a44     dxguid:dxguid.obj
 0002:0000ba54       _TID_D3DRMAnimation        00453a54     dxguid:dxguid.obj
 0002:0000ba64       _TID_D3DRMMatrix4x4        00453a64     dxguid:dxguid.obj
 0002:0000ba74       _TID_D3DRMCoords2d         00453a74     dxguid:dxguid.obj
 0002:0000ba84       _TID_D3DRMMeshNormals      00453a84     dxguid:dxguid.obj
 0002:0000ba94       _TID_D3DRMMeshTextureCoords 00453a94     dxguid:dxguid.obj
 0002:0000baa4       _TID_D3DRMMeshMaterialList 00453aa4     dxguid:dxguid.obj
 0002:0000bab4       _TID_D3DRMFrameTransformMatrix 00453ab4     dxguid:dxguid.obj
 0002:0000bac4       _TID_D3DRMFrame            00453ac4     dxguid:dxguid.obj
 0002:0000bad4       _TID_D3DRMMaterialArray    00453ad4     dxguid:dxguid.obj
 0002:0000bae4       _TID_D3DRMMaterial         00453ae4     dxguid:dxguid.obj
 0002:0000baf4       _TID_D3DRMMeshFace         00453af4     dxguid:dxguid.obj
 0002:0000bb04       _TID_D3DRMVector           00453b04     dxguid:dxguid.obj
 0002:0000bb14       _TID_D3DRMMesh             00453b14     dxguid:dxguid.obj
 0002:0000bb24       _TID_D3DRMInfo             00453b24     dxguid:dxguid.obj
 0002:0000bb34       _IID_IDirect3DRMWinDevice  00453b34     dxguid:dxguid.obj
 0002:0000bb44       _CLSID_CDirect3DRM         00453b44     dxguid:dxguid.obj
 0002:0000bb54       _IID_IDirect3DRM3          00453b54     dxguid:dxguid.obj
 0002:0000bb64       _IID_IDirect3DRM2          00453b64     dxguid:dxguid.obj
 0002:0000bb74       _IID_IDirect3DRM           00453b74     dxguid:dxguid.obj
 0002:0000bb84       _IID_IDirect3DRMClippedVisual 00453b84     dxguid:dxguid.obj
 0002:0000bb94       _IID_IDirect3DRMPicked2Array 00453b94     dxguid:dxguid.obj
 0002:0000bba4       _IID_IDirect3DRMProgressiveMesh 00453ba4     dxguid:dxguid.obj
 0002:0000bbb4       _IID_IDirect3DRMInterpolator 00453bb4     dxguid:dxguid.obj
 0002:0000bbc4       _IID_IDirect3DRMShadow2    00453bc4     dxguid:dxguid.obj
 0002:0000bbd4       _IID_IDirect3DRMShadow     00453bd4     dxguid:dxguid.obj
 0002:0000bbe4       _IID_IDirect3DRMUserVisual 00453be4     dxguid:dxguid.obj
 0002:0000bbf4       _IID_IDirect3DRMAnimationArray 00453bf4     dxguid:dxguid.obj
 0002:0000bc04       _IID_IDirect3DRMFaceArray  00453c04     dxguid:dxguid.obj
 0002:0000bc14       _IID_IDirect3DRMPickedArray 00453c14     dxguid:dxguid.obj
 0002:0000bc24       _IID_IDirect3DRMLightArray 00453c24     dxguid:dxguid.obj
 0002:0000bc34       _IID_IDirect3DRMVisualArray 00453c34     dxguid:dxguid.obj
 0002:0000bc44       _IID_IDirect3DRMFrameArray 00453c44     dxguid:dxguid.obj
 0002:0000bc54       _IID_IDirect3DRMViewportArray 00453c54     dxguid:dxguid.obj
 0002:0000bc64       _IID_IDirect3DRMDeviceArray 00453c64     dxguid:dxguid.obj
 0002:0000bc74       _IID_IDirect3DRMObjectArray 00453c74     dxguid:dxguid.obj
 0002:0000bc84       _IID_IDirect3DRMAnimationSet2 00453c84     dxguid:dxguid.obj
 0002:0000bc94       _IID_IDirect3DRMAnimationSet 00453c94     dxguid:dxguid.obj
 0002:0000bca4       _IID_IDirect3DRMAnimation2 00453ca4     dxguid:dxguid.obj
 0002:0000bcb4       _IID_IDirect3DRMAnimation  00453cb4     dxguid:dxguid.obj
 0002:0000bcc4       _IID_IDirect3DRMMaterial2  00453cc4     dxguid:dxguid.obj
 0002:0000bcd4       _IID_IDirect3DRMMaterial   00453cd4     dxguid:dxguid.obj
 0002:0000bce4       _IID_IDirect3DRMWrap       00453ce4     dxguid:dxguid.obj
 0002:0000bcf4       _IID_IDirect3DRMTexture3   00453cf4     dxguid:dxguid.obj
 0002:0000bd04       _IID_IDirect3DRMTexture2   00453d04     dxguid:dxguid.obj
 0002:0000bd14       _IID_IDirect3DRMTexture    00453d14     dxguid:dxguid.obj
 0002:0000bd24       _IID_IDirect3DRMLight      00453d24     dxguid:dxguid.obj
 0002:0000bd34       _IID_IDirect3DRMFace2      00453d34     dxguid:dxguid.obj
 0002:0000bd44       _IID_IDirect3DRMFace       00453d44     dxguid:dxguid.obj
 0002:0000bd54       _IID_IDirect3DRMMeshBuilder3 00453d54     dxguid:dxguid.obj
 0002:0000bd64       _IID_IDirect3DRMMeshBuilder2 00453d64     dxguid:dxguid.obj
 0002:0000bd74       _IID_IDirect3DRMMeshBuilder 00453d74     dxguid:dxguid.obj
 0002:0000bd84       _IID_IDirect3DRMMesh       00453d84     dxguid:dxguid.obj
 0002:0000bd94       _IID_IDirect3DRMVisual     00453d94     dxguid:dxguid.obj
 0002:0000bda4       _IID_IDirect3DRMFrame3     00453da4     dxguid:dxguid.obj
 0002:0000bdb4       _IID_IDirect3DRMFrame2     00453db4     dxguid:dxguid.obj
 0002:0000bdc4       _IID_IDirect3DRMFrame      00453dc4     dxguid:dxguid.obj
 0002:0000bdd4       _IID_IDirect3DRMViewport2  00453dd4     dxguid:dxguid.obj
 0002:0000bde4       _IID_IDirect3DRMViewport   00453de4     dxguid:dxguid.obj
 0002:0000bdf4       _IID_IDirect3DRMDevice3    00453df4     dxguid:dxguid.obj
 0002:0000be04       _IID_IDirect3DRMDevice2    00453e04     dxguid:dxguid.obj
 0002:0000be14       _IID_IDirect3DRMDevice     00453e14     dxguid:dxguid.obj
 0002:0000be24       _IID_IDirect3DRMObject2    00453e24     dxguid:dxguid.obj
 0002:0000be34       _IID_IDirect3DRMObject     00453e34     dxguid:dxguid.obj
 0002:0000be44       _CLSID_CDirect3DRMClippedVisual 00453e44     dxguid:dxguid.obj
 0002:0000be54       _CLSID_CDirect3DRMProgressiveMesh 00453e54     dxguid:dxguid.obj
 0002:0000be64       _CLSID_CDirect3DRMTextureInterpolator 00453e64     dxguid:dxguid.obj
 0002:0000be74       _CLSID_CDirect3DRMMaterialInterpolator 00453e74     dxguid:dxguid.obj
 0002:0000be84       _CLSID_CDirect3DRMLightInterpolator 00453e84     dxguid:dxguid.obj
 0002:0000be94       _CLSID_CDirect3DRMMeshInterpolator 00453e94     dxguid:dxguid.obj
 0002:0000bea4       _CLSID_CDirect3DRMFrameInterpolator 00453ea4     dxguid:dxguid.obj
 0002:0000beb4       _CLSID_CDirect3DRMViewportInterpolator 00453eb4     dxguid:dxguid.obj
 0002:0000bec4       _CLSID_CDirect3DRMShadow   00453ec4     dxguid:dxguid.obj
 0002:0000bed4       _CLSID_CDirect3DRMUserVisual 00453ed4     dxguid:dxguid.obj
 0002:0000bee4       _CLSID_CDirect3DRMAnimationSet 00453ee4     dxguid:dxguid.obj
 0002:0000bef4       _CLSID_CDirect3DRMAnimation 00453ef4     dxguid:dxguid.obj
 0002:0000bf04       _CLSID_CDirect3DRMMaterial 00453f04     dxguid:dxguid.obj
 0002:0000bf14       _CLSID_CDirect3DRMWrap     00453f14     dxguid:dxguid.obj
 0002:0000bf24       _CLSID_CDirect3DRMTexture  00453f24     dxguid:dxguid.obj
 0002:0000bf34       _CLSID_CDirect3DRMLight    00453f34     dxguid:dxguid.obj
 0002:0000bf44       _CLSID_CDirect3DRMFace     00453f44     dxguid:dxguid.obj
 0002:0000bf54       _CLSID_CDirect3DRMMeshBuilder 00453f54     dxguid:dxguid.obj
 0002:0000bf64       _CLSID_CDirect3DRMMesh     00453f64     dxguid:dxguid.obj
 0002:0000bf74       _CLSID_CDirect3DRMFrame    00453f74     dxguid:dxguid.obj
 0002:0000bf84       _CLSID_CDirect3DRMViewport 00453f84     dxguid:dxguid.obj
 0002:0000bf94       _CLSID_CDirect3DRMDevice   00453f94     dxguid:dxguid.obj
 0002:0000bfa4       _IID_IDirect3DSwapChain8   00453fa4     dxguid:dxguid.obj
 0002:0000bfb4       _IID_IDirect3DVolume8      00453fb4     dxguid:dxguid.obj
 0002:0000bfc4       _IID_IDirect3DSurface8     00453fc4     dxguid:dxguid.obj
 0002:0000bfd4       _IID_IDirect3DIndexBuffer8 00453fd4     dxguid:dxguid.obj
 0002:0000bfe4       _IID_IDirect3DVertexBuffer8 00453fe4     dxguid:dxguid.obj
 0002:0000bff4       _IID_IDirect3DVolumeTexture8 00453ff4     dxguid:dxguid.obj
 0002:0000c004       _IID_IDirect3DCubeTexture8 00454004     dxguid:dxguid.obj
 0002:0000c014       _IID_IDirect3DTexture8     00454014     dxguid:dxguid.obj
 0002:0000c024       _IID_IDirect3DBaseTexture8 00454024     dxguid:dxguid.obj
 0002:0000c034       _IID_IDirect3DResource8    00454034     dxguid:dxguid.obj
 0002:0000c044       _IID_IDirect3DDevice8      00454044     dxguid:dxguid.obj
 0002:0000c054       _IID_IDirect3D8            00454054     dxguid:dxguid.obj
 0002:0000c064       _IID_IDirect3DVertexBuffer7 00454064     dxguid:dxguid.obj
 0002:0000c074       _IID_IDirect3DVertexBuffer 00454074     dxguid:dxguid.obj
 0002:0000c084       _IID_IDirect3DViewport3    00454084     dxguid:dxguid.obj
 0002:0000c094       _IID_IDirect3DViewport2    00454094     dxguid:dxguid.obj
 0002:0000c0a4       _IID_IDirect3DViewport     004540a4     dxguid:dxguid.obj
 0002:0000c0b4       _IID_IDirect3DExecuteBuffer 004540b4     dxguid:dxguid.obj
 0002:0000c0c4       _IID_IDirect3DMaterial3    004540c4     dxguid:dxguid.obj
 0002:0000c0d4       _IID_IDirect3DMaterial2    004540d4     dxguid:dxguid.obj
 0002:0000c0e4       _IID_IDirect3DMaterial     004540e4     dxguid:dxguid.obj
 0002:0000c0f4       _IID_IDirect3DLight        004540f4     dxguid:dxguid.obj
 0002:0000c104       _IID_IDirect3DTexture2     00454104     dxguid:dxguid.obj
 0002:0000c114       _IID_IDirect3DTexture      00454114     dxguid:dxguid.obj
 0002:0000c124       _IID_IDirect3DDevice7      00454124     dxguid:dxguid.obj
 0002:0000c134       _IID_IDirect3DDevice3      00454134     dxguid:dxguid.obj
 0002:0000c144       _IID_IDirect3DDevice2      00454144     dxguid:dxguid.obj
 0002:0000c154       _IID_IDirect3DDevice       00454154     dxguid:dxguid.obj
 0002:0000c164       _IID_IDirect3DTnLHalDevice 00454164     dxguid:dxguid.obj
 0002:0000c174       _IID_IDirect3DNullDevice   00454174     dxguid:dxguid.obj
 0002:0000c184       _IID_IDirect3DRefDevice    00454184     dxguid:dxguid.obj
 0002:0000c194       _IID_IDirect3DMMXDevice    00454194     dxguid:dxguid.obj
 0002:0000c1a4       _IID_IDirect3DHALDevice    004541a4     dxguid:dxguid.obj
 0002:0000c1b4       _IID_IDirect3DRGBDevice    004541b4     dxguid:dxguid.obj
 0002:0000c1c4       _IID_IDirect3DRampDevice   004541c4     dxguid:dxguid.obj
 0002:0000c1d4       _IID_IDirect3D7            004541d4     dxguid:dxguid.obj
 0002:0000c1e4       _IID_IDirect3D3            004541e4     dxguid:dxguid.obj
 0002:0000c1f4       _IID_IDirect3D2            004541f4     dxguid:dxguid.obj
 0002:0000c204       _IID_IDirect3D             00454204     dxguid:dxguid.obj
 0002:0000c214       _DDVPTYPE_PHILIPS          00454214     dxguid:dxguid.obj
 0002:0000c224       _DDVPTYPE_BROOKTREE        00454224     dxguid:dxguid.obj
 0002:0000c234       _DDVPTYPE_CCIR656          00454234     dxguid:dxguid.obj
 0002:0000c244       _DDVPTYPE_E_HREFL_VREFL    00454244     dxguid:dxguid.obj
 0002:0000c254       _DDVPTYPE_E_HREFL_VREFH    00454254     dxguid:dxguid.obj
 0002:0000c264       _DDVPTYPE_E_HREFH_VREFL    00454264     dxguid:dxguid.obj
 0002:0000c274       _DDVPTYPE_E_HREFH_VREFH    00454274     dxguid:dxguid.obj
 0002:0000c284       _IID_IDirectDrawVideoPortNotify 00454284     dxguid:dxguid.obj
 0002:0000c294       _IID_IDirectDrawVideoPort  00454294     dxguid:dxguid.obj
 0002:0000c2a4       _IID_IDDVideoPortContainer 004542a4     dxguid:dxguid.obj
 0002:0000c2b4       _IID_IXACTEngine           004542b4     dxguid:dxguid.obj
 0002:0000c2c4       _CLSID_XACTDebugEngine     004542c4     dxguid:dxguid.obj
 0002:0000c2d4       _CLSID_XACTAuditionEngine  004542d4     dxguid:dxguid.obj
 0002:0000c2e4       _CLSID_XACTEngine          004542e4     dxguid:dxguid.obj
 0002:0000c2f4       _GUID_DDMoreCaps           004542f4     dxguid:dxguid.obj
 0002:0000c304       _GUID_Miscellaneous2Callbacks 00454304     dxguid:dxguid.obj
 0002:0000c314       _GUID_NTCallbacks          00454314     dxguid:dxguid.obj
 0002:0000c324       _GUID_MotionCompCallbacks  00454324     dxguid:dxguid.obj
 0002:0000c334       _GUID_D3DParseUnknownCommandCallback 00454334     dxguid:dxguid.obj
 0002:0000c344       _GUID_UserModeDriverPassword 00454344     dxguid:dxguid.obj
 0002:0000c354       _GUID_UserModeDriverInfo   00454354     dxguid:dxguid.obj
 0002:0000c364       _GUID_OptSurfaceUmodeInfo  00454364     dxguid:dxguid.obj
 0002:0000c374       _GUID_OptSurfaceKmodeInfo  00454374     dxguid:dxguid.obj
 0002:0000c384       _GUID_DDStereoMode         00454384     dxguid:dxguid.obj
 0002:0000c394       _GUID_DDMoreSurfaceCaps    00454394     dxguid:dxguid.obj
 0002:0000c3a4       _GUID_ZPixelFormats        004543a4     dxguid:dxguid.obj
 0002:0000c3b4       _GUID_D3DExtendedCaps      004543b4     dxguid:dxguid.obj
 0002:0000c3c4       _GUID_KernelCaps           004543c4     dxguid:dxguid.obj
 0002:0000c3d4       _GUID_KernelCallbacks      004543d4     dxguid:dxguid.obj
 0002:0000c3e4       _GUID_NonLocalVidMemCaps   004543e4     dxguid:dxguid.obj
 0002:0000c3f4       _GUID_D3DCallbacks3        004543f4     dxguid:dxguid.obj
 0002:0000c404       _GUID_D3DCallbacks2        00454404     dxguid:dxguid.obj
 0002:0000c414       _GUID_VideoPortCaps        00454414     dxguid:dxguid.obj
 0002:0000c424       _GUID_ColorControlCallbacks 00454424     dxguid:dxguid.obj
 0002:0000c434       _GUID_VideoPortCallbacks   00454434     dxguid:dxguid.obj
 0002:0000c444       _GUID_MiscellaneousCallbacks 00454444     dxguid:dxguid.obj
 0002:0000c454       _IID_IDirectDrawGammaControl 00454454     dxguid:dxguid.obj
 0002:0000c464       _IID_IDirectDrawColorControl 00454464     dxguid:dxguid.obj
 0002:0000c474       _IID_IDirectDrawClipper    00454474     dxguid:dxguid.obj
 0002:0000c484       _IID_IDirectDrawPalette    00454484     dxguid:dxguid.obj
 0002:0000c494       _IID_IDirectDrawPalette2   00454494     dxguid:dxguid.obj
 0002:0000c4a4       _IID_IDirectDrawOptSurface 004544a4     dxguid:dxguid.obj
 0002:0000c4b4       _GUID_DirectDrawPaletteStream 004544b4     dxguid:dxguid.obj
 0002:0000c4c4       _GUID_DirectDrawSurfaceStream 004544c4     dxguid:dxguid.obj
 0002:0000c4d4       _IID_IDirectDrawFactory2   004544d4     dxguid:dxguid.obj
 0002:0000c4e4       _CLSID_DirectDrawFactory2  004544e4     dxguid:dxguid.obj
 0002:0000c4f4       _IID_IDirectDrawSurfaceNew 004544f4     dxguid:dxguid.obj
 0002:0000c504       _IID_IDirectDrawSurface7   00454504     dxguid:dxguid.obj
 0002:0000c514       _IID_IDirectDrawSurface4   00454514     dxguid:dxguid.obj
 0002:0000c524       _IID_IDirectDrawSurface3   00454524     dxguid:dxguid.obj
 0002:0000c534       _IID_IDirectDrawSurface2   00454534     dxguid:dxguid.obj
 0002:0000c544       _IID_IDirectDrawSurface    00454544     dxguid:dxguid.obj
 0002:0000c554       _IID_IDirectDraw7          00454554     dxguid:dxguid.obj
 0002:0000c564       _IID_IDirectDraw4          00454564     dxguid:dxguid.obj
 0002:0000c574       _IID_IDirectDraw2          00454574     dxguid:dxguid.obj
 0002:0000c584       _IID_IDirectDraw           00454584     dxguid:dxguid.obj
 0002:0000c594       _CLSID_DirectDrawClipper   00454594     dxguid:dxguid.obj
 0002:0000c5a4       _CLSID_DirectDraw7         004545a4     dxguid:dxguid.obj
 0002:0000c5b4       _CLSID_DirectDraw          004545b4     dxguid:dxguid.obj
 0002:0000c5c4       ??_C@_0BA@JFNIOLAK@string?5too?5long?$AA@ 004545c4     libcpmtd:string.obj
 0002:0000c5d8       ??_7length_error@std@@6B@  004545d8     libcpmtd:string.obj
 0002:0000c5e4       ??_7logic_error@std@@6B@   004545e4     libcpmtd:string.obj
 0002:0000c5ec       ??_C@_0BI@CFPLBAOH@invalid?5string?5position?$AA@ 004545ec     libcpmtd:string.obj
 0002:0000c608       ??_7out_of_range@std@@6B@  00454608     libcpmtd:string.obj
 0002:0000c610       __load_config_used         00454610     LIBCMTD:loadcfg.obj
 0002:0000c6c8       ??_R1A@?0A@A@type_info@@8  004546c8     LIBCMTD:typinfo.obj
 0002:0000c6e0       ??_R2type_info@@8          004546e0     LIBCMTD:typinfo.obj
 0002:0000c6e8       ??_R3type_info@@8          004546e8     LIBCMTD:typinfo.obj
 0002:0000c6f8       ??_R4type_info@@6B@        004546f8     LIBCMTD:typinfo.obj
 0002:0000c70c       ??_R1A@?0A@A@exception@@8  0045470c     LIBCMTD:stdexcpt.obj
 0002:0000c724       ??_R2exception@@8          00454724     LIBCMTD:stdexcpt.obj
 0002:0000c72c       ??_R3exception@@8          0045472c     LIBCMTD:stdexcpt.obj
 0002:0000c73c       ??_R4exception@@6B@        0045473c     LIBCMTD:stdexcpt.obj
 0002:0000c750       ??_R1A@?0A@A@bad_cast@@8   00454750     LIBCMTD:stdexcpt.obj
 0002:0000c768       ??_R2bad_cast@@8           00454768     LIBCMTD:stdexcpt.obj
 0002:0000c774       ??_R3bad_cast@@8           00454774     LIBCMTD:stdexcpt.obj
 0002:0000c784       ??_R4bad_cast@@6B@         00454784     LIBCMTD:stdexcpt.obj
 0002:0000c798       ??_R1A@?0A@A@bad_typeid@@8 00454798     LIBCMTD:stdexcpt.obj
 0002:0000c7b0       ??_R2bad_typeid@@8         004547b0     LIBCMTD:stdexcpt.obj
 0002:0000c7bc       ??_R3bad_typeid@@8         004547bc     LIBCMTD:stdexcpt.obj
 0002:0000c7cc       ??_R4bad_typeid@@6B@       004547cc     LIBCMTD:stdexcpt.obj
 0002:0000c7e0       ??_R1A@?0A@A@__non_rtti_object@@8 004547e0     LIBCMTD:stdexcpt.obj
 0002:0000c7f8       ??_R2__non_rtti_object@@8  004547f8     LIBCMTD:stdexcpt.obj
 0002:0000c808       ??_R3__non_rtti_object@@8  00454808     LIBCMTD:stdexcpt.obj
 0002:0000c818       ??_R4__non_rtti_object@@6B@ 00454818     LIBCMTD:stdexcpt.obj
 0002:0000c82c       ??_R1A@?0A@A@logic_error@std@@8 0045482c     libcpmtd:string.obj
 0002:0000c844       ??_R1A@?0A@A@length_error@std@@8 00454844     libcpmtd:string.obj
 0002:0000c85c       ??_R2length_error@std@@8   0045485c     libcpmtd:string.obj
 0002:0000c86c       ??_R3length_error@std@@8   0045486c     libcpmtd:string.obj
 0002:0000c87c       ??_R4length_error@std@@6B@ 0045487c     libcpmtd:string.obj
 0002:0000c890       ??_R2logic_error@std@@8    00454890     libcpmtd:string.obj
 0002:0000c89c       ??_R3logic_error@std@@8    0045489c     libcpmtd:string.obj
 0002:0000c8ac       ??_R4logic_error@std@@6B@  004548ac     libcpmtd:string.obj
 0002:0000c8c0       ??_R1A@?0A@A@out_of_range@std@@8 004548c0     libcpmtd:string.obj
 0002:0000c8d8       ??_R2out_of_range@std@@8   004548d8     libcpmtd:string.obj
 0002:0000c8e8       ??_R3out_of_range@std@@8   004548e8     libcpmtd:string.obj
 0002:0000c8f8       ??_R4out_of_range@std@@6B@ 004548f8     libcpmtd:string.obj
 0002:0000c910       ___safe_se_handler_table   00454910     <linker-defined>
 0002:0000cae4       ___rtc_iaa                 00454ae4     LIBCMTD:initsect.obj
 0002:0000cae8       ___rtc_izz                 00454ae8     LIBCMTD:initsect.obj
 0002:0000caec       ___rtc_taa                 00454aec     LIBCMTD:initsect.obj
 0002:0000caf0       ___rtc_tzz                 00454af0     LIBCMTD:initsect.obj
 0002:0000d8a8       __CT??_R0?AVexception@@@8??0exception@@QAE@ABV0@@Z12 004558a8     NxAllVehicle.obj
 0002:0000d8c4       __CT??_R0?AVlogic_error@std@@@8??0logic_error@std@@QAE@ABV01@@Z40 004558c4     NxAllVehicle.obj
 0002:0000d8e0       __CT??_R0?AVout_of_range@std@@@8??0out_of_range@std@@QAE@ABV01@@Z40 004558e0     NxAllVehicle.obj
 0002:0000d8fc       __CTA3?AVout_of_range@std@@ 004558fc     NxAllVehicle.obj
 0002:0000d90c       __TI3?AVout_of_range@std@@ 0045590c     NxAllVehicle.obj
 0002:0000d9ac       __CT??_R0?AVlength_error@std@@@8??0length_error@std@@QAE@ABV01@@Z40 004559ac     NxAllVehicle.obj
 0002:0000d9c8       __CTA3?AVlength_error@std@@ 004559c8     NxAllVehicle.obj
 0002:0000d9d8       __TI3?AVlength_error@std@@ 004559d8     NxAllVehicle.obj
 0002:0000e678       __IMPORT_DESCRIPTOR_KERNEL32 00456678     kernel32:KERNEL32.dll
 0002:0000e68c       __IMPORT_DESCRIPTOR_USER32 0045668c     user32:USER32.dll
 0002:0000e6a0       __IMPORT_DESCRIPTOR_OgreMain_d 004566a0     OgreMain_d:OgreMain_d.dll
 0002:0000e6b4       __IMPORT_DESCRIPTOR_OgreGUIRenderer_d 004566b4     OgreGUIRenderer_d:OgreGUIRenderer_d.dll
 0002:0000e6c8       __IMPORT_DESCRIPTOR_CEGUIBase_d 004566c8     CEGUIBase_d:CEGUIBase_d.dll
 0002:0000e6dc       __IMPORT_DESCRIPTOR_PhysXLoader 004566dc     PhysXLoader:PhysXLoader.dll
 0002:0000e6f0       __IMPORT_DESCRIPTOR_NxCooking 004566f0     NxCooking:NxCooking.dll
 0002:0000e704       __IMPORT_DESCRIPTOR_WINMM  00456704     winmm:WINMM.dll
 0002:0000e718       __IMPORT_DESCRIPTOR_DSOUND 00456718     dsound:DSOUND.dll
 0002:0000e72c       __NULL_IMPORT_DESCRIPTOR   0045672c     kernel32:KERNEL32.dll
 0003:00000000       ___xc_a                    0045a000     LIBCMTD:crt0init.obj
 0003:0000002c       ___xc_z                    0045a02c     LIBCMTD:crt0init.obj
 0003:00000030       ___xi_a                    0045a030     LIBCMTD:crt0init.obj
 0003:00000048       ___xi_z                    0045a048     LIBCMTD:crt0init.obj
 0003:0000004c       ___xp_a                    0045a04c     LIBCMTD:crt0init.obj
 0003:00000054       ___xp_z                    0045a054     LIBCMTD:crt0init.obj
 0003:00000058       ___xt_a                    0045a058     LIBCMTD:crt0init.obj
 0003:00000060       ___xt_z                    0045a060     LIBCMTD:crt0init.obj
 0003:00000070       ??_R0?AVException@Ogre@@@8 0045a070     CuteCar.obj
 0003:00000090       ??_R0?AVexception@@@8      0045a090     NxAllVehicle.obj
 0003:000000a8       ??_R0?AVlogic_error@std@@@8 0045a0a8     NxAllVehicle.obj
 0003:000000c8       ??_R0?AVout_of_range@std@@@8 0045a0c8     NxAllVehicle.obj
 0003:000000e8       ??_R0?AVlength_error@std@@@8 0045a0e8     NxAllVehicle.obj
 0003:00000110       ___security_cookie         0045a110     LIBCMTD:seccook.obj
 0003:00000114       __fltused                  0045a114     LIBCMTD:fpinit.obj
 0003:00000118       __ldused                   0045a118     LIBCMTD:fpinit.obj
 0003:0000011c       __FPinit                   0045a11c     LIBCMTD:fpinit.obj
 0003:00000120       __FPmtinit                 0045a120     LIBCMTD:fpinit.obj
 0003:00000124       __FPmtterm                 0045a124     LIBCMTD:fpinit.obj
 0003:00000128       __NLG_Destination          0045a128     LIBCMTD:exsup.obj
 0003:00000140       ??_R0?AVtype_info@@@8      0045a140     LIBCMTD:typinfo.obj
 0003:00000160       ?__pMyUnhandledExceptionFilter@@3PAXA 0045a160     LIBCMTD:throw.obj
 0003:00000194       __crtDbgFlag               0045a194     LIBCMTD:dbgheap.obj
 0003:0000019c       __crtBreakAlloc            0045a19c     LIBCMTD:dbgheap.obj
 0003:000001b8       ??_R0?AVbad_cast@@@8       0045a1b8     LIBCMTD:stdexcpt.obj
 0003:000001d0       ??_R0?AVbad_typeid@@@8     0045a1d0     LIBCMTD:stdexcpt.obj
 0003:000001ec       ??_R0?AV__non_rtti_object@@@8 0045a1ec     LIBCMTD:stdexcpt.obj
 0003:00000240       __iob                      0045a240     LIBCMTD:_file.obj
 0003:000004e0       __half                     0045a4e0     LIBCMTD:pow.obj
 0003:00000500       __aexit_rtn                0045a500     LIBCMTD:wincrt0.obj
 0003:00000504       ___app_type                0045a504     LIBCMTD:wincrt0.obj
 0003:00000508       __cfltcvt_tab              0045a508     LIBCMTD:cmiscdat.obj
 0003:00000530       ___tlsindex                0045a530     LIBCMTD:tidtable.obj
 0003:00000534       ?__pInconsistency@@3P6AXXZA 0045a534     LIBCMTD:hooks.obj
 0003:00000660       ___nullstring              0045a660     LIBCMTD:output.obj
 0003:00000664       ___wnullstring             0045a664     LIBCMTD:output.obj
 0003:00000668       __crtAssertBusy            0045a668     LIBCMTD:dbgrpt.obj
 0003:0000066c       __CrtDbgMode               0045a66c     LIBCMTD:dbgrpt.obj
 0003:00000678       __CrtDbgFile               0045a678     LIBCMTD:dbgrpt.obj
 0003:00000800       __indefinite               0045a800     LIBCMTD:87disp.obj
 0003:0000080a       __piby2                    0045a80a     LIBCMTD:87disp.obj
 0003:00000830       __d_inf                    0045a830     LIBCMTD:util.obj
 0003:00000838       __d_ind                    0045a838     LIBCMTD:util.obj
 0003:00000840       __d_max                    0045a840     LIBCMTD:util.obj
 0003:00000848       __d_min                    0045a848     LIBCMTD:util.obj
 0003:00000850       __d_mzero                  0045a850     LIBCMTD:util.obj
 0003:00000958       __pfnAllocHook             0045a958     LIBCMTD:dbghook.obj
 0003:0000095c       __amblksiz                 0045a95c     LIBCMTD:heapinit.obj
 0003:00000968       ___initiallocinfo          0045a968     LIBCMTD:setlocal.obj
 0003:000009bc       ___ptlocinfo               0045a9bc     LIBCMTD:setlocal.obj
 0003:00000af8       ___lc_category             0045aaf8     LIBCMTD:setlocal.obj
 0003:00000b40       ___badioinfo               0045ab40     LIBCMTD:ioinit.obj
 0003:00000b70       __infinity                 0045ab70     LIBCMTD:87tran.obj
 0003:00000b7a       __minfinity                0045ab7a     LIBCMTD:87tran.obj
 0003:00000b84       __logemax                  0045ab84     LIBCMTD:87tran.obj
 0003:00000baa       __OP_EXPjmptab             0045abaa     LIBCMTD:87tran.obj
 0003:00000bd0       __XcptActTab               0045abd0     LIBCMTD:winxfltr.obj
 0003:00000c48       __First_FPE_Indx           0045ac48     LIBCMTD:winxfltr.obj
 0003:00000c4c       __Num_FPE                  0045ac4c     LIBCMTD:winxfltr.obj
 0003:00000c50       __XcptActTabSize           0045ac50     LIBCMTD:winxfltr.obj
 0003:00000c54       __XcptActTabCount          0045ac54     LIBCMTD:winxfltr.obj
 0003:00000cf8       ___mb_cur_max              0045acf8     LIBCMTD:nlsdata1.obj
 0003:00000cfc       ___decimal_point           0045acfc     LIBCMTD:nlsdata1.obj
 0003:00000d00       ___decimal_point_length    0045ad00     LIBCMTD:nlsdata1.obj
 0003:00000e30       __pctype                   0045ae30     LIBCMTD:ctype.obj
 0003:00000e34       __pwctype                  0045ae34     LIBCMTD:ctype.obj
 0003:00000e40       __matherr_flag             0045ae40     LIBCMTD:matherr.obj
 0003:00000e44       ___lc_time_curr            0045ae44     LIBCMTD:strftime.obj
 0003:00000e48       ___lc_time_c               0045ae48     LIBCMTD:strftime.obj
 0003:00000f00       ___lconv_static_decimal    0045af00     LIBCMTD:lconv.obj
 0003:00000f04       ___lconv_c                 0045af04     LIBCMTD:lconv.obj
 0003:00000f34       ___lconv                   0045af34     LIBCMTD:lconv.obj
 0003:00000f38       ___lc_clike                0045af38     LIBCMTD:nlsdata2.obj
 0003:00000f40       __pmatherr                 0045af40     LIBCMTD:libm_error.obj
 0003:000010b0       __timezone                 0045b0b0     LIBCMTD:timeset.obj
 0003:000010b4       __daylight                 0045b0b4     LIBCMTD:timeset.obj
 0003:000010b8       __dstbias                  0045b0b8     LIBCMTD:timeset.obj
 0003:00001140       __tzname                   0045b140     LIBCMTD:timeset.obj
 0003:00001160       __lpdays                   0045b160     LIBCMTD:days.obj
 0003:00001194       __days                     0045b194     LIBCMTD:days.obj
 0003:000011d0       __pow10pos                 0045b1d0     LIBCMTD:constpow.obj
 0003:00001330       __pow10neg                 0045b330     LIBCMTD:constpow.obj
 0003:000014a4       ?displayCameraDetails@?DD@??processUnbufferedKeyInput@ExampleFrameListener@@UAE_NABUFrameEvent@Ogre@@@Z@4_NA 0045b4a4     CuteCar.obj
 0003:000014a8       ?tris@?1??updateStats@ExampleFrameListener@@IAEXXZ@4V?$basic_string@DU?$char_traits@D@std@@V?$allocator@D@2@@std@@A 0045b4a8     CuteCar.obj
 0003:000014c4       ?worstFps@?1??updateStats@ExampleFrameListener@@IAEXXZ@4V?$basic_string@DU?$char_traits@D@std@@V?$allocator@D@2@@std@@A 0045b4c4     CuteCar.obj
 0003:000014e0       ?bestFps@?1??updateStats@ExampleFrameListener@@IAEXXZ@4V?$basic_string@DU?$char_traits@D@std@@V?$allocator@D@2@@std@@A 0045b4e0     CuteCar.obj
 0003:000014fc       ?avgFps@?1??updateStats@ExampleFrameListener@@IAEXXZ@4V?$basic_string@DU?$char_traits@D@std@@V?$allocator@D@2@@std@@A 0045b4fc     CuteCar.obj
 0003:00001518       ?currFps@?1??updateStats@ExampleFrameListener@@IAEXXZ@4V?$basic_string@DU?$char_traits@D@std@@V?$allocator@D@2@@std@@A 0045b518     CuteCar.obj
 0003:00001534       ??_B?1??updateStats@ExampleFrameListener@@IAEXXZ@51 0045b534     CuteCar.obj
 0003:00001538       ?id@?$num_put@DV?$ostreambuf_iterator@DU?$char_traits@D@std@@@std@@@std@@2V0locale@2@A 0045b538     CuteCar.obj
 0003:0000153c       ?id@?$codecvt@DDH@std@@2V0locale@2@A 0045b53c     CuteCar.obj
 0003:00001540       ?id@?$numpunct@D@std@@2V0locale@2@A 0045b540     CuteCar.obj
 0003:00001548       ?mSingleton@NxAllVehicle@@0PAV1@A 0045b548     NxAllVehicle.obj
 0003:0000158c       ?mAllVehicle@NxTerrain@@0PAVNxAllVehicle@@A 0045b58c     NxTerrain.obj
 0003:00001590       ?mScene@NxTerrainItem@@0PAVNxScene@@A 0045b590     NxTerrainItem.obj
 0003:00001594       ?mItemCount@NxTerrainItem@@0HA 0045b594     NxTerrainItem.obj
 0003:00001598       ?mItemPicked@NxTerrainItem@@0V?$NxArray@PAVItemPicked@@VNxAllocatorDefault@@@@A 0045b598     NxTerrainItem.obj
 0003:000015a8       ?mItemTrigger@NxTerrainItem@@0PAVItemTrigger@1@A 0045b5a8     NxTerrainItem.obj
 0003:0000179c       ?mSingleton@OgreAllVehicle@@0PAV1@A 0045b79c     OgreAllVehicle.obj
 0003:000017a0       ?mWheelCount@OgreWheel@@0HA 0045b7a0     OgreAllVehicle.obj
 0003:000017a8       ___fastflag                0045b7a8     LIBCMTD:fpinit.obj
 0003:000017ac       __adjust_fdiv              0045b7ac     LIBCMTD:fpinit.obj
 0003:000017b0       ___pPurecall               0045b7b0     LIBCMTD:purevirt.obj
 0003:000017d0       __cflush                   0045b7d0     LIBCMTD:_file.obj
 0003:000017d4       __aenvptr                  0045b7d4     LIBCMTD:wincrt0.obj
 0003:000017d8       __wenvptr                  0045b7d8     LIBCMTD:wincrt0.obj
 0003:000017dc       ___error_mode              0045b7dc     LIBCMTD:wincrt0.obj
 0003:000017e4       _gpFlsAlloc                0045b7e4     LIBCMTD:tidtable.obj
 0003:000017e8       _gpFlsGetValue             0045b7e8     LIBCMTD:tidtable.obj
 0003:000017ec       _gpFlsSetValue             0045b7ec     LIBCMTD:tidtable.obj
 0003:000017f0       _gpFlsFree                 0045b7f0     LIBCMTD:tidtable.obj
 0003:0000194c       __umaskval                 0045b94c     LIBCMTD:crt0dat.obj
 0003:00001950       __osplatform               0045b950     LIBCMTD:crt0dat.obj
 0003:00001954       __osver                    0045b954     LIBCMTD:crt0dat.obj
 0003:00001958       __winver                   0045b958     LIBCMTD:crt0dat.obj
 0003:0000195c       __winmajor                 0045b95c     LIBCMTD:crt0dat.obj
 0003:00001960       __winminor                 0045b960     LIBCMTD:crt0dat.obj
 0003:00001964       ___argc                    0045b964     LIBCMTD:crt0dat.obj
 0003:00001968       ___argv                    0045b968     LIBCMTD:crt0dat.obj
 0003:0000196c       ___wargv                   0045b96c     LIBCMTD:crt0dat.obj
 0003:00001970       __environ                  0045b970     LIBCMTD:crt0dat.obj
 0003:00001974       ___initenv                 0045b974     LIBCMTD:crt0dat.obj
 0003:00001978       __wenviron                 0045b978     LIBCMTD:crt0dat.obj
 0003:0000197c       ___winitenv                0045b97c     LIBCMTD:crt0dat.obj
 0003:00001980       __pgmptr                   0045b980     LIBCMTD:crt0dat.obj
 0003:00001984       __wpgmptr                  0045b984     LIBCMTD:crt0dat.obj
 0003:00001988       __exitflag                 0045b988     LIBCMTD:crt0dat.obj
 0003:0000198c       __C_Termination_Done       0045b98c     LIBCMTD:crt0dat.obj
 0003:00001990       __C_Exit_Done              0045b990     LIBCMTD:crt0dat.obj
 0003:0000199c       __newmode                  0045b99c     LIBCMTD:_newmode.obj
 0003:000019a0       ?_pnhHeap@@3P6AHI@ZA       0045b9a0     LIBCMTD:handler.obj
 0003:000019d8       __stdbuf                   0045b9d8     LIBCMTD:_sftbuf.obj
 0003:00001aec       __adbgmsg                  0045baec     LIBCMTD:crt0msg.obj
 0003:00001b44       __commode                  0045bb44     LIBCMTD:ncommode.obj
 0003:00001b48       ___lconv_static_null       0045bb48     LIBCMTD:lconv.obj
 0003:00001b4c       ___lc_time_intl            0045bb4c     LIBCMTD:inittime.obj
 0003:00001b50       ___lconv_intl              0045bb50     LIBCMTD:initmon.obj
 0003:00001b54       ___lc_handle               0045bb54     LIBCMTD:nlsdata2.obj
 0003:00001b6c       ___lc_codepage             0045bb6c     LIBCMTD:nlsdata2.obj
 0003:00001b70       ___lc_collate_cp           0045bb70     LIBCMTD:nlsdata2.obj
 0003:00001b78       ___lc_id                   0045bb78     LIBCMTD:nlsdata3.obj
 0003:00001bc4       __fmode                    0045bbc4     LIBCMTD:txtmode.obj
 0003:00001c94       ___ctype1                  0045bc94     <common>
 0003:00001c98       ___ctype1_refcount         0045bc98     <common>
 0003:00001c9c       ___lconv_mon_refcount      0045bc9c     <common>
 0003:00001ca0       ___lconv_intl_refcount     0045bca0     <common>
 0003:00001ca4       ___lconv_num_refcount      0045bca4     <common>
 0003:00001ca8       ___mblcid                  0045bca8     <common>
 0003:00001cac       ___ptmbcinfo               0045bcac     <common>
 0003:00001cb0       ___ismbcodepage            0045bcb0     <common>
 0003:00001cc0       __mbctype                  0045bcc0     <common>
 0003:00001dc4       ___mbcodepage              0045bdc4     <common>
 0003:00001dd0       ___mbulinfo                0045bdd0     <common>
 0003:00001de0       __mbcasemap                0045bde0     <common>
 0003:00001ee0       ___use_sse2_mathfcns       0045bee0     <common>
 0003:00001ee4       ___sse2_available          0045bee4     <common>
 0003:00001ee8       __nhandle                  0045bee8     <common>
 0003:00001f00       ___pioinfo                 0045bf00     <common>
 0003:00002000       ___setlc_active            0045c000     <common>
 0003:00002004       ___unguarded_readlc_active 0045c004     <common>
 0003:00002008       ___sbh_initialized         0045c008     <common>
 0003:0000200c       ___sbh_pHeaderDefer        0045c00c     <common>
 0003:00002010       ___sbh_cntHeaderList       0045c010     <common>
 0003:00002014       ___sbh_pHeaderList         0045c014     <common>
 0003:00002018       ___sbh_threshold           0045c018     <common>
 0003:0000201c       ___sbh_pHeaderScan         0045c01c     <common>
 0003:00002020       ___sbh_sizeHeaderList      0045c020     <common>
 0003:00002024       ___sbh_indGroupDefer       0045c024     <common>
 0003:00002028       __crtheap                  0045c028     <common>
 0003:0000202c       ___active_heap             0045c02c     <common>
 0003:00002030       ___env_initialized         0045c030     <common>
 0003:00002034       ___onexitend               0045c034     <common>
 0003:00002038       ___onexitbegin             0045c038     <common>
 0003:0000203c       ___mbctype_initialized     0045c03c     <common>
 0003:00002040       __pfnReportHook            0045c040     <common>
 0003:00002044       __pReportHookList          0045c044     <common>
 0003:00002048       __acmdln                   0045c048     <common>
 0003:0000204c       ___piob                    0045c04c     <common>
 0003:00002060       __bufin                    0045c060     <common>
 0003:00003060       __nstream                  0045d060     <common>
 0003:00003064       __pfnDumpClient            0045d064     <common>

 entry point at        0001:00026c30

 Static symbols

 0001:fffff000       __ehhandler$?_Copy@?$basic_string@DU?$char_traits@D@std@@V?$allocator@D@2@@std@@IAEXII@Z 00400000 f   libcpmtd:string.obj
 0001:fffff000       $L142273                   00400000 f   NxTerrain.obj
 0001:fffff000       $L132333                   00400000 f   OgreAllVehicle.obj
 0001:fffff000       $L132348                   00400000 f   OgreAllVehicle.obj
 0001:fffff000       $L12252                    00400000 f   libcpmtd:string.obj
 0001:fffff000       __ehhandler$?_Copy@?$basic_string@DU?$char_traits@D@std@@V?$allocator@D@2@@std@@IAEXII@Z 00400000 f   OgreAllVehicle.obj
 0001:fffff000       $L12234                    00400000 f   libcpmtd:string.obj
 0001:fffff000       $L132434                   00400000 f   OgreAllVehicle.obj
 0001:fffff000       $L12220                    00400000 f   libcpmtd:string.obj
 0001:fffff000       $L142285                   00400000 f   NxTerrain.obj
 0001:fffff000       $L11816                    00400000 f   NxWheel.obj
 0001:fffff000       $L11828                    00400000 f   NxWheel.obj
 0001:fffff000       $L142240                   00400000 f   NxTerrain.obj
 0001:fffff000       __ehhandler$?_Copy@?$basic_string@DU?$char_traits@D@std@@V?$allocator@D@2@@std@@IAEXII@Z 00400000 f   NxTerrain.obj
 0001:fffff000       __ehhandler$?_Copy@?$basic_string@DU?$char_traits@D@std@@V?$allocator@D@2@@std@@IAEXII@Z 00400000 f   NxAllVehicle.obj
 0001:fffff000       __ehhandler$?_Copy@?$basic_string@DU?$char_traits@D@std@@V?$allocator@D@2@@std@@IAEXII@Z 00400000 f   NxTerrainItem.obj
 0001:fffff000       $L11842                    00400000 f   NxWheel.obj
 0001:fffff000       $L24162                    00400000 f   NxTerrainItem.obj
 0001:fffff000       $L25429                    00400000 f   NxVehicle.obj
 0001:fffff000       $L24144                    00400000 f   NxTerrainItem.obj
 0001:fffff000       $L25442                    00400000 f   NxVehicle.obj
 0001:fffff000       $L24132                    00400000 f   NxTerrainItem.obj
 0001:fffff000       $L25496                    00400000 f   NxVehicle.obj
 0001:fffff000       $L25877                    00400000 f   NxVehicle.obj
 0001:fffff000       $L24124                    00400000 f   NxTerrainItem.obj
 0001:fffff000       $L25887                    00400000 f   NxVehicle.obj
 0001:fffff000       $L24083                    00400000 f   NxTerrainItem.obj
 0001:fffff000       $L25898                    00400000 f   NxVehicle.obj
 0001:fffff000       $L131774                   00400000 f   OgreTerrain.obj
 0001:fffff000       $L26006                    00400000 f   NxVehicle.obj
 0001:fffff000       $L131785                   00400000 f   OgreTerrain.obj
 0001:fffff000       __ehhandler$?_Copy@?$basic_string@DU?$char_traits@D@std@@V?$allocator@D@2@@std@@IAEXII@Z 00400000 f   NxVehicle.obj
 0001:fffff000       $L131800                   00400000 f   OgreTerrain.obj
 0001:fffff000       __ehhandler$?_Buynode@?$_Tree@V?$_Tmap_traits@MMU?$less@M@std@@V?$allocator@U?$pair@$$CBMM@std@@@2@$0A@@std@@@std@@IAEPAU_Node@?$_Tree_nod@V?$_Tmap_traits@MMU?$less@M@std@@V?$allocator@U?$pair@$$CBMM@std@@@2@$0A@@std@@@2@XZ 00400000 f   NxVehicle.obj
 0001:fffff000       $L24072                    00400000 f   NxTerrainItem.obj
 0001:fffff000       $L26059                    00400000 f   NxVehicle.obj
 0001:fffff000       __ehhandler$?_Copy@?$basic_string@DU?$char_traits@D@std@@V?$allocator@D@2@@std@@IAEXII@Z 00400000 f   OgreTerrain.obj
 0001:fffff000       $L132322                   00400000 f   OgreAllVehicle.obj
 0001:fffff000       $L131844                   00400000 f   OgreTerrain.obj
 0001:fffff008       $L131845                   00400008 f   OgreTerrain.obj
 0001:fffff008       $L24073                    00400008 f   NxTerrainItem.obj
 0001:fffff008       __ehhandler$??0logic_error@std@@QAE@ABV01@@Z 00400008 f   OgreTerrain.obj
 0001:fffff008       __ehhandler$??1logic_error@std@@UAE@XZ 00400008 f   OgreTerrain.obj
 0001:fffff008       __ehhandler$??0logic_error@std@@QAE@ABV01@@Z 00400008 f   NxVehicle.obj
 0001:fffff008       __ehhandler$??0logic_error@std@@QAE@ABV?$basic_string@DU?$char_traits@D@std@@V?$allocator@D@2@@1@@Z 00400008 f   OgreTerrain.obj
 0001:fffff008       __ehhandler$??1logic_error@std@@UAE@XZ 00400008 f   NxVehicle.obj
 0001:fffff008       __ehhandler$??0logic_error@std@@QAE@ABV?$basic_string@DU?$char_traits@D@std@@V?$allocator@D@2@@1@@Z 00400008 f   OgreAllVehicle.obj
 0001:fffff008       __ehhandler$??0logic_error@std@@QAE@ABV?$basic_string@DU?$char_traits@D@std@@V?$allocator@D@2@@1@@Z 00400008 f   NxVehicle.obj
 0001:fffff008       __ehhandler$??0NxMat34@@QAE@_N@Z 00400008 f   NxTerrainItem.obj
 0001:fffff008       __ehhandler$?erase@?$_Tree@V?$_Tmap_traits@MMU?$less@M@std@@V?$allocator@U?$pair@$$CBMM@std@@@2@$0A@@std@@@std@@QAE?AViterator@12@V312@@Z 00400008 f   NxVehicle.obj
 0001:fffff008       __ehhandler$??0NxBoxShapeDesc@@QAE@XZ 00400008 f   NxTerrainItem.obj
 0001:fffff008       __ehhandler$??1NxActorDesc@@QAE@XZ 00400008 f   NxVehicle.obj
 0001:fffff008       $L132435                   00400008 f   OgreAllVehicle.obj
 0001:fffff008       __ehhandler$??0logic_error@std@@QAE@ABV?$basic_string@DU?$char_traits@D@std@@V?$allocator@D@2@@1@@Z 00400008 f   libcpmtd:string.obj
 0001:fffff008       __ehhandler$??1logic_error@std@@UAE@XZ 00400008 f   OgreAllVehicle.obj
 0001:fffff008       $L25443                    00400008 f   NxVehicle.obj
 0001:fffff008       __ehhandler$??0NxMat34@@QAE@_N@Z 00400008 f   NxVehicle.obj
 0001:fffff008       __ehhandler$??0logic_error@std@@QAE@ABV01@@Z 00400008 f   OgreAllVehicle.obj
 0001:fffff008       __ehhandler$??0logic_error@std@@QAE@ABV01@@Z 00400008 f   libcpmtd:string.obj
 0001:fffff008       __ehhandler$??1NxActorDesc@@QAE@XZ 00400008 f   NxTerrainItem.obj
 0001:fffff008       __ehhandler$??0NxMat34@@QAE@_N@Z 00400008 f   NxWheel.obj
 0001:fffff008       __ehhandler$??0NxMat34@@QAE@_N@Z 00400008 f   NxTerrain.obj
 0001:fffff008       __ehhandler$??1logic_error@std@@UAE@XZ 00400008 f   libcpmtd:string.obj
 0001:fffff00b       $L11817                    0040000b f   NxWheel.obj
 0001:fffff00b       __ehhandler$??1NxShapeDesc@@UAE@XZ 0040000b f   NxTerrainItem.obj
 0001:fffff00b       $L142274                   0040000b f   NxTerrain.obj
 0001:fffff00b       $L24133                    0040000b f   NxTerrainItem.obj
 0001:fffff00b       __ehhandler$??1NxShapeDesc@@UAE@XZ 0040000b f   NxTerrain.obj
 0001:fffff00b       __ehhandler$??1NxShapeDesc@@UAE@XZ 0040000b f   NxWheel.obj
 0001:fffff011       __ehhandler$?_Buynode@?$_Tree@V?$_Tmap_traits@MMU?$less@M@std@@V?$allocator@U?$pair@$$CBMM@std@@@2@$0A@@std@@@std@@IAEPAU_Node@?$_Tree_nod@V?$_Tmap_traits@MMU?$less@M@std@@V?$allocator@U?$pair@$$CBMM@std@@@2@$0A@@std@@@2@PAU342@00ABU?$pair@$$CBMM@2@D@Z 00400011 f   NxVehicle.obj
 0001:fffff013       __ehhandler$??0NxActorDesc@@QAE@XZ 00400013 f   NxVehicle.obj
 0001:fffff013       __ehhandler$??0NxActorDesc@@QAE@XZ 00400013 f   NxTerrainItem.obj
 0001:fffff016       __ehhandler$??0NxShapeDesc@@IAE@W4NxShapeType@@@Z 00400016 f   NxTerrainItem.obj
 0001:fffff016       __ehhandler$??0NxShapeDesc@@IAE@W4NxShapeType@@@Z 00400016 f   NxWheel.obj
 0001:fffff016       __ehhandler$??0NxShapeDesc@@IAE@W4NxShapeType@@@Z 00400016 f   NxTerrain.obj
 0001:fffff021       __ehhandler$??$?HDU?$char_traits@D@std@@V?$allocator@D@1@@std@@YA?AV?$basic_string@DU?$char_traits@D@std@@V?$allocator@D@2@@0@PBDABV10@@Z 00400021 f   OgreTerrain.obj
 0001:fffff021       __ehhandler$??$?HDU?$char_traits@D@std@@V?$allocator@D@1@@std@@YA?AV?$basic_string@DU?$char_traits@D@std@@V?$allocator@D@2@@0@PBDABV10@@Z 00400021 f   OgreAllVehicle.obj
 0001:fffff091       $L26058                    00400091 f   NxVehicle.obj
 0001:fffff0a7       $L132405                   004000a7 f   OgreAllVehicle.obj
 0001:fffff0a7       $L26021                    004000a7 f   NxVehicle.obj
 0001:fffff0a7       $L142396                   004000a7 f   NxTerrain.obj
 0001:fffff0a7       $L12342                    004000a7 f   libcpmtd:string.obj
 0001:fffff0a7       $L142813                   004000a7 f   NxAllVehicle.obj
 0001:fffff0a7       $L24294                    004000a7 f   NxTerrainItem.obj
 0001:fffff0a7       $L131820                   004000a7 f   OgreTerrain.obj
 0001:fffff0ce       $L142815                   004000ce f   NxAllVehicle.obj
 0001:fffff0ce       $L131822                   004000ce f   OgreTerrain.obj
 0001:fffff0ce       $L26023                    004000ce f   NxVehicle.obj
 0001:fffff0ce       $L24296                    004000ce f   NxTerrainItem.obj
 0001:fffff0ce       $L142398                   004000ce f   NxTerrain.obj
 0001:fffff0ce       $L132407                   004000ce f   OgreAllVehicle.obj
 0001:fffff0ce       $L12344                    004000ce f   libcpmtd:string.obj
 0001:fffff0d2       $L26042                    004000d2 f   NxVehicle.obj
 0001:00002bcf       $L222509                   00403bcf f   CuteCar.obj
 0001:00004b7d       $L222701                   00405b7d f i CuteCar.obj
 0001:0000c667       $L223515                   0040d667 f i CuteCar.obj
 0001:0000c68e       $L223517                   0040d68e f i CuteCar.obj
 0001:00012cb2       $L142835                   00413cb2 f i NxAllVehicle.obj
 0001:00012de1       $L142850                   00413de1 f i NxAllVehicle.obj
 0001:0001542d       $L24238                    0041642d f i NxTerrainItem.obj
 0001:00019c86       $L25918                    0041ac86 f i NxVehicle.obj
 0001:0001b392       $L26099                    0041c392 f i NxVehicle.obj
 0001:0001b4c1       $L26114                    0041c4c1 f i NxVehicle.obj
 0001:0001e3bb       $L132297                   0041f3bb f i OgreAllVehicle.obj
 0001:0001e4c3       $L132299                   0041f4c3 f i OgreAllVehicle.obj
 0001:0001e7db       $L132365                   0041f7db f i OgreAllVehicle.obj
 0001:0001e8e3       $L132367                   0041f8e3 f i OgreAllVehicle.obj
 0001:0001ee7b       $L132481                   0041fe7b f i OgreAllVehicle.obj
 0001:0001f09d       $L132505                   0042009d f i OgreAllVehicle.obj
 0001:000202db       $L131749                   004212db f i OgreTerrain.obj
 0001:000203e3       $L131751                   004213e3 f i OgreTerrain.obj
 0001:00020a00       _report_failure            00421a00 f   LIBCMTD:secchk.obj
 0001:00020cd0       ?CatchGuardHandler@@YA?AW4_EXCEPTION_DISPOSITION@@PAUEHExceptionRecord@@PAUCatchGuardRN@@PAX2@Z 00421cd0 f   LIBCMTD:trnsctrl.obj
 0001:00020e10       ?TranslatorGuardHandler@@YA?AW4_EXCEPTION_DISPOSITION@@PAUEHExceptionRecord@@PAUTranslatorGuardRN@@PAX2@Z 00421e10 f   LIBCMTD:trnsctrl.obj
 0001:00021028       $$$00001                   00422028 f   LIBCMTD:exsup.obj
 0001:00021048       __unwind_handler           00422048 f   LIBCMTD:exsup.obj
 0001:00021048       $$$00003                   00422048 f   LIBCMTD:exsup.obj
 0001:0002106a       $$$00005                   0042206a f   LIBCMTD:exsup.obj
 0001:000210d2       $$$00007                   004220d2 f   LIBCMTD:exsup.obj
 0001:00021116       $$$00011                   00422116 f   LIBCMTD:exsup.obj
 0001:00021580       ?ArrayUnwindFilter@@YAHPAU_EXCEPTION_POINTERS@@@Z 00422580 f   LIBCMTD:ehvecdtr.obj
 0001:00021980       __onexit_lk                00422980 f   LIBCMTD:onexit.obj
 0001:00023570       _realloc_help              00424570 f   LIBCMTD:dbgheap.obj
 0001:000242b0       _CheckBytes                004252b0 f   LIBCMTD:dbgheap.obj
 0001:00025000       __printMemBlockData        00426000 f   LIBCMTD:dbgheap.obj
 0001:000265af       _$$$00002                  004275af f   LIBCMTD:atan.obj
 0001:000267cf       _$$$00002                  004277cf f   LIBCMTD:pow.obj
 0001:00026e80       _fast_error_exit           00427e80 f   LIBCMTD:wincrt0.obj
 0001:00026eb0       _check_managed_app         00427eb0 f   LIBCMTD:wincrt0.obj
 0001:0002739d       $$$00003                   0042839d f   LIBCMTD:exsup3.obj
 0001:000276d0       __cftoe2                   004286d0 f   LIBCMTD:cvt.obj
 0001:000278c0       __cftof2                   004288c0 f   LIBCMTD:cvt.obj
 0001:00027b60       __shift                    00428b60 f   LIBCMTD:cvt.obj
 0001:00027c80       ?FindHandler@@YAXPAUEHExceptionRecord@@PAUEHRegistrationNode@@PAU_CONTEXT@@PAXPBU_s_FuncInfo@@EH1@Z 00428c80 f   LIBCMTD:frame.obj
 0001:00027f20       ?FindHandlerForForeignException@@YAXPAUEHExceptionRecord@@PAUEHRegistrationNode@@PAU_CONTEXT@@PAXPBU_s_FuncInfo@@HH1@Z 00428f20 f   LIBCMTD:frame.obj
 0001:00028050       ?TypeMatch@@YAHPBU_s_HandlerType@@PBU_s_CatchableType@@PBU_s_ThrowInfo@@@Z 00429050 f   LIBCMTD:frame.obj
 0001:00028250       ?FrameUnwindFilter@@YAHPAU_EXCEPTION_POINTERS@@@Z 00429250 f   LIBCMTD:frame.obj
 0001:00028290       ?CatchIt@@YAXPAUEHExceptionRecord@@PAUEHRegistrationNode@@PAU_CONTEXT@@PAXPBU_s_FuncInfo@@PBU_s_HandlerType@@PBU_s_CatchableType@@PBU_s_TryBlockMapEntry@@H1E@Z 00429290 f   LIBCMTD:frame.obj
 0001:00028350       ?CallCatchBlock@@YAPAXPAUEHExceptionRecord@@PAUEHRegistrationNode@@PAU_CONTEXT@@PBU_s_FuncInfo@@PAXHK@Z 00429350 f   LIBCMTD:frame.obj
 0001:00028580       ?ExFilterRethrow@@YAHPAU_EXCEPTION_POINTERS@@@Z 00429580 f   LIBCMTD:frame.obj
 0001:000285d0       ?BuildCatchObject@@YAXPAUEHExceptionRecord@@PAXPBU_s_HandlerType@@PBU_s_CatchableType@@@Z 004295d0 f   LIBCMTD:frame.obj
 0001:00028900       ?AdjustPointer@@YAPAXPAXABUPMD@@@Z 00429900 f   LIBCMTD:frame.obj
 0001:0002a970       _write_char                0042b970 f   LIBCMTD:output.obj
 0001:0002aa10       _write_multi_char          0042ba10 f   LIBCMTD:output.obj
 0001:0002aa50       _write_string              0042ba50 f   LIBCMTD:output.obj
 0001:0002aac0       _get_int_arg               0042bac0 f   LIBCMTD:output.obj
 0001:0002aae0       _get_int64_arg             0042bae0 f   LIBCMTD:output.obj
 0001:0002ab00       _get_short_arg             0042bb00 f   LIBCMTD:output.obj
 0001:0002b2f0       _CrtMessageWindow          0042c2f0 f   LIBCMTD:dbgrpt.obj
 0001:0002b6d0       _doexit                    0042c6d0 f   LIBCMTD:crt0dat.obj
 0001:0002b870       __initterm                 0042c870 f   LIBCMTD:crt0dat.obj
 0001:0002b8a0       __initterm_e               0042c8a0 f   LIBCMTD:crt0dat.obj
 0001:0002bcb0       _flsall                    0042ccb0 f   LIBCMTD:fflush.obj
 0001:0002d183       _$$$00003                  0042e183 f   LIBCMTD:87disp.obj
 0001:0002e530       __get_fname                0042f530 f   LIBCMTD:fpexcept.obj
 0001:00030c40       ___updatetlocinfo_lk       00431c40 f   LIBCMTD:setlocal.obj
 0001:00031030       __setlocale_lk             00432030 f   LIBCMTD:setlocal.obj
 0001:000313e0       __setlocale_set_cat        004323e0 f   LIBCMTD:setlocal.obj
 0001:000317b0       __setlocale_get_all        004327b0 f   LIBCMTD:setlocal.obj
 0001:000321f0       _ctrlevent_capture@4       004331f0 f   LIBCMTD:winsig.obj
 0001:00032520       _siglookup                 00433520 f   LIBCMTD:winsig.obj
 0001:00032760       _xtoa                      00433760 f   LIBCMTD:xtoa.obj
 0001:000328e0       _x64toa@20                 004338e0 f   LIBCMTD:xtoa.obj
 0001:00033660       _has_osfxsr_set            00434660 f   LIBCMTD:cpu_disp.obj
 0001:00034530       _$$$00001                  00435530 f   LIBCMTD:87tran.obj
 0001:00034bc0       _xcptlookup                00435bc0 f   LIBCMTD:winxfltr.obj
 0001:00034f60       _parse_cmdline             00435f60 f   LIBCMTD:stdargv.obj
 0001:00035dd0       __abstract_cw              00436dd0 f   LIBCMTD:ieee87.obj
 0001:00035f20       __hw_cw                    00436f20 f   LIBCMTD:ieee87.obj
 0001:00036080       __abstract_sw              00437080 f   LIBCMTD:ieee87.obj
 0001:000375c0       _getSystemCP               004385c0 f   LIBCMTD:mbctype.obj
 0001:00037620       __setmbcp_lk               00438620 f   LIBCMTD:mbctype.obj
 0001:00037910       _CPtoLCID                  00438910 f   LIBCMTD:mbctype.obj
 0001:00037990       _setSBCS                   00438990 f   LIBCMTD:mbctype.obj
 0001:00037a10       _setSBUpLow                00438a10 f   LIBCMTD:mbctype.obj
 0001:00037e80       ___crtInitCritSecNoSpinCount@8 00438e80 f   LIBCMTD:initcrit.obj
 0001:00038e90       __tsopen_lk                00439e90 f   LIBCMTD:open.obj
 0001:00039f80       __expandtime               0043af80 f   LIBCMTD:strftime.obj
 0001:0003a560       __store_str                0043b560 f   LIBCMTD:strftime.obj
 0001:0003a5b0       __store_num                0043b5b0 f   LIBCMTD:strftime.obj
 0001:0003a660       __store_number             0043b660 f   LIBCMTD:strftime.obj
 0001:0003a710       __store_winword            0043b710 f   LIBCMTD:strftime.obj
 0001:0003b070       __get_lc_time              0043c070 f   LIBCMTD:inittime.obj
 0001:0003bbb0       _fix_grouping              0043cbb0 f   LIBCMTD:initnum.obj
 0001:0003c050       _fix_grouping              0043d050 f   LIBCMTD:initmon.obj
 0001:0003cb40       _TranslateName             0043db40 f   LIBCMTD:getqloc.obj
 0001:0003cbd0       _GetLcidFromLangCountry    0043dbd0 f   LIBCMTD:getqloc.obj
 0001:0003cc90       _LangCountryEnumProc@4     0043dc90 f   LIBCMTD:getqloc.obj
 0001:0003d010       _GetLcidFromLanguage       0043e010 f   LIBCMTD:getqloc.obj
 0001:0003d080       _LanguageEnumProc@4        0043e080 f   LIBCMTD:getqloc.obj
 0001:0003d1d0       _GetLcidFromCountry        0043e1d0 f   LIBCMTD:getqloc.obj
 0001:0003d220       _CountryEnumProc@4         0043e220 f   LIBCMTD:getqloc.obj
 0001:0003d2f0       _GetLcidFromDefault        0043e2f0 f   LIBCMTD:getqloc.obj
 0001:0003d320       _ProcessCodePage           0043e320 f   LIBCMTD:getqloc.obj
 0001:0003d3d0       _TestDefaultCountry        0043e3d0 f   LIBCMTD:getqloc.obj
 0001:0003d420       _TestDefaultLanguage       0043e420 f   LIBCMTD:getqloc.obj
 0001:0003d4c0       _crtGetLocaleInfoA@16      0043e4c0 f   LIBCMTD:getqloc.obj
 0001:0003d650       _LcidFromHexString         0043e650 f   LIBCMTD:getqloc.obj
 0001:0003d6d0       _GetPrimaryLen             0043e6d0 f   LIBCMTD:getqloc.obj
 0001:0003f080       _x_ismbbtype               00440080 f   LIBCMTD:ismbbyte.obj
 0001:0003f650       _strncnt                   00440650 f   LIBCMTD:a_map.obj
 0001:00040cc0       __tzset_lk                 00441cc0 f   LIBCMTD:tzset.obj
 0001:00041150       __isindst_lk               00442150 f   LIBCMTD:tzset.obj
 0001:00041420       _cvtdate                   00442420 f   LIBCMTD:tzset.obj
 0001:000434c0       _strncnt                   004444c0 f   LIBCMTD:a_cmp.obj
 0001:00043890       _findenv                   00444890 f   LIBCMTD:setenv.obj
 0001:00043910       _copy_environ              00444910 f   LIBCMTD:setenv.obj
 0001:00043ad0       _$$$00001                  00444ad0 f   LIBCMTD:strchr.obj
 0001:00044ed0       $L57827                    00445ed0 f   AudioClass.obj
 0001:00044edb       __ehhandler$?CreateBuffer@SoundClass@@QAEJPAD@Z 00445edb f   AudioClass.obj
 0001:00044ee5       $L57858                    00445ee5 f   AudioClass.obj
 0001:00044ef0       __ehhandler$?CreateBuffer@SoundClass@@QAEJPAEKPAUtWAVEFORMATEX@@@Z 00445ef0 f   AudioClass.obj
 0001:00044f00       $L222510                   00445f00 f   CuteCar.obj
 0001:00044f08       $L222511                   00445f08 f   CuteCar.obj
 0001:00044f10       __ehhandler$_WinMain@16    00445f10 f   CuteCar.obj
 0001:00044f20       $L222534                   00445f20 f   CuteCar.obj
 0001:00044f2b       $L222536                   00445f2b f   CuteCar.obj
 0001:00044f44       $L222538                   00445f44 f   CuteCar.obj
 0001:00044f5d       $L222540                   00445f5d f   CuteCar.obj
 0001:00044f76       __ehhandler$?setup@ExampleApplication@@MAE_NXZ 00445f76 f   CuteCar.obj
 0001:00044f80       $L222553                   00445f80 f   CuteCar.obj
 0001:00044f88       __ehhandler$?configure@ExampleApplication@@MAE_NXZ 00445f88 f   CuteCar.obj
 0001:00044fa0       $L222562                   00445fa0 f   CuteCar.obj
 0001:00044fa8       __ehhandler$?chooseSceneManager@ExampleApplication@@MAEXXZ 00445fa8 f   CuteCar.obj
 0001:00044fc0       $L222573                   00445fc0 f   CuteCar.obj
 0001:00044fc8       __ehhandler$?createCamera@ExampleApplication@@MAEXXZ 00445fc8 f   CuteCar.obj
 0001:00044fe0       $L222586                   00445fe0 f   CuteCar.obj
 0001:00044feb       __ehhandler$?createFrameListener@ExampleApplication@@MAEXXZ 00445feb f   CuteCar.obj
 0001:00045000       $L222605                   00446000 f   CuteCar.obj
 0001:00045009       $L222606                   00446009 f   CuteCar.obj
 0001:00045015       $L222607                   00446015 f   CuteCar.obj
 0001:0004501d       $L222608                   0044601d f   CuteCar.obj
 0001:00045028       __ehhandler$??0ExampleFrameListener@@QAE@PAVRenderWindow@Ogre@@PAVCamera@2@_N2@Z 00446028 f   CuteCar.obj
 0001:00045040       $L222633                   00446040 f   CuteCar.obj
 0001:00045048       $L222634                   00446048 f   CuteCar.obj
 0001:00045050       $L222635                   00446050 f   CuteCar.obj
 0001:0004505b       $L222636                   0044605b f   CuteCar.obj
 0001:00045066       $L222637                   00446066 f   CuteCar.obj
 0001:00045071       $L222638                   00446071 f   CuteCar.obj
 0001:0004507c       $L222639                   0044607c f   CuteCar.obj
 0001:00045087       $L222640                   00446087 f   CuteCar.obj
 0001:00045092       $L222641                   00446092 f   CuteCar.obj
 0001:0004509d       $L222642                   0044609d f   CuteCar.obj
 0001:000450a8       __ehhandler$?processUnbufferedKeyInput@ExampleFrameListener@@UAE_NABUFrameEvent@Ogre@@@Z 004460a8 f   CuteCar.obj
 0001:000450c0       $L222702                   004460c0 f   CuteCar.obj
 0001:000450ce       $L222703                   004460ce f   CuteCar.obj
 0001:000450dc       $L222704                   004460dc f   CuteCar.obj
 0001:000450ea       $L222705                   004460ea f   CuteCar.obj
 0001:000450f8       $L222706                   004460f8 f   CuteCar.obj
 0001:00045106       $L222707                   00446106 f   CuteCar.obj
 0001:0004510e       $L222708                   0044610e f   CuteCar.obj
 0001:00045116       $L222709                   00446116 f   CuteCar.obj
 0001:0004511e       $L222710                   0044611e f   CuteCar.obj
 0001:00045129       $L222711                   00446129 f   CuteCar.obj
 0001:00045134       $L222712                   00446134 f   CuteCar.obj
 0001:0004513f       $L222713                   0044613f f   CuteCar.obj
 0001:0004514a       $L222714                   0044614a f   CuteCar.obj
 0001:00045155       $L222715                   00446155 f   CuteCar.obj
 0001:00045160       $L222716                   00446160 f   CuteCar.obj
 0001:0004516b       $L222717                   0044616b f   CuteCar.obj
 0001:00045176       $L222718                   00446176 f   CuteCar.obj
 0001:00045181       $L222719                   00446181 f   CuteCar.obj
 0001:0004518c       $L222720                   0044618c f   CuteCar.obj
 0001:00045197       $L222721                   00446197 f   CuteCar.obj
 0001:000451a2       $L222722                   004461a2 f   CuteCar.obj
 0001:000451ad       $L222723                   004461ad f   CuteCar.obj
 0001:000451b8       $L222724                   004461b8 f   CuteCar.obj
 0001:000451c3       $L222725                   004461c3 f   CuteCar.obj
 0001:000451ce       $L222726                   004461ce f   CuteCar.obj
 0001:000451d9       $L222727                   004461d9 f   CuteCar.obj
 0001:000451e4       $L222728                   004461e4 f   CuteCar.obj
 0001:000451ef       $L222729                   004461ef f   CuteCar.obj
 0001:000451fa       $L222730                   004461fa f   CuteCar.obj
 0001:00045205       __ehhandler$?updateStats@ExampleFrameListener@@IAEXXZ 00446205 f   CuteCar.obj
 0001:00045210       $L222752                   00446210 f   CuteCar.obj
 0001:00045219       $L222755                   00446219 f   CuteCar.obj
 0001:00045241       __ehhandler$??1ExampleFrameListener@@UAE@XZ 00446241 f   CuteCar.obj
 0001:00045250       $L222773                   00446250 f   CuteCar.obj
 0001:00045259       $L222774                   00446259 f   CuteCar.obj
 0001:00045264       $L222775                   00446264 f   CuteCar.obj
 0001:0004526f       $L222776                   0044626f f   CuteCar.obj
 0001:00045277       $L222777                   00446277 f   CuteCar.obj
 0001:0004527f       $L222778                   0044627f f   CuteCar.obj
 0001:00045287       $L222779                   00446287 f   CuteCar.obj
 0001:00045292       __ehhandler$?setupResources@ExampleApplication@@MAEXXZ 00446292 f   CuteCar.obj
 0001:000452a0       $L222808                   004462a0 f   CuteCar.obj
 0001:000452a8       $L222809                   004462a8 f   CuteCar.obj
 0001:000452b0       __ehhandler$?createCamera@CuteCarApplication@@UAEXXZ 004462b0 f   CuteCar.obj
 0001:000452c0       $L222822                   004462c0 f   CuteCar.obj
 0001:000452cb       __ehhandler$?createFrameListener@CuteCarApplication@@UAEXXZ 004462cb f   CuteCar.obj
 0001:000452e0       $L222900                   004462e0 f   CuteCar.obj
 0001:000452eb       $L222901                   004462eb f   CuteCar.obj
 0001:000452fa       $L222902                   004462fa f   CuteCar.obj
 0001:00045309       $L222903                   00446309 f   CuteCar.obj
 0001:0004531b       $L222904                   0044631b f   CuteCar.obj
 0001:0004532d       $L222905                   0044632d f   CuteCar.obj
 0001:00045335       $L222906                   00446335 f   CuteCar.obj
 0001:00045343       $L222907                   00446343 f   CuteCar.obj
 0001:00045351       $L222908                   00446351 f   CuteCar.obj
 0001:0004535d       $L222909                   0044635d f   CuteCar.obj
 0001:00045369       $L222910                   00446369 f   CuteCar.obj
 0001:00045375       $L222911                   00446375 f   CuteCar.obj
 0001:00045381       $L222912                   00446381 f   CuteCar.obj
 0001:0004538d       $L222913                   0044638d f   CuteCar.obj
 0001:0004539b       $L222914                   0044639b f   CuteCar.obj
 0001:000453a9       $L222915                   004463a9 f   CuteCar.obj
 0001:000453b4       $L222916                   004463b4 f   CuteCar.obj
 0001:000453bf       $L222918                   004463bf f   CuteCar.obj
 0001:000453ca       $L222919                   004463ca f   CuteCar.obj
 0001:000453d8       $L222920                   004463d8 f   CuteCar.obj
 0001:000453e6       $L222921                   004463e6 f   CuteCar.obj
 0001:000453f4       $L222922                   004463f4 f   CuteCar.obj
 0001:00045402       $L222923                   00446402 f   CuteCar.obj
 0001:00045410       $L222924                   00446410 f   CuteCar.obj
 0001:0004541e       __ehhandler$??0CuteCarFrameListener@@QAE@PAVRenderWindow@Ogre@@PAVCamera@2@PAVSceneManager@2@@Z 0044641e f   CuteCar.obj
 0001:00045430       $L222947                   00446430 f   CuteCar.obj
 0001:0004543c       $L222948                   0044643c f   CuteCar.obj
 0001:00045448       $L222949                   00446448 f   CuteCar.obj
 0001:00045454       __ehhandler$?loadMain@CuteCarFrameListener@@QAEXXZ 00446454 f   CuteCar.obj
 0001:00045460       $L222958                   00446460 f   CuteCar.obj
 0001:00045468       __ehhandler$?closesheet@CuteCarFrameListener@@QAEXXZ 00446468 f   CuteCar.obj
 0001:00045480       $L222988                   00446480 f   CuteCar.obj
 0001:0004548c       $L222989                   0044648c f   CuteCar.obj
 0001:00045498       $L222991                   00446498 f   CuteCar.obj
 0001:000454a4       $L222993                   004464a4 f   CuteCar.obj
 0001:000454b0       $L222995                   004464b0 f   CuteCar.obj
 0001:000454bc       $L222997                   004464bc f   CuteCar.obj
 0001:000454c8       $L222999                   004464c8 f   CuteCar.obj
 0001:000454d4       __ehhandler$?setupEventHandlers@CuteCarFrameListener@@QAEXXZ 004464d4 f   CuteCar.obj
 0001:000454e0       $L223040                   004464e0 f   CuteCar.obj
 0001:000454e8       $L223041                   004464e8 f   CuteCar.obj
 0001:000454f4       $L223042                   004464f4 f   CuteCar.obj
 0001:00045500       $L223043                   00446500 f   CuteCar.obj
 0001:0004550c       $L223044                   0044650c f   CuteCar.obj
 0001:00045517       $L223045                   00446517 f   CuteCar.obj
 0001:00045522       $L223046                   00446522 f   CuteCar.obj
 0001:0004552e       $L223047                   0044652e f   CuteCar.obj
 0001:0004553a       $L223048                   0044653a f   CuteCar.obj
 0001:00045546       $L223049                   00446546 f   CuteCar.obj
 0001:00045552       $L223050                   00446552 f   CuteCar.obj
 0001:0004555e       $L223051                   0044655e f   CuteCar.obj
 0001:0004556a       $L223052                   0044656a f   CuteCar.obj
 0001:00045575       $L223053                   00446575 f   CuteCar.obj
 0001:00045580       $L223054                   00446580 f   CuteCar.obj
 0001:0004558c       $L223055                   0044658c f   CuteCar.obj
 0001:00045598       $L223056                   00446598 f   CuteCar.obj
 0001:000455a4       $L223057                   004465a4 f   CuteCar.obj
 0001:000455b0       $L223058                   004465b0 f   CuteCar.obj
 0001:000455bc       $L223059                   004465bc f   CuteCar.obj
 0001:000455c8       $L223060                   004465c8 f   CuteCar.obj
 0001:000455d4       $L223061                   004465d4 f   CuteCar.obj
 0001:000455e0       $L223062                   004465e0 f   CuteCar.obj
 0001:000455eb       $L223063                   004465eb f   CuteCar.obj
 0001:000455f7       $L223064                   004465f7 f   CuteCar.obj
 0001:00045602       $L223065                   00446602 f   CuteCar.obj
 0001:0004560d       $L223066                   0044660d f   CuteCar.obj
 0001:00045618       $L223067                   00446618 f   CuteCar.obj
 0001:00045623       $L223068                   00446623 f   CuteCar.obj
 0001:0004562f       $L223069                   0044662f f   CuteCar.obj
 0001:0004563b       __ehhandler$?playscheme@CuteCarFrameListener@@QAEXXZ 0044663b f   CuteCar.obj
 0001:00045650       $L223081                   00446650 f   CuteCar.obj
 0001:0004565c       $L223082                   0044665c f   CuteCar.obj
 0001:00045668       $L223083                   00446668 f   CuteCar.obj
 0001:00045674       __ehhandler$?handleHelp@CuteCarFrameListener@@QAE_NABVEventArgs@CEGUI@@@Z 00446674 f   CuteCar.obj
 0001:00045680       $L223113                   00446680 f   CuteCar.obj
 0001:0004568c       $L223114                   0044668c f   CuteCar.obj
 0001:00045698       $L223115                   00446698 f   CuteCar.obj
 0001:000456a4       $L223116                   004466a4 f   CuteCar.obj
 0001:000456af       $L223117                   004466af f   CuteCar.obj
 0001:000456ba       $L223118                   004466ba f   CuteCar.obj
 0001:000456c6       $L223119                   004466c6 f   CuteCar.obj
 0001:000456d1       $L223120                   004466d1 f   CuteCar.obj
 0001:000456dc       $L223121                   004466dc f   CuteCar.obj
 0001:000456e8       $L223122                   004466e8 f   CuteCar.obj
 0001:000456f3       $L223123                   004466f3 f   CuteCar.obj
 0001:000456fe       $L223124                   004466fe f   CuteCar.obj
 0001:0004570a       $L223125                   0044670a f   CuteCar.obj
 0001:00045715       $L223126                   00446715 f   CuteCar.obj
 0001:00045720       $L223127                   00446720 f   CuteCar.obj
 0001:0004572c       $L223128                   0044672c f   CuteCar.obj
 0001:00045738       $L223129                   00446738 f   CuteCar.obj
 0001:00045744       $L223130                   00446744 f   CuteCar.obj
 0001:0004574f       $L223131                   0044674f f   CuteCar.obj
 0001:0004575b       $L223132                   0044675b f   CuteCar.obj
 0001:00045766       $L223133                   00446766 f   CuteCar.obj
 0001:00045772       __ehhandler$?handlePlace@CuteCarFrameListener@@QAE_NABVEventArgs@CEGUI@@@Z 00446772 f   CuteCar.obj
 0001:00045780       $L223151                   00446780 f   CuteCar.obj
 0001:0004578c       __ehhandler$?setTime@CuteCarFrameListener@@QAEXH@Z 0044678c f   CuteCar.obj
 0001:000457a0       $L223162                   004467a0 f   CuteCar.obj
 0001:000457ac       __ehhandler$?setSpeed@CuteCarFrameListener@@QAEXH@Z 004467ac f   CuteCar.obj
 0001:000457c0       $L223208                   004467c0 f   CuteCar.obj
 0001:000457ce       $L223209                   004467ce f   CuteCar.obj
 0001:000457d9       $L223210                   004467d9 f   CuteCar.obj
 0001:000457e4       $L223211                   004467e4 f   CuteCar.obj
 0001:000457ec       $L223212                   004467ec f   CuteCar.obj
 0001:000457f8       $L223213                   004467f8 f   CuteCar.obj
 0001:00045803       $L223214                   00446803 f   CuteCar.obj
 0001:0004580e       $L223215                   0044680e f   CuteCar.obj
 0001:0004581a       $L223216                   0044681a f   CuteCar.obj
 0001:00045825       $L223217                   00446825 f   CuteCar.obj
 0001:00045831       $L223218                   00446831 f   CuteCar.obj
 0001:0004583d       $L223219                   0044683d f   CuteCar.obj
 0001:00045849       $L223220                   00446849 f   CuteCar.obj
 0001:00045855       $L223221                   00446855 f   CuteCar.obj
 0001:00045861       $L223222                   00446861 f   CuteCar.obj
 0001:0004586d       $L223223                   0044686d f   CuteCar.obj
 0001:00045878       $L223224                   00446878 f   CuteCar.obj
 0001:00045884       $L223225                   00446884 f   CuteCar.obj
 0001:0004588f       $L223226                   0044688f f   CuteCar.obj
 0001:0004589a       $L223227                   0044689a f   CuteCar.obj
 0001:000458a5       $L223228                   004468a5 f   CuteCar.obj
 0001:000458b0       $L223229                   004468b0 f   CuteCar.obj
 0001:000458bc       $L223230                   004468bc f   CuteCar.obj
 0001:000458c8       $L223231                   004468c8 f   CuteCar.obj
 0001:000458d4       $L223232                   004468d4 f   CuteCar.obj
 0001:000458e0       __ehhandler$?frameStarted@CuteCarFrameListener@@UAE_NABUFrameEvent@Ogre@@@Z 004468e0 f   CuteCar.obj
 0001:000458f0       $L223262                   004468f0 f   CuteCar.obj
 0001:000458f8       $L223263                   004468f8 f   CuteCar.obj
 0001:00045917       __ehhandler$?toOgre@NxOgreConvertor@@SA?AUAllVehicleInfoOgre@@ABUAllVehicleInfoNx@@@Z 00446917 f   CuteCar.obj
 0001:00045930       $L223286                   00446930 f   CuteCar.obj
 0001:0004593c       $L223287                   0044693c f   CuteCar.obj
 0001:00045948       $L223288                   00446948 f   CuteCar.obj
 0001:00045954       $L223289                   00446954 f   CuteCar.obj
 0001:00045960       $L223290                   00446960 f   CuteCar.obj
 0001:0004596b       $L223291                   0044696b f   CuteCar.obj
 0001:00045977       __ehhandler$?GameOver@CuteCarFrameListener@@QAEXXZ 00446977 f   CuteCar.obj
 0001:00045990       $L223314                   00446990 f   CuteCar.obj
 0001:0004599c       $L223316                   0044699c f   CuteCar.obj
 0001:000459a8       $L223318                   004469a8 f   CuteCar.obj
 0001:000459b4       __ehhandler$?setupGameOverEvent@CuteCarFrameListener@@QAEXXZ 004469b4 f   CuteCar.obj
 0001:000459c0       $L223339                   004469c0 f   CuteCar.obj
 0001:000459c8       __ehhandler$?keyPressed@CuteCarFrameListener@@UAEXPAVKeyEvent@Ogre@@@Z 004469c8 f   CuteCar.obj
 0001:000459e0       $L223358                   004469e0 f   CuteCar.obj
 0001:000459ec       $L223360                   004469ec f   CuteCar.obj
 0001:000459f8       __ehhandler$?setupCheckHandler@CuteCarFrameListener@@QAEXXZ 004469f8 f   CuteCar.obj
 0001:00045a10       $L223395                   00446a10 f   CuteCar.obj
 0001:00045a18       $L223398                   00446a18 f   CuteCar.obj
 0001:00045a40       $L223401                   00446a40 f   CuteCar.obj
 0001:00045a68       $L223402                   00446a68 f   CuteCar.obj
 0001:00045a77       $L223403                   00446a77 f   CuteCar.obj
 0001:00045a86       __ehhandler$??1CuteCarFrameListener@@UAE@XZ 00446a86 f   CuteCar.obj
 0001:00045a90       __ehhandler$?_Copy@?$basic_string@DU?$char_traits@D@std@@V?$allocator@D@2@@std@@IAEXII@Z 00446a90 f   CuteCar.obj
 0001:00045aa0       $L223548                   00446aa0 f   CuteCar.obj
 0001:00045aa8       $L223549                   00446aa8 f   CuteCar.obj
 0001:00045ac1       __ehhandler$??$?HDU?$char_traits@D@std@@V?$allocator@D@1@@std@@YA?AV?$basic_string@DU?$char_traits@D@std@@V?$allocator@D@2@@0@PBDABV10@@Z 00446ac1 f   CuteCar.obj
 0001:00045ad0       $L223563                   00446ad0 f   CuteCar.obj
 0001:00045ad8       $L223564                   00446ad8 f   CuteCar.obj
 0001:00045af1       __ehhandler$??$?HDU?$char_traits@D@std@@V?$allocator@D@1@@std@@YA?AV?$basic_string@DU?$char_traits@D@std@@V?$allocator@D@2@@0@ABV10@PBD@Z 00446af1 f   CuteCar.obj
 0001:00045b00       $L223578                   00446b00 f   CuteCar.obj
 0001:00045b08       $L223579                   00446b08 f   CuteCar.obj
 0001:00045b21       __ehhandler$??$?HDU?$char_traits@D@std@@V?$allocator@D@1@@std@@YA?AV?$basic_string@DU?$char_traits@D@std@@V?$allocator@D@2@@0@ABV10@0@Z 00446b21 f   CuteCar.obj
 0001:00045b30       $L223593                   00446b30 f   CuteCar.obj
 0001:00045b3b       __ehhandler$??$?0VCuteCarFrameListener@@@?$SubscriberTemplate@_NABVEventArgs@CEGUI@@@CEGUI@@QAE@P8CuteCarFrameListener@@AE_NABVEventArgs@1@@ZPAV2@@Z 00446b3b f   CuteCar.obj
 0001:00045b50       $L142257                   00446b50 f   NxAllVehicle.obj
 0001:00045b5b       $L142258                   00446b5b f   NxAllVehicle.obj
 0001:00045b66       __ehhandler$??0NxAllVehicle@@IAE@XZ 00446b66 f   NxAllVehicle.obj
 0001:00045b70       $L142269                   00446b70 f   NxAllVehicle.obj
 0001:00045b7b       __ehhandler$??1NxAllVehicle@@MAE@XZ 00446b7b f   NxAllVehicle.obj
 0001:00045b85       $L142282                   00446b85 f   NxAllVehicle.obj
 0001:00045b90       __ehhandler$?getSingleton@NxAllVehicle@@SAPAV1@XZ 00446b90 f   NxAllVehicle.obj
 0001:00045b9a       $L142297                   00446b9a f   NxAllVehicle.obj
 0001:00045ba2       $L142298                   00446ba2 f   NxAllVehicle.obj
 0001:00045bad       $L142299                   00446bad f   NxAllVehicle.obj
 0001:00045bc3       $L142300                   00446bc3 f   NxAllVehicle.obj
 0001:00045bd9       $L142301                   00446bd9 f   NxAllVehicle.obj
 0001:00045be4       $L142302                   00446be4 f   NxAllVehicle.obj
 0001:00045bef       $L142303                   00446bef f   NxAllVehicle.obj
 0001:00045bfd       $L142304                   00446bfd f   NxAllVehicle.obj
 0001:00045c08       $L142305                   00446c08 f   NxAllVehicle.obj
 0001:00045c13       $L142306                   00446c13 f   NxAllVehicle.obj
 0001:00045c21       $L142307                   00446c21 f   NxAllVehicle.obj
 0001:00045c29       $L142308                   00446c29 f   NxAllVehicle.obj
 0001:00045c34       $L142309                   00446c34 f   NxAllVehicle.obj
 0001:00045c3f       __ehhandler$?addVehicle@NxAllVehicle@@QAEPAVNxVehicle@@ABVNxVec3@@VVehicleInfo@@V?$basic_string@DU?$char_traits@D@std@@V?$allocator@D@2@@std@@PAVNxScene@@PAVNxPhysicsSDK@@@Z 00446c3f f   NxAllVehicle.obj
 0001:00045c49       $L142486                   00446c49 f   NxAllVehicle.obj
 0001:00045c51       __ehhandler$?setCurrentUser@NxAllVehicle@@QAEHABV?$basic_string@DU?$char_traits@D@std@@V?$allocator@D@2@@std@@@Z 00446c51 f   NxAllVehicle.obj
 0001:00045c5b       $L142520                   00446c5b f   NxAllVehicle.obj
 0001:00045c66       $L142521                   00446c66 f   NxAllVehicle.obj
 0001:00045c71       __ehhandler$?getVehicleInfo@NxAllVehicle@@QAEPAUAllVehicleInfoNx@@XZ 00446c71 f   NxAllVehicle.obj
 0001:00045c80       $L142375                   00446c80 f   NxAllVehicle.obj
 0001:00045c88       $L142376                   00446c88 f   NxAllVehicle.obj
 0001:00045c93       __ehhandler$??0NxVehicleDesc@@QAE@XZ 00446c93 f   NxAllVehicle.obj
 0001:00045ca0       $L142385                   00446ca0 f   NxAllVehicle.obj
 0001:00045ca8       __ehhandler$??0NxBoxShapeDesc@@QAE@XZ 00446ca8 f   NxAllVehicle.obj
 0001:00045cc0       $L142393                   00446cc0 f   NxAllVehicle.obj
 0001:00045ccb       $L142394                   00446ccb f   NxAllVehicle.obj
 0001:00045cd6       __ehhandler$??0NxShapeDesc@@IAE@W4NxShapeType@@@Z 00446cd6 f   NxAllVehicle.obj
 0001:00045ce0       $L142405                   00446ce0 f   NxAllVehicle.obj
 0001:00045ce8       __ehhandler$??0NxMat34@@QAE@_N@Z 00446ce8 f   NxAllVehicle.obj
 0001:00045d00       $L142419                   00446d00 f   NxAllVehicle.obj
 0001:00045d0b       __ehhandler$??1NxShapeDesc@@UAE@XZ 00446d0b f   NxAllVehicle.obj
 0001:00045d20       $L142450                   00446d20 f   NxAllVehicle.obj
 0001:00045d28       __ehhandler$??0NxConvexShapeDesc@@QAE@XZ 00446d28 f   NxAllVehicle.obj
 0001:00045d40       $L142465                   00446d40 f   NxAllVehicle.obj
 0001:00045d48       __ehhandler$??1NxVehicleDesc@@QAE@XZ 00446d48 f   NxAllVehicle.obj
 0001:00045d60       $L142694                   00446d60 f   NxAllVehicle.obj
 0001:00045d68       __ehhandler$?erase@?$_Tree@V?$_Tmap_traits@MMU?$less@M@std@@V?$allocator@U?$pair@$$CBMM@std@@@2@$0A@@std@@@std@@QAE?AViterator@12@V312@@Z 00446d68 f   NxAllVehicle.obj
 0001:00045d80       $L142704                   00446d80 f   NxAllVehicle.obj
 0001:00045d88       __ehhandler$??0logic_error@std@@QAE@ABV?$basic_string@DU?$char_traits@D@std@@V?$allocator@D@2@@1@@Z 00446d88 f   NxAllVehicle.obj
 0001:00045da0       $L142715                   00446da0 f   NxAllVehicle.obj
 0001:00045da8       __ehhandler$??1logic_error@std@@UAE@XZ 00446da8 f   NxAllVehicle.obj
 0001:00045dc0       $L142733                   00446dc0 f   NxAllVehicle.obj
 0001:00045dc8       __ehhandler$??0logic_error@std@@QAE@ABV01@@Z 00446dc8 f   NxAllVehicle.obj
 0001:00045de0       $L142746                   00446de0 f   NxAllVehicle.obj
 0001:00045de8       __ehhandler$?_Insert@?$_Tree@V?$_Tmap_traits@MMU?$less@M@std@@V?$allocator@U?$pair@$$CBMM@std@@@2@$0A@@std@@@std@@IAE?AViterator@12@_NPAU_Node@?$_Tree_nod@V?$_Tmap_traits@MMU?$less@M@std@@V?$allocator@U?$pair@$$CBMM@std@@@2@$0A@@std@@@2@ABU?$pair@$$CBMM@2@@Z 00446de8 f   NxAllVehicle.obj
 0001:00045e00       __ehhandler$?_Buynode@?$_Tree@V?$_Tmap_traits@MMU?$less@M@std@@V?$allocator@U?$pair@$$CBMM@std@@@2@$0A@@std@@@std@@IAEPAU_Node@?$_Tree_nod@V?$_Tmap_traits@MMU?$less@M@std@@V?$allocator@U?$pair@$$CBMM@std@@@2@$0A@@std@@@2@XZ 00446e00 f   NxAllVehicle.obj
 0001:00045e10       $L142851                   00446e10 f   NxAllVehicle.obj
 0001:00045e21       __ehhandler$?_Buynode@?$_Tree@V?$_Tmap_traits@MMU?$less@M@std@@V?$allocator@U?$pair@$$CBMM@std@@@2@$0A@@std@@@std@@IAEPAU_Node@?$_Tree_nod@V?$_Tmap_traits@MMU?$less@M@std@@V?$allocator@U?$pair@$$CBMM@std@@@2@$0A@@std@@@2@PAU342@00ABU?$pair@$$CBMM@2@D@Z 00446e21 f   NxAllVehicle.obj
 0001:00045e30       $L142214                   00446e30 f   NxTerrain.obj
 0001:00045e3e       $L142215                   00446e3e f   NxTerrain.obj
 0001:00045e49       $L142216                   00446e49 f   NxTerrain.obj
 0001:00045e51       $L142217                   00446e51 f   NxTerrain.obj
 0001:00045e59       $L142218                   00446e59 f   NxTerrain.obj
 0001:00045e64       __ehhandler$?createNxTerrain@NxTerrain@@QAEXXZ 00446e64 f   NxTerrain.obj
 0001:00045e6e       $L142335                   00446e6e f   NxTerrain.obj
 0001:00045e76       __ehhandler$?addUser@NxTerrain@@QAEXABVNxVec3@@VVehicleInfo@@V?$basic_string@DU?$char_traits@D@std@@V?$allocator@D@2@@std@@@Z 00446e76 f   NxTerrain.obj
 0001:00045e80       $L142229                   00446e80 f   NxTerrain.obj
 0001:00045e88       $L142230                   00446e88 f   NxTerrain.obj
 0001:00045e93       __ehhandler$??0NxActorDesc@@QAE@XZ 00446e93 f   NxTerrain.obj
 0001:00045ea0       $L142265                   00446ea0 f   NxTerrain.obj
 0001:00045ea8       __ehhandler$??0NxTriangleMeshShapeDesc@@QAE@XZ 00446ea8 f   NxTerrain.obj
 0001:00045ec0       $L142313                   00446ec0 f   NxTerrain.obj
 0001:00045ec8       __ehhandler$??1NxActorDesc@@QAE@XZ 00446ec8 f   NxTerrain.obj
 0001:00045ee0       $L24057                    00446ee0 f   NxTerrainItem.obj
 0001:00045eee       $L24058                    00446eee f   NxTerrainItem.obj
 0001:00045ef9       $L24059                    00446ef9 f   NxTerrainItem.obj
 0001:00045f04       __ehhandler$?createTerrainItem@NxTerrainItem@@SAPAV1@W4ItemType@@ABVNxVec3@@M@Z 00446f04 f   NxTerrainItem.obj
 0001:00045f0e       $L24187                    00446f0e f   NxTerrainItem.obj
 0001:00045f1c       $L24188                    00446f1c f   NxTerrainItem.obj
 0001:00045f27       $L24189                    00446f27 f   NxTerrainItem.obj
 0001:00045f32       $L24190                    00446f32 f   NxTerrainItem.obj
 0001:00045f40       $L24191                    00446f40 f   NxTerrainItem.obj
 0001:00045f4b       $L24192                    00446f4b f   NxTerrainItem.obj
 0001:00045f56       __ehhandler$?addScratchLine@NxTerrainItem@@SAXXZ 00446f56 f   NxTerrainItem.obj
 0001:00045f60       $L24239                    00446f60 f   NxTerrainItem.obj
 0001:00045f6b       $L24240                    00446f6b f   NxTerrainItem.obj
 0001:00045f73       __ehhandler$?onTrigger@ItemTrigger@NxTerrainItem@@UAEXAAVNxShape@@0W4NxShapeFlag@@@Z 00446f73 f   NxTerrainItem.obj
 0001:00045f80       $L25352                    00446f80 f   NxVehicle.obj
 0001:00045f8b       $L25353                    00446f8b f   NxVehicle.obj
 0001:00045f96       __ehhandler$??0NxVehicle@@AAE@XZ 00446f96 f   NxVehicle.obj
 0001:00045fa0       $L25370                    00446fa0 f   NxVehicle.obj
 0001:00045fab       $L25371                    00446fab f   NxVehicle.obj
 0001:00045fb6       __ehhandler$??1NxVehicle@@QAE@XZ 00446fb6 f   NxVehicle.obj
 0001:00045fc0       $L25402                    00446fc0 f   NxVehicle.obj
 0001:00045fce       $L25403                    00446fce f   NxVehicle.obj
 0001:00045fd9       $L25404                    00446fd9 f   NxVehicle.obj
 0001:00045fe4       __ehhandler$?_createVehicle@NxVehicle@@CAPAV1@PAVNxScene@@PAVNxVehicleDesc@@@Z 00446fe4 f   NxVehicle.obj
 0001:00045fee       $L25510                    00446fee f   NxVehicle.obj
 0001:00045ff6       __ehhandler$?createVehicle@NxVehicle@@SAPAV1@PAVNxScene@@PAVNxVehicleDesc@@V?$basic_string@DU?$char_traits@D@std@@V?$allocator@D@2@@std@@@Z 00446ff6 f   NxVehicle.obj
 0001:00046000       $L25523                    00447000 f   NxVehicle.obj
 0001:0004600e       $L25524                    0044700e f   NxVehicle.obj
 0001:00046019       $L25525                    00447019 f   NxVehicle.obj
 0001:00046038       __ehhandler$?getInfoForOgre@NxVehicle@@QAE?AUAllVehicleInfoNx@@XZ 00447038 f   NxVehicle.obj
 0001:00046042       $L25588                    00447042 f   NxVehicle.obj
 0001:0004604d       __ehhandler$?updateVehicle@NxVehicle@@QAEXM@Z 0044704d f   NxVehicle.obj
 0001:00046057       $L25624                    00447057 f   NxVehicle.obj
 0001:0004605f       __ehhandler$?_computeMostTouchedActor@NxVehicle@@AAEXXZ 0044705f f   NxVehicle.obj
 0001:00046070       $L25418                    00447070 f   NxVehicle.obj
 0001:00046078       __ehhandler$??0NxBodyDesc@@QAE@XZ 00447078 f   NxVehicle.obj
 0001:00046090       $L25464                    00447090 f   NxVehicle.obj
 0001:0004609b       __ehhandler$?createVehicleGears@NxVehicleGears@@SAPAV1@ABVNxVehicleGearDesc@@@Z 0044709b f   NxVehicle.obj
 0001:000460b0       $L25479                    004470b0 f   NxVehicle.obj
 0001:000460bb       __ehhandler$?createMotor@NxVehicleMotor@@SAPAV1@ABVNxVehicleMotorDesc@@@Z 004470bb f   NxVehicle.obj
 0001:000460d0       __ehhandler$?_Copy@?$_Tree@V?$_Tmap_traits@MMU?$less@M@std@@V?$allocator@U?$pair@$$CBMM@std@@@2@$0A@@std@@@std@@IAEPAU_Node@?$_Tree_nod@V?$_Tmap_traits@MMU?$less@M@std@@V?$allocator@U?$pair@$$CBMM@std@@@2@$0A@@std@@@2@PAU342@0@Z 004470d0 f   NxVehicle.obj
 0001:000460e0       $L25975                    004470e0 f   NxVehicle.obj
 0001:000460e8       __ehhandler$?_Insert@?$_Tree@V?$_Tmap_traits@PAVNxActor@@IU?$less@PAVNxActor@@@std@@V?$allocator@U?$pair@QAVNxActor@@I@std@@@3@$0A@@std@@@std@@IAE?AViterator@12@_NPAU_Node@?$_Tree_nod@V?$_Tmap_traits@PAVNxActor@@IU?$less@PAVNxActor@@@std@@V?$allocator@U?$pair@QAVNxActor@@I@std@@@3@$0A@@std@@@2@ABU?$pair@QAVNxActor@@I@2@@Z 004470e8 f   NxVehicle.obj
 0001:00046100       $L26081                    00447100 f   NxVehicle.obj
 0001:00046108       __ehhandler$?erase@?$_Tree@V?$_Tmap_traits@PAVNxActor@@IU?$less@PAVNxActor@@@std@@V?$allocator@U?$pair@QAVNxActor@@I@std@@@3@$0A@@std@@@std@@QAE?AViterator@12@V312@@Z 00447108 f   NxVehicle.obj
 0001:00046120       __ehhandler$?_Buynode@?$_Tree@V?$_Tmap_traits@PAVNxActor@@IU?$less@PAVNxActor@@@std@@V?$allocator@U?$pair@QAVNxActor@@I@std@@@3@$0A@@std@@@std@@IAEPAU_Node@?$_Tree_nod@V?$_Tmap_traits@PAVNxActor@@IU?$less@PAVNxActor@@@std@@V?$allocator@U?$pair@QAVNxActor@@I@std@@@3@$0A@@std@@@2@XZ 00447120 f   NxVehicle.obj
 0001:00046130       $L26115                    00447130 f   NxVehicle.obj
 0001:00046141       __ehhandler$?_Buynode@?$_Tree@V?$_Tmap_traits@PAVNxActor@@IU?$less@PAVNxActor@@@std@@V?$allocator@U?$pair@QAVNxActor@@I@std@@@3@$0A@@std@@@std@@IAEPAU_Node@?$_Tree_nod@V?$_Tmap_traits@PAVNxActor@@IU?$less@PAVNxActor@@@std@@V?$allocator@U?$pair@QAVNxActor@@I@std@@@3@$0A@@std@@@2@PAU342@00ABU?$pair@QAVNxActor@@I@2@D@Z 00447141 f   NxVehicle.obj
 0001:00046150       $L11765                    00447150 f   NxWheel.obj
 0001:0004615b       __ehhandler$?createWheel@NxWheel@@SAPAV1@PAVNxActor@@PAVNxWheelDesc@@@Z 0044715b f   NxWheel.obj
 0001:00046165       $L11776                    00447165 f   NxWheel.obj
 0001:00046170       __ehhandler$??0NxWheel@@AAE@PAVNxActor@@PAVNxWheelDesc@@@Z 00447170 f   NxWheel.obj
 0001:00046180       $L11808                    00447180 f   NxWheel.obj
 0001:00046188       __ehhandler$??0NxWheelShapeDesc@@QAE@XZ 00447188 f   NxWheel.obj
 0001:000461a0       $L131992                   004471a0 f   OgreAllVehicle.obj
 0001:000461ab       __ehhandler$??0OgreAllVehicle@@IAE@XZ 004471ab f   OgreAllVehicle.obj
 0001:000461b5       $L132011                   004471b5 f   OgreAllVehicle.obj
 0001:000461c0       __ehhandler$?getSingleton@OgreAllVehicle@@SAPAV1@XZ 004471c0 f   OgreAllVehicle.obj
 0001:000461ca       $L132020                   004471ca f   OgreAllVehicle.obj
 0001:000461d2       __ehhandler$?addVehicle@OgreAllVehicle@@QAEPAVOgreVehicle@@PAVSceneNode@Ogre@@V?$basic_string@DU?$char_traits@D@std@@V?$allocator@D@2@@std@@VVector3@4@@Z 004471d2 f   OgreAllVehicle.obj
 0001:000461dc       $L132028                   004471dc f   OgreAllVehicle.obj
 0001:000461e4       __ehhandler$?updateAllVehicle@OgreAllVehicle@@QAEXPAUAllVehicleInfoOgre@@@Z 004471e4 f   OgreAllVehicle.obj
 0001:000461ee       $L132036                   004471ee f   OgreAllVehicle.obj
 0001:000461f6       __ehhandler$?getUserVehicle@OgreAllVehicle@@QAEPAVOgreVehicle@@ABV?$basic_string@DU?$char_traits@D@std@@V?$allocator@D@2@@std@@@Z 004471f6 f   OgreAllVehicle.obj
 0001:00046200       $L132043                   00447200 f   OgreAllVehicle.obj
 0001:0004620b       $L132044                   0044720b f   OgreAllVehicle.obj
 0001:00046216       __ehhandler$??0OgreVehicle@@IAE@XZ 00447216 f   OgreAllVehicle.obj
 0001:00046220       $L132051                   00447220 f   OgreAllVehicle.obj
 0001:0004622b       __ehhandler$??1OgreVehicle@@UAE@XZ 0044722b f   OgreAllVehicle.obj
 0001:00046235       $L132075                   00447235 f   OgreAllVehicle.obj
 0001:0004623d       $L132076                   0044723d f   OgreAllVehicle.obj
 0001:00046248       $L132077                   00447248 f   OgreAllVehicle.obj
 0001:00046250       $L132078                   00447250 f   OgreAllVehicle.obj
 0001:00046258       $L132079                   00447258 f   OgreAllVehicle.obj
 0001:00046260       $L132080                   00447260 f   OgreAllVehicle.obj
 0001:0004626b       $L132081                   0044726b f   OgreAllVehicle.obj
 0001:00046276       __ehhandler$?createOgreVehicle@OgreVehicle@@SAPAV1@PAVSceneNode@Ogre@@V?$basic_string@DU?$char_traits@D@std@@V?$allocator@D@2@@std@@VVector3@3@@Z 00447276 f   OgreAllVehicle.obj
 0001:00046280       $L132095                   00447280 f   OgreAllVehicle.obj
 0001:00046288       $L132096                   00447288 f   OgreAllVehicle.obj
 0001:00046290       __ehhandler$?updateVehicle@OgreVehicle@@QAEXABUAllVehicleInfoOgre@@@Z 00447290 f   OgreAllVehicle.obj
 0001:0004629a       $L132108                   0044729a f   OgreAllVehicle.obj
 0001:000462a2       __ehhandler$?attachCamera@OgreVehicle@@QAEXPAVCamera@Ogre@@@Z 004472a2 f   OgreAllVehicle.obj
 0001:000462ac       $L132116                   004472ac f   OgreAllVehicle.obj
 0001:000462b4       $L132117                   004472b4 f   OgreAllVehicle.obj
 0001:000462bc       __ehhandler$?setCamera@OgreVehicle@@QAEXABVVector3@Ogre@@ABVQuaternion@3@@Z 004472bc f   OgreAllVehicle.obj
 0001:000462c6       $L132124                   004472c6 f   OgreAllVehicle.obj
 0001:000462ce       __ehhandler$?removeCamera@OgreVehicle@@QAEXXZ 004472ce f   OgreAllVehicle.obj
 0001:000462d8       $L132150                   004472d8 f   OgreAllVehicle.obj
 0001:000462e3       $L132151                   004472e3 f   OgreAllVehicle.obj
 0001:000462eb       $L132152                   004472eb f   OgreAllVehicle.obj
 0001:000462f3       $L132153                   004472f3 f   OgreAllVehicle.obj
 0001:000462fb       $L132154                   004472fb f   OgreAllVehicle.obj
 0001:00046306       $L132155                   00447306 f   OgreAllVehicle.obj
 0001:00046311       __ehhandler$?createOgreWheel@OgreWheel@@SAPAV1@PAVSceneNode@Ogre@@VVector3@3@@Z 00447311 f   OgreAllVehicle.obj
 0001:0004631b       $L132180                   0044731b f   OgreAllVehicle.obj
 0001:00046323       $L132181                   00447323 f   OgreAllVehicle.obj
 0001:0004632e       $L132182                   0044732e f   OgreAllVehicle.obj
 0001:00046336       $L132183                   00447336 f   OgreAllVehicle.obj
 0001:0004633e       $L132184                   0044733e f   OgreAllVehicle.obj
 0001:00046349       __ehhandler$?createOgreTerrainItem@OgreTerrainItem@@SAPAV1@PAVSceneNode@Ogre@@ABVVector3@3@W4ItemType@@H@Z 00447349 f   OgreAllVehicle.obj
 0001:00046360       __ehhandler$?_Insert_n@?$vector@W4ItemType@@V?$allocator@W4ItemType@@@std@@@std@@IAEXViterator@12@IABW4ItemType@@@Z 00447360 f   OgreAllVehicle.obj
 0001:00046370       $L132312                   00447370 f   OgreAllVehicle.obj
 0001:00046378       __ehhandler$?_Xlen@?$vector@W4ItemType@@V?$allocator@W4ItemType@@@std@@@std@@IBEXXZ 00447378 f   OgreAllVehicle.obj
 0001:00046390       __ehhandler$?_Insert_n@?$vector@PAVOgreVehicle@@V?$allocator@PAVOgreVehicle@@@std@@@std@@IAEXViterator@12@IABQAVOgreVehicle@@@Z 00447390 f   OgreAllVehicle.obj
 0001:000463a0       $L132380                   004473a0 f   OgreAllVehicle.obj
 0001:000463a8       __ehhandler$?_Xlen@?$vector@PAVOgreVehicle@@V?$allocator@PAVOgreVehicle@@@std@@@std@@IBEXXZ 004473a8 f   OgreAllVehicle.obj
 0001:000463c0       __ehhandler$??$_Uninit_fill_n@PAW4ItemType@@IW41@V?$allocator@W4ItemType@@@std@@@std@@YAXPAW4ItemType@@IABW41@AAV?$allocator@W4ItemType@@@0@U_Nonscalar_ptr_iterator_tag@0@@Z 004473c0 f   OgreAllVehicle.obj
 0001:000463d0       __ehhandler$??$_Uninit_copy@PAW4ItemType@@PAW41@V?$allocator@W4ItemType@@@std@@@std@@YAPAW4ItemType@@PAW41@00AAV?$allocator@W4ItemType@@@0@U_Nonscalar_ptr_iterator_tag@0@@Z 004473d0 f   OgreAllVehicle.obj
 0001:000463e0       $L131581                   004473e0 f   OgreTerrain.obj
 0001:000463eb       __ehhandler$??0OgreTerrain@@QAE@PAVSceneManager@Ogre@@@Z 004473eb f   OgreTerrain.obj
 0001:000463f5       $L131598                   004473f5 f   OgreTerrain.obj
 0001:000463fd       $L131599                   004473fd f   OgreTerrain.obj
 0001:00046405       $L131600                   00447405 f   OgreTerrain.obj
 0001:0004640d       __ehhandler$?createOgreTerrain@OgreTerrain@@QAEXXZ 0044740d f   OgreTerrain.obj
 0001:00046417       $L131609                   00447417 f   OgreTerrain.obj
 0001:0004641f       __ehhandler$?addUser@OgreTerrain@@QAEXV?$basic_string@DU?$char_traits@D@std@@V?$allocator@D@2@@std@@VVector3@Ogre@@@Z 0044741f f   OgreTerrain.obj
 0001:00046429       $L131617                   00447429 f   OgreTerrain.obj
 0001:00046431       __ehhandler$?updateAllOgre@OgreTerrain@@QAEXPAUAllVehicleInfoOgre@@@Z 00447431 f   OgreTerrain.obj
 0001:0004643b       $L131634                   0044743b f   OgreTerrain.obj
 0001:00046443       $L131635                   00447443 f   OgreTerrain.obj
 0001:0004644b       $L131636                   0044744b f   OgreTerrain.obj
 0001:00046453       $L131637                   00447453 f   OgreTerrain.obj
 0001:0004645e       $L131638                   0044745e f   OgreTerrain.obj
 0001:00046469       $L131639                   00447469 f   OgreTerrain.obj
 0001:00046474       $L131640                   00447474 f   OgreTerrain.obj
 0001:0004647f       $L131641                   0044747f f   OgreTerrain.obj
 0001:0004648a       $L131642                   0044748a f   OgreTerrain.obj
 0001:00046495       __ehhandler$?userCamera@OgreTerrain@@QAEHPAVCamera@Ogre@@ABV?$basic_string@DU?$char_traits@D@std@@V?$allocator@D@2@@std@@@Z 00447495 f   OgreTerrain.obj
 0001:0004649f       $L131669                   0044749f f   OgreTerrain.obj
 0001:000464a7       $L131670                   004474a7 f   OgreTerrain.obj
 0001:000464af       __ehhandler$?addScratchLine@OgreTerrain@@QAEXXZ 004474af f   OgreTerrain.obj
 0001:000464c0       __ehhandler$?_Insert_n@?$vector@PAVOgreTerrainItem@@V?$allocator@PAVOgreTerrainItem@@@std@@@std@@IAEXViterator@12@IABQAVOgreTerrainItem@@@Z 004474c0 f   OgreTerrain.obj
 0001:000464d0       $L131764                   004474d0 f   OgreTerrain.obj
 0001:000464d8       __ehhandler$?_Xlen@?$vector@PAVOgreTerrainItem@@V?$allocator@PAVOgreTerrainItem@@@std@@@std@@IBEXXZ 004474d8 f   OgreTerrain.obj
 0001:000464f0       $L11823                    004474f0 f   SampleCommonCodeDEBUG:Stream.obj
 0001:000464f8       __ehhandler$??1MemoryWriteBuffer@@UAE@XZ 004474f8 f   SampleCommonCodeDEBUG:Stream.obj
 0001:00046510       $L12204                    00447510 f   libcpmtd:string.obj
 0001:00046518       __ehhandler$?_Xlen@_String_base@std@@QBEXXZ 00447518 f   libcpmtd:string.obj
 0001:00046530       $L12264                    00447530 f   libcpmtd:string.obj
 0001:00046538       __ehhandler$?_Xran@_String_base@std@@QBEXXZ 00447538 f   libcpmtd:string.obj
 0001:00046550       _$E6                       00447550 f   CuteCar.obj
 0001:00046570       _$E8                       00447570 f   CuteCar.obj
 0001:00046590       _$E10                      00447590 f   CuteCar.obj
 0001:000465b0       _$E2                       004475b0 f   NxAllVehicle.obj
 0001:000465d0       _$E4                       004475d0 f   NxAllVehicle.obj
 0001:000465f0       _$E6                       004475f0 f   NxAllVehicle.obj
 0001:00046610       _$E1                       00447610 f   NxTerrain.obj
 0001:00046620       _$E3                       00447620 f   NxTerrain.obj
 0001:00046640       _$E5                       00447640 f   NxTerrain.obj
 0001:00046660       _$E7                       00447660 f   NxTerrain.obj
 0001:00046680       _$E1                       00447680 f   NxTerrainItem.obj
 0001:000466a0       _$E4                       004476a0 f   NxTerrainItem.obj
 0001:000466e0       _$E1                       004476e0 f   OgreAllVehicle.obj
 0001:00046700       _$E3                       00447700 f   OgreAllVehicle.obj
 0001:00046720       _$E5                       00447720 f   OgreAllVehicle.obj
 0001:00046740       _$E1                       00447740 f   OgreTerrain.obj
 0001:00046760       _$E3                       00447760 f   OgreTerrain.obj
 0001:00046780       _$E5                       00447780 f   OgreTerrain.obj
 0001:000467f0       _$E2                       004477f0 f   NxTerrainItem.obj

Line numbers for .\Debug\OgreTerrain.obj(d:\program files\microsoft visual studio .net 2003\vc7\include\ios) segment .text

   119 0001:00046740   119 0001:00046760   119 0001:00046780

Line numbers for .\Debug\OgreTerrain.obj(d:\program files\microsoft visual studio .net 2003\vc7\include\memory) segment .text

   255 0001:000206e0   257 0001:000206e4   258 0001:00020713   236 0001:00020840
   237 0001:00020843   238 0001:00020857   126 0001:00020860   128 0001:00020864
   129 0001:00020893   105 0001:00020910   106 0001:00020914   108 0001:00020920
   109 0001:0002093d

Line numbers for .\Debug\OgreTerrain.obj(d:\program files\microsoft visual studio .net 2003\vc7\include\xutility) segment .text

  1039 0001:00020660  1040 0001:00020664  1041 0001:0002068f  1134 0001:00020750
  1135 0001:00020753  1136 0001:00020766  1137 0001:00020772  1067 0001:00020780
  1069 0001:00020784  1070 0001:000207af   218 0001:000207e0   220 0001:000207e4
   221 0001:000207e7  1030 0001:000207f0  1031 0001:000207f4  1033 0001:00020800
  1034 0001:0002081d  1058 0001:000208a0  1059 0001:000208a4  1061 0001:000208b0
  1062 0001:000208cf  1159 0001:000208e0  1160 0001:000208e3  1161 0001:000208fd
  1162 0001:00020909

Line numbers for .\Debug\OgreTerrain.obj(d:\program files\microsoft visual studio .net 2003\vc7\include\xmemory) segment .text

   111 0001:00020100   113 0001:00020107   115 0001:00020520   117 0001:00020527
   131 0001:00020530   132 0001:00020537   133 0001:00020543   136 0001:00020550
   137 0001:00020557   138 0001:00020565   156 0001:000205f0   157 0001:000205f9
   158 0001:00020600   159 0001:00020618   216 0001:000206a0   217 0001:000206a4
   218 0001:000206cf    33 0001:000207c0    34 0001:000207c3    35 0001:000207d2
   233 0001:00020830   234 0001:00020833

Line numbers for .\Debug\OgreTerrain.obj(d:\program files\microsoft visual studio .net 2003\vc7\include\vector) segment .text

   299 0001:0001fc90   300 0001:0001fca9   301 0001:0001fcb3   387 0001:0001fcc0
   388 0001:0001fcc7   389 0001:0001fccf   462 0001:0001fce0   463 0001:0001fce7
   464 0001:0001fcf9   472 0001:0001fd00   473 0001:0001fd07   474 0001:0001fd19
   579 0001:0001fd20   580 0001:0001fd2a   581 0001:0001fd40   582 0001:0001fd5b
   583 0001:0001fd5d   584 0001:0001fd7c   723 0001:0001fd90   724 0001:0001fd97
   725 0001:0001fdb1   726 0001:0001fdca   727 0001:0001fdd9   728 0001:0001fde4
   743 0001:0001fdf0   744 0001:0001fdf7   745 0001:0001fdff   219 0001:0001fe10
   220 0001:0001fe17   221 0001:0001fe1f   235 0001:0001fe30   236 0001:0001fe39
   237 0001:0001fe41   238 0001:0001fe49   239 0001:0001fe54   159 0001:0001fe60
   160 0001:0001fe67   161 0001:0001fe7b   457 0001:0001fe90   458 0001:0001fe99
   459 0001:0001fec0   515 0001:0001fed0   516 0001:0001fed9   517 0001:0001ff00
   620 0001:0001ff10   621 0001:0001ff19   622 0001:0001ff4c   623 0001:0001ff5e
   624 0001:0001ff7c   770 0001:0001ff90   771 0001:0001ff97   772 0001:0001ffb5
   773 0001:0001ffbb   774 0001:0001ffbf   775 0001:0001ffcc   776 0001:0001ffd4
   778 0001:0001ffd6   779 0001:0001ffe8   780 0001:0001fff4   782 0001:00020006
   783 0001:00020008   786 0001:00020010   787 0001:00020017   788 0001:0002002b
   791 0001:00020040   792 0001:00020047   794 0001:00020050   795 0001:00020066
   797 0001:00020085   798 0001:000200a3   877 0001:000200b0   878 0001:000200b7
   879 0001:000200cf   880 0001:000200d8    21 0001:000200e0    22 0001:000200f3
   215 0001:00020110   216 0001:00020123   229 0001:00020130   230 0001:00020137
   231 0001:00020144   232 0001:00020147    79 0001:00020150    82 0001:00020157
    83 0001:0002015c   152 0001:00020160   155 0001:00020167   156 0001:00020176
   520 0001:00020180   521 0001:00020187   522 0001:0002018f   809 0001:000201a0
   810 0001:000201c5   811 0001:000201cd   813 0001:000201d8   815 0001:000201de
   816 0001:000201fc   817 0001:00020204   820 0001:0002021d   821 0001:0002024b
   822 0001:0002025b   823 0001:00020269   824 0001:00020278   826 0001:0002027e
   828 0001:00020285   829 0001:000202a5   830 0001:000202c2   832 0001:000202db
   833 0001:000202eb   834 0001:000202fb   835 0001:00020304   837 0001:0002030b
   838 0001:00020319   840 0001:00020322   841 0001:00020338   843 0001:00020357
   844 0001:00020366   845 0001:00020375   847 0001:0002037e   850 0001:00020398
   852 0001:000203b5   854 0001:000203bc   856 0001:000203e3   857 0001:00020402
   858 0001:0002040b   860 0001:00020412   862 0001:00020424   864 0001:00020443
   866 0001:00020445   868 0001:0002044e   870 0001:00020473   872 0001:0002048f
   874 0001:000204a9   883 0001:000204c0   884 0001:000204de   885 0001:0002050c
   261 0001:00020570   262 0001:00020579   263 0001:00020581   264 0001:00020597
   278 0001:000205a0   279 0001:000205a9   280 0001:000205bd    73 0001:000205d0
    75 0001:000205d7    76 0001:000205df   255 0001:00020620   256 0001:00020627
   257 0001:00020637   258 0001:0002063a   140 0001:00020640   143 0001:00020647
   144 0001:00020654   801 0001:00020720   804 0001:00020727   805 0001:0002073f

Line numbers for .\Debug\OgreTerrain.obj(e:\tony\codes\fantasy\cutecar\src\ogreterrain.cpp) segment .text

     4 0001:0001f170     5 0001:0001f1a9     6 0001:0001f1b2     7 0001:0001f1ec
     8 0001:0001f1f7    11 0001:0001f220    12 0001:0001f230    15 0001:0001f240
    16 0001:0001f25e    17 0001:0001f288    19 0001:0001f2ea    20 0001:0001f349
    21 0001:0001f380    22 0001:0001f392    23 0001:0001f3ac    26 0001:0001f3c0
    27 0001:0001f3e5    28 0001:0001f3ed    29 0001:0001f422    32 0001:0001f450
    33 0001:0001f46e    35 0001:0001f4a6    36 0001:0001f4ae    37 0001:0001f4ba
    40 0001:0001f4d0    41 0001:0001f4f4    42 0001:0001f52c    43 0001:0001f53f
    45 0001:0001f549    46 0001:0001f5d4    47 0001:0001f5dc    48 0001:0001f673
    49 0001:0001f67f    50 0001:0001f716    51 0001:0001f758    52 0001:0001f7ef
    55 0001:0001f7f6    56 0001:0001f7f8    59 0001:0001f810    60 0001:0001f819
    61 0001:0001f825    62 0001:0001f847    63 0001:0001f868    66 0001:0001f870
    67 0001:0001f879    68 0001:0001f888    70 0001:0001f88e    71 0001:0001f89a
    73 0001:0001f8d6    75 0001:0001f8dd    76 0001:0001f8df    79 0001:0001f8f0
    80 0001:0001f8f9    81 0001:0001f90c    82 0001:0001f918    85 0001:0001f920
    86 0001:0001f929    87 0001:0001f947    88 0001:0001f956    91 0001:0001f960
    92 0001:0001f969    94 0001:0001f9a7    96 0001:0001f9c1    97 0001:0001f9d4
    99 0001:0001f9d6   100 0001:0001f9d8   103 0001:0001f9e0   104 0001:0001f9e9
   106 0001:0001fa27   107 0001:0001fa4a   108 0001:0001fa4c   111 0001:0001fa60
   112 0001:0001fa69   113 0001:0001fa7c   114 0001:0001fa84   117 0001:0001fa90
   118 0001:0001fa99   119 0001:0001faac   120 0001:0001fab4   123 0001:0001fac0
   124 0001:0001fac9   125 0001:0001fadc   126 0001:0001fae4   129 0001:0001faf0
   130 0001:0001fb0e   131 0001:0001fb6d   132 0001:0001fba4   133 0001:0001fbb6
   134 0001:0001fbd0   135 0001:0001fbfa   136 0001:0001fc14   139 0001:0001fc30
   140 0001:0001fc39   141 0001:0001fc4c   142 0001:0001fc54

Line numbers for .\Debug\OgreAllVehicle.obj(d:\program files\microsoft visual studio .net 2003\vc7\include\ios) segment .text

   119 0001:000466e0   119 0001:00046700   119 0001:00046720

Line numbers for .\Debug\OgreAllVehicle.obj(d:\program files\microsoft visual studio .net 2003\vc7\include\xutility) segment .text

  1134 0001:0001ec90  1135 0001:0001ec93  1136 0001:0001eca6  1137 0001:0001ecb2
  1067 0001:0001ecc0  1069 0001:0001ecc4  1070 0001:0001ecef  1134 0001:0001ed90
  1135 0001:0001ed93  1136 0001:0001eda6  1137 0001:0001edb2  1067 0001:0001edc0
  1069 0001:0001edc4  1070 0001:0001edef   218 0001:0001eec0   220 0001:0001eec4
   221 0001:0001eec7  1048 0001:0001ef30  1049 0001:0001ef33  1050 0001:0001ef3b
  1051 0001:0001ef59  1052 0001:0001ef5c  1058 0001:0001efb0  1059 0001:0001efb4
  1061 0001:0001efc0  1062 0001:0001efdf  1159 0001:0001f010  1160 0001:0001f013
  1161 0001:0001f02d  1162 0001:0001f039

Line numbers for .\Debug\OgreAllVehicle.obj(d:\program files\microsoft visual studio .net 2003\vc7\include\memory) segment .text

   255 0001:0001ebe0   257 0001:0001ebe4   258 0001:0001ec13   255 0001:0001ec20
   257 0001:0001ec24   258 0001:0001ec53   207 0001:0001ee20   208 0001:0001ee40
   210 0001:0001ee46   211 0001:0001ee4d   212 0001:0001ee67   214 0001:0001ee7b
   215 0001:0001ee8e   216 0001:0001ee9c   217 0001:0001eea5   218 0001:0001eeac
   236 0001:0001eed0   237 0001:0001eed3   238 0001:0001eee7   126 0001:0001eef0
   128 0001:0001eef4   129 0001:0001ef23   126 0001:0001ef70   128 0001:0001ef74
   129 0001:0001efa3    77 0001:0001f040    78 0001:0001f060    80 0001:0001f066
    81 0001:0001f06d    82 0001:0001f089    84 0001:0001f09d    85 0001:0001f0b0
    86 0001:0001f0be    87 0001:0001f0c7    88 0001:0001f0ce    89 0001:0001f0d1
   105 0001:0001f0f0   106 0001:0001f0f4   108 0001:0001f100   109 0001:0001f11d

Line numbers for .\Debug\OgreAllVehicle.obj(d:\program files\microsoft visual studio .net 2003\vc7\include\xmemory) segment .text

   111 0001:0001dfb0   113 0001:0001dfb7   111 0001:0001e200   113 0001:0001e207
   115 0001:0001e600   117 0001:0001e607   131 0001:0001e610   132 0001:0001e617
   133 0001:0001e623   136 0001:0001e630   137 0001:0001e637   138 0001:0001e645
   115 0001:0001ea20   117 0001:0001ea27   131 0001:0001ea30   132 0001:0001ea37
   133 0001:0001ea43   136 0001:0001ea50   137 0001:0001ea57   138 0001:0001ea65
   156 0001:0001eb20   157 0001:0001eb29   158 0001:0001eb30   159 0001:0001eb48
   156 0001:0001eb50   157 0001:0001eb59   158 0001:0001eb60   159 0001:0001eb78
    33 0001:0001ed00    34 0001:0001ed03    35 0001:0001ed12   216 0001:0001ed20
   217 0001:0001ed24   218 0001:0001ed4f    33 0001:0001ee00    34 0001:0001ee03
    35 0001:0001ee12   233 0001:0001ef60   234 0001:0001ef63   146 0001:0001eff0
   147 0001:0001eff7   148 0001:0001f007    41 0001:0001f130    42 0001:0001f136
    43 0001:0001f166

Line numbers for .\Debug\OgreAllVehicle.obj(d:\program files\microsoft visual studio .net 2003\vc7\include\vector) segment .text

   299 0001:0001db70   300 0001:0001db89   301 0001:0001db93   387 0001:0001dba0
   388 0001:0001dba7   389 0001:0001dbaf   579 0001:0001dbc0   580 0001:0001dbca
   581 0001:0001dbe0   582 0001:0001dbfb   583 0001:0001dbfd   584 0001:0001dc1c
   743 0001:0001dc30   744 0001:0001dc37   745 0001:0001dc3f   299 0001:0001dc50
   300 0001:0001dc69   301 0001:0001dc73   387 0001:0001dc80   388 0001:0001dc87
   389 0001:0001dc8f   515 0001:0001dca0   516 0001:0001dca9   517 0001:0001dcd0
   554 0001:0001dce0   555 0001:0001dce9   556 0001:0001dd0b   579 0001:0001dd20
   580 0001:0001dd2a   581 0001:0001dd40   582 0001:0001dd5b   583 0001:0001dd5d
   584 0001:0001dd7c   743 0001:0001dd90   744 0001:0001dd97   745 0001:0001dd9f
   457 0001:0001ddb0   458 0001:0001ddb9   459 0001:0001dde0   620 0001:0001ddf0
   621 0001:0001ddf9   622 0001:0001de2c   623 0001:0001de3e   624 0001:0001de5c
   770 0001:0001de70   771 0001:0001de77   772 0001:0001de95   773 0001:0001de9b
   774 0001:0001de9f   775 0001:0001deac   776 0001:0001deb4   778 0001:0001deb6
   779 0001:0001dec8   780 0001:0001ded4   782 0001:0001dee6   783 0001:0001dee8
   791 0001:0001def0   792 0001:0001def7   794 0001:0001df00   795 0001:0001df16
   797 0001:0001df35   798 0001:0001df53   877 0001:0001df60   878 0001:0001df67
   879 0001:0001df7f   880 0001:0001df88    21 0001:0001df90    22 0001:0001dfa3
   457 0001:0001dfc0   458 0001:0001dfc9   459 0001:0001dff0   462 0001:0001e000
   463 0001:0001e007   464 0001:0001e019   472 0001:0001e020   473 0001:0001e027
   474 0001:0001e039   620 0001:0001e040   621 0001:0001e049   622 0001:0001e07c
   623 0001:0001e08e   624 0001:0001e0ac   770 0001:0001e0c0   771 0001:0001e0c7
   772 0001:0001e0e5   773 0001:0001e0eb   774 0001:0001e0ef   775 0001:0001e0fc
   776 0001:0001e104   778 0001:0001e106   779 0001:0001e118   780 0001:0001e124
   782 0001:0001e136   783 0001:0001e138   791 0001:0001e140   792 0001:0001e147
   794 0001:0001e150   795 0001:0001e166   797 0001:0001e185   798 0001:0001e1a3
   877 0001:0001e1b0   878 0001:0001e1b7   879 0001:0001e1cf   880 0001:0001e1d8
    21 0001:0001e1e0    22 0001:0001e1f3   219 0001:0001e210   220 0001:0001e217
   221 0001:0001e21f   261 0001:0001e230   262 0001:0001e239   263 0001:0001e241
   264 0001:0001e257   520 0001:0001e260   521 0001:0001e267   522 0001:0001e26f
   809 0001:0001e280   810 0001:0001e2a5   811 0001:0001e2ad   813 0001:0001e2b8
   815 0001:0001e2be   816 0001:0001e2dc   817 0001:0001e2e4   820 0001:0001e2fd
   821 0001:0001e32b   822 0001:0001e33b   823 0001:0001e349   824 0001:0001e358
   826 0001:0001e35e   828 0001:0001e365   829 0001:0001e385   830 0001:0001e3a2
   832 0001:0001e3bb   833 0001:0001e3cb   834 0001:0001e3db   835 0001:0001e3e4
   837 0001:0001e3eb   838 0001:0001e3f9   840 0001:0001e402   841 0001:0001e418
   843 0001:0001e437   844 0001:0001e446   845 0001:0001e455   847 0001:0001e45e
   850 0001:0001e478   852 0001:0001e495   854 0001:0001e49c   856 0001:0001e4c3
   857 0001:0001e4e2   858 0001:0001e4eb   860 0001:0001e4f2   862 0001:0001e504
   864 0001:0001e523   866 0001:0001e525   868 0001:0001e52e   870 0001:0001e553
   872 0001:0001e56f   874 0001:0001e589   883 0001:0001e5a0   884 0001:0001e5be
   885 0001:0001e5ec   520 0001:0001e650   521 0001:0001e657   522 0001:0001e65f
   786 0001:0001e670   787 0001:0001e677   788 0001:0001e68b   809 0001:0001e6a0
   810 0001:0001e6c5   811 0001:0001e6cd   813 0001:0001e6d8   815 0001:0001e6de
   816 0001:0001e6fc   817 0001:0001e704   820 0001:0001e71d   821 0001:0001e74b
   822 0001:0001e75b   823 0001:0001e769   824 0001:0001e778   826 0001:0001e77e
   828 0001:0001e785   829 0001:0001e7a5   830 0001:0001e7c2   832 0001:0001e7db
   833 0001:0001e7eb   834 0001:0001e7fb   835 0001:0001e804   837 0001:0001e80b
   838 0001:0001e819   840 0001:0001e822   841 0001:0001e838   843 0001:0001e857
   844 0001:0001e866   845 0001:0001e875   847 0001:0001e87e   850 0001:0001e898
   852 0001:0001e8b5   854 0001:0001e8bc   856 0001:0001e8e3   857 0001:0001e902
   858 0001:0001e90b   860 0001:0001e912   862 0001:0001e924   864 0001:0001e943
   866 0001:0001e945   868 0001:0001e94e   870 0001:0001e973   872 0001:0001e98f
   874 0001:0001e9a9   883 0001:0001e9c0   884 0001:0001e9de   885 0001:0001ea0c
   278 0001:0001ea70   279 0001:0001ea79   280 0001:0001ea8d   215 0001:0001eaa0
   216 0001:0001eab3   255 0001:0001eac0   256 0001:0001eac7   257 0001:0001ead7
   258 0001:0001eada   278 0001:0001eae0   279 0001:0001eae9   280 0001:0001eafd
    79 0001:0001eb10    82 0001:0001eb17    83 0001:0001eb1c   140 0001:0001eb80
   143 0001:0001eb87   144 0001:0001eb94    73 0001:0001eba0    75 0001:0001eba7
    76 0001:0001ebaf   140 0001:0001ebc0   143 0001:0001ebc7   144 0001:0001ebd4
   801 0001:0001ec60   804 0001:0001ec67   805 0001:0001ec7f   801 0001:0001ed60
   804 0001:0001ed67   805 0001:0001ed7f

Line numbers for .\Debug\OgreAllVehicle.obj(f:\ogresdk\include\ogremath.h) segment .text

    61 0001:0001db10

Line numbers for .\Debug\OgreAllVehicle.obj(e:\tony\codes\fantasy\cutecar\src\ogreallvehicle.cpp) segment .text

    10 0001:0001c330    12 0001:0001c367    13 0001:0001c372    14 0001:0001c37c
    17 0001:0001c3a0    19 0001:0001c3b0    22 0001:0001c3c0    23 0001:0001c3db
    25 0001:0001c3e4    27 0001:0001c454    28 0001:0001c459    31 0001:0001c470
    32 0001:0001c495    33 0001:0001c4d0    35 0001:0001c4d6    38 0001:0001c4e5
    39 0001:0001c4fd    42 0001:0001c510    43 0001:0001c52e    44 0001:0001c566
    45 0001:0001c574    47 0001:0001c58e    48 0001:0001c5a7    49 0001:0001c5b9
    50 0001:0001c5bb    53 0001:0001c5d0    54 0001:0001c5ee    55 0001:0001c5fc
    57 0001:0001c616    59 0001:0001c66a    61 0001:0001c67d    62 0001:0001c67f
    63 0001:0001c681    66 0001:0001c6a0    67 0001:0001c6a9    68 0001:0001c6b7
    70 0001:0001c6bd    73 0001:0001c6c4    75 0001:0001c6de    77 0001:0001c6fb
    78 0001:0001c711    80 0001:0001c722    82 0001:0001c729    84 0001:0001c73c
    86 0001:0001c73e    87 0001:0001c74d   106 0001:0001c760   107 0001:0001c7a8
   108 0001:0001c7b2   109 0001:0001c7bc   110 0001:0001c7c6   112 0001:0001c7de
   113 0001:0001c7ec   114 0001:0001c7ee   115 0001:0001c7fe   116 0001:0001c808
   119 0001:0001c820   121 0001:0001c84c   124 0001:0001c880   125 0001:0001c8ad
   127 0001:0001c8b7   128 0001:0001c931   129 0001:0001c940   130 0001:0001c949
   131 0001:0001c958   132 0001:0001c971   133 0001:0001c99d   134 0001:0001c9ff
   135 0001:0001ca62   136 0001:0001cae1   137 0001:0001caf3   138 0001:0001cb0d
   140 0001:0001cb22   141 0001:0001cb54   142 0001:0001cb86   143 0001:0001cbb8
   145 0001:0001cbea   147 0001:0001cc16   148 0001:0001cc35   151 0001:0001cc50
   154 0001:0001cc6e   155 0001:0001ccc6   156 0001:0001ccd8   158 0001:0001cd0b
   160 0001:0001cd2e   162 0001:0001cd86   163 0001:0001cd98   166 0001:0001cdaa
   167 0001:0001cdbc   168 0001:0001cdce   169 0001:0001cde0   170 0001:0001cdf2
   173 0001:0001ce10   174 0001:0001ce20   175 0001:0001ce3b   178 0001:0001ce50
   179 0001:0001ce57   180 0001:0001ce61   181 0001:0001ce6c   184 0001:0001ce70
   185 0001:0001ce8e   187 0001:0001ce9d   188 0001:0001cef5   189 0001:0001cf07
   191 0001:0001cf10   194 0001:0001cf20   195 0001:0001cf3e   197 0001:0001cf4b
   198 0001:0001cf5d   199 0001:0001cfb7   200 0001:0001d00f   202 0001:0001d01e
   204 0001:0001d02e   207 0001:0001d040   208 0001:0001d05e   210 0001:0001d067
   211 0001:0001d0bf   213 0001:0001d0c5   216 0001:0001d0d3   218 0001:0001d0dd
   221 0001:0001d0f0   222 0001:0001d0f7   223 0001:0001d105   226 0001:0001d110
   228 0001:0001d117   230 0001:0001d13f   233 0001:0001d143   234 0001:0001d152
   235 0001:0001d154   238 0001:0001d160   239 0001:0001d167   240 0001:0001d16d
   243 0001:0001d180   244 0001:0001d187   246 0001:0001d1a3   248 0001:0001d1b9
   250 0001:0001d1c8   251 0001:0001d1d2   253 0001:0001d1e8   254 0001:0001d1ea
   257 0001:0001d1f0   258 0001:0001d1f9   259 0001:0001d200   261 0001:0001d21c
   263 0001:0001d233   265 0001:0001d244   266 0001:0001d24e   268 0001:0001d265
   270 0001:0001d287   272 0001:0001d291   273 0001:0001d294   281 0001:0001d2a0
   283 0001:0001d2b0   286 0001:0001d2c0   288 0001:0001d2d0   291 0001:0001d2e0
   292 0001:0001d2fe   294 0001:0001d308   295 0001:0001d38b   296 0001:0001d394
   297 0001:0001d44c   299 0001:0001d45b   300 0001:0001d51b   302 0001:0001d533
   303 0001:0001d55a   305 0001:0001d55f   306 0001:0001d561   309 0001:0001d570
   311 0001:0001d579   312 0001:0001d58d   313 0001:0001d5cb   314 0001:0001d5e0
   321 0001:0001d5f0   322 0001:0001d63c   325 0001:0001d650   327 0001:0001d660
   330 0001:0001d670   331 0001:0001d696   333 0001:0001d6a0   334 0001:0001d6a7
   335 0001:0001d6bb   338 0001:0001d6ed   339 0001:0001d6fa   340 0001:0001d701
   342 0001:0001d706   343 0001:0001d713   344 0001:0001d71a   346 0001:0001d71c
   347 0001:0001d729   348 0001:0001d730   350 0001:0001d732   351 0001:0001d73f
   352 0001:0001d746   354 0001:0001d748   355 0001:0001d755   356 0001:0001d75c
   358 0001:0001d75e   359 0001:0001d76b   360 0001:0001d772   362 0001:0001d774
   363 0001:0001d781   366 0001:0001d788   367 0001:0001d814   368 0001:0001d823
   369 0001:0001d874   370 0001:0001d8a0   371 0001:0001d8f9   372 0001:0001d911
   374 0001:0001d930   376 0001:0001d945   378 0001:0001d971   379 0001:0001d973
   382 0001:0001d9b0   383 0001:0001d9b7   385 0001:0001d9c2   386 0001:0001d9d6
   387 0001:0001d9f1   389 0001:0001d9f5   390 0001:0001d9f7   393 0001:0001da00
   394 0001:0001da09   396 0001:0001da14   397 0001:0001da28   398 0001:0001da4d
   400 0001:0001da51   401 0001:0001da53   404 0001:0001da60   405 0001:0001da67
   406 0001:0001da6d

Line numbers for .\Debug\NxWheel.obj(e:\tony\codes\fantasy\cutecar\src\nxwheel.h) segment .text

    20 0001:0001c1f0    21 0001:0001c1f9    22 0001:0001c21b    30 0001:0001c230
    31 0001:0001c239    32 0001:0001c27f    35 0001:0001c290    36 0001:0001c297
    37 0001:0001c2ad

Line numbers for .\Debug\NxWheel.obj(c:\program files\ageia technologies\ageia physx sdk\v2.3.2\sdks\physics\include\nxspringdesc.h) segment .text

   108 0001:0001bea0   109 0001:0001bea7   110 0001:0001beaf   120 0001:0001bec0
   121 0001:0001bec7   122 0001:0001bed0   123 0001:0001beda   124 0001:0001bee4
   127 0001:0001c1a0   128 0001:0001c1a9   129 0001:0001c1e1

Line numbers for .\Debug\NxWheel.obj(c:\program files\ageia technologies\ageia physx sdk\v2.3.2\sdks\physics\include\nxwheelshapedesc.h) segment .text

   319 0001:0001be20   320 0001:0001be7a   321 0001:0001be84   324 0001:0001bf40
   325 0001:0001bf47   327 0001:0001bf4f   328 0001:0001bf59   330 0001:0001bf63
   331 0001:0001bf70   333 0001:0001bf7d   334 0001:0001bf8a   335 0001:0001bf97
   337 0001:0001bfa4   339 0001:0001bfac   340 0001:0001bfb7   341 0001:0001bfc5
   343 0001:0001bfd9   346 0001:0001bfe0   347 0001:0001bfe7   348 0001:0001c004
   349 0001:0001c01e   350 0001:0001c03b   351 0001:0001c055   352 0001:0001c075
   353 0001:0001c092   354 0001:0001c0b2   355 0001:0001c0d2   356 0001:0001c0ef
   358 0001:0001c10f   359 0001:0001c125   360 0001:0001c14f   361 0001:0001c169
   364 0001:0001c189   365 0001:0001c191

Line numbers for .\Debug\NxWheel.obj(c:\program files\ageia technologies\ageia physx sdk\v2.3.2\sdks\foundation\include\nxmat33.h) segment .text

   872 0001:0001bd00   873 0001:0001bd09   874 0001:0001bd12   875 0001:0001bd1a
   876 0001:0001bd23   878 0001:0001bd2c   879 0001:0001bd49   880 0001:0001bd61
   882 0001:0001bd79   883 0001:0001bd91   884 0001:0001bdaf   886 0001:0001bdc7
   887 0001:0001bddf   888 0001:0001bdf7   889 0001:0001be15

Line numbers for .\Debug\NxWheel.obj(e:\tony\codes\fantasy\cutecar\src\nxwheel.cpp) segment .text

    10 0001:0001b940    11 0001:0001b95b    12 0001:0001b9a1    15 0001:0001b9b0
    16 0001:0001b9ec    19 0001:0001ba0b    21 0001:0001ba14    23 0001:0001ba1f
    24 0001:0001ba29    25 0001:0001ba33    28 0001:0001ba50    30 0001:0001ba62
    31 0001:0001ba71    32 0001:0001ba7c    33 0001:0001baa1    34 0001:0001bab3
    35 0001:0001bacb    39 0001:0001bada    41 0001:0001baef    42 0001:0001bafb
    43 0001:0001bb07    45 0001:0001bb13    46 0001:0001bb1c    47 0001:0001bb25
    54 0001:0001bb2e    55 0001:0001bb3a    57 0001:0001bb46    58 0001:0001bb6d
    61 0001:0001bba0    62 0001:0001bbb0    65 0001:0001bbc0    71 0001:0001bbc7
    72 0001:0001bbd8    74 0001:0001bbf0    75 0001:0001bc08    78 0001:0001bc10
    79 0001:0001bc19    80 0001:0001bc21    81 0001:0001bc3c    82 0001:0001bc5c
    85 0001:0001bc60    86 0001:0001bc67    87 0001:0001bc7f    90 0001:0001bc90
    91 0001:0001bc97    92 0001:0001bcb6    95 0001:0001bcc0    96 0001:0001bcc7
    97 0001:0001bcf5

Line numbers for .\Debug\NxVehicle.obj(d:\program files\microsoft visual studio .net 2003\vc7\include\utility) segment .text

    34 0001:00019b40    35 0001:00019b5c    34 0001:0001b5b0    35 0001:0001b5cc

Line numbers for .\Debug\NxVehicle.obj(d:\program files\microsoft visual studio .net 2003\vc7\include\functional) segment .text

   138 0001:00019ab0   139 0001:00019ab7   140 0001:00019ac5

Line numbers for .\Debug\NxVehicle.obj(d:\program files\microsoft visual studio .net 2003\vc7\include\xmemory) segment .text

   111 0001:00019aa0   113 0001:00019aa7   115 0001:0001a610   117 0001:0001a617
   131 0001:0001a620   132 0001:0001a627   133 0001:0001a633   151 0001:0001a640
   152 0001:0001a647   153 0001:0001a653   156 0001:0001b6d0   157 0001:0001b6d9
   158 0001:0001b6e0   159 0001:0001b6f8   136 0001:0001b700   137 0001:0001b707
   138 0001:0001b715   151 0001:0001b720   152 0001:0001b727   153 0001:0001b733
   146 0001:0001b740   147 0001:0001b747   148 0001:0001b757    48 0001:0001b8a0
    50 0001:0001b8a3   120 0001:0001b8b0   122 0001:0001b8b7   120 0001:0001b8c0
   122 0001:0001b8c7    33 0001:0001b8d0    34 0001:0001b8d3    35 0001:0001b8e2
    48 0001:0001b8f0    50 0001:0001b8f3    41 0001:0001b900    42 0001:0001b906
    43 0001:0001b936

Line numbers for .\Debug\NxVehicle.obj(d:\program files\microsoft visual studio .net 2003\vc7\include\map) segment .text

   102 0001:00018f30   103 0001:00018f4e   142 0001:00018f60   143 0001:00018f69
   144 0001:00018f79   146 0001:00018fba   147 0001:00018fe7   148 0001:00018ff2
    63 0001:0001a600    64 0001:0001a603    65 0001:0001a606    38 0001:0001b890
    39 0001:0001b897

Line numbers for .\Debug\NxVehicle.obj(c:\program files\ageia technologies\ageia physx sdk\v2.3.2\sdks\foundation\include\nxarray.h) segment .text

   294 0001:00018dc0   295 0001:00018dc7   296 0001:00018dd2   286 0001:00018de0
   287 0001:00018de7   288 0001:00018df2   294 0001:00018e00   295 0001:00018e07
   296 0001:00018e12    43 0001:00018e20    45 0001:00018e44    76 0001:00018e50
    77 0001:00018e57    78 0001:00018e6c    79 0001:00018e7a    80 0001:00018e83
    81 0001:00018e8d    82 0001:00018e97   183 0001:00018ea0   184 0001:00018ea7
   185 0001:00018eb5   209 0001:00018ec0   211 0001:00018ec7   213 0001:00018ed5
   215 0001:00018eea   216 0001:00018ef7   217 0001:00018f06   294 0001:00018f10
   295 0001:00018f17   296 0001:00018f22   124 0001:00019270   125 0001:00019279
   128 0001:00019286   129 0001:00019295   130 0001:000192ae   131 0001:000192c3
   134 0001:000192d1   135 0001:000192e0   136 0001:000192f4   138 0001:000192fc
   430 0001:00019310   431 0001:00019317   432 0001:0001932c   435 0001:00019340
   436 0001:00019347   439 0001:0001935a   440 0001:0001935c   144 0001:00019cc0
   145 0001:00019cc9   146 0001:00019cee   409 0001:00019d00   410 0001:00019d07
   411 0001:00019d23   412 0001:00019d2f   413 0001:00019d32   416 0001:00019d40
   418 0001:00019d47   422 0001:00019d6d

Line numbers for .\Debug\NxVehicle.obj(d:\program files\microsoft visual studio .net 2003\vc7\include\xtree) segment .text

   396 0001:00018ca0   397 0001:00018ca9   399 0001:00018cb1   401 0001:00018cdb
   403 0001:00018ce7   404 0001:00018cea   412 0001:00018cf0   413 0001:00018cf7
   414 0001:00018d0d   422 0001:00018d20   423 0001:00018d27   424 0001:00018d39
   814 0001:00018d40   815 0001:00018d47   816 0001:00018d5f   209 0001:00018d70
   210 0001:00018d77   211 0001:00018d7f   233 0001:00018d90   234 0001:00018d99
   235 0001:00018da1   236 0001:00018da9   237 0001:00018db4   391 0001:00019000
   392 0001:00019007   393 0001:0001900f   407 0001:00019020   408 0001:00019027
   409 0001:0001903d   417 0001:00019050   418 0001:00019057   419 0001:00019069
   787 0001:00019070   788 0001:00019079   790 0001:00019089   791 0001:000190f4
   321 0001:00019100   322 0001:00019107   323 0001:0001910f   326 0001:00019120
   327 0001:00019127   328 0001:0001912f   329 0001:00019132   240 0001:00019140
   241 0001:00019147   242 0001:00019156   245 0001:00019160   246 0001:00019167
   247 0001:0001917b   854 0001:00019190   855 0001:00019198   856 0001:000191be
   857 0001:000191cc   859 0001:000191e6   860 0001:00019205   862 0001:00019224
   863 0001:00019226   864 0001:00019246  1009 0001:00019250  1010 0001:00019257
  1011 0001:00019266   141 0001:00019370   142 0001:00019373   143 0001:00019388
   361 0001:00019390   362 0001:000193b1   363 0001:000193b9   509 0001:000193d0
   510 0001:000193d9   512 0001:000193e1   513 0001:000193ed   514 0001:0001940e
   516 0001:00019416   518 0001:00019432   519 0001:00019460   521 0001:00019483
   523 0001:000194a4   524 0001:000194d4   526 0001:000194f9   528 0001:000194fe
   530 0001:0001956b   531 0001:0001958e   533 0001:000195b1   538 0001:000195d4
   540 0001:0001965d   541 0001:00019680   543 0001:000196a3   546 0001:000196c6
   548 0001:000196cb   550 0001:000196e7   551 0001:00019715   553 0001:00019738
   555 0001:00019759   556 0001:00019789   558 0001:000197ae   560 0001:000197b3
   562 0001:00019820   563 0001:00019843   565 0001:00019866   570 0001:00019889
   572 0001:00019912   573 0001:00019935   575 0001:00019955   579 0001:00019975
   580 0001:0001998f   809 0001:000199a0   810 0001:000199a7   811 0001:000199bf
  1004 0001:000199d0  1005 0001:000199d7  1006 0001:000199e6  1142 0001:000199f0
  1143 0001:000199f9  1144 0001:00019a23  1145 0001:00019a3e  1146 0001:00019a59
  1147 0001:00019a74  1148 0001:00019a88  1149 0001:00019a9c   312 0001:00019ad0
   313 0001:00019ae3   316 0001:00019af0   317 0001:00019af7   318 0001:00019aff
   214 0001:00019b10   215 0001:00019b17   216 0001:00019b1f   217 0001:00019b22
   283 0001:00019b30   284 0001:00019b37   285 0001:00019b3c   867 0001:00019b70
   868 0001:00019b95   870 0001:00019b9e   873 0001:00019bb5   874 0001:00019bee
   875 0001:00019c01   877 0001:00019c07   878 0001:00019c0e   879 0001:00019c49
   881 0001:00019c86   882 0001:00019c92   883 0001:00019c9b   886 0001:00019ca2
   887 0001:00019ca5   136 0001:00019d80   137 0001:00019d83   138 0001:00019d89
   146 0001:00019d90   147 0001:00019d93   148 0001:00019d96   151 0001:00019da0
   152 0001:00019da3   153 0001:00019da9   156 0001:00019db0   157 0001:00019db3
   158 0001:00019db9   161 0001:00019dc0   162 0001:00019dc3   163 0001:00019dc9
   447 0001:00019dd0   448 0001:00019dd7   449 0001:00019ddd   477 0001:00019df0
   478 0001:00019df9   479 0001:00019e06   480 0001:00019e0f   481 0001:00019e13
   483 0001:00019e26   484 0001:00019e2c   485 0001:00019e51   486 0001:00019e83
   488 0001:00019e85   489 0001:00019e89   492 0001:00019eba   493 0001:00019ec6
   495 0001:00019ece   496 0001:00019eec   498 0001:00019f18   500 0001:00019f20
   501 0001:00019f4e   503 0001:00019f7c   505 0001:00019f93   750 0001:00019fa0
   751 0001:00019fa9   753 0001:00019fe1   754 0001:00019fe9   758 0001:00019ffa
   759 0001:0001a00d   760 0001:0001a02c   762 0001:0001a037   901 0001:0001a040
   902 0001:0001a047   903 0001:0001a055   904 0001:0001a067   905 0001:0001a077
   906 0001:0001a097   907 0001:0001a0a1   911 0001:0001a0b0   912 0001:0001a0cf
   913 0001:0001a0e2   915 0001:0001a110   917 0001:0001a133   918 0001:0001a142
   920 0001:0001a14d   921 0001:0001a15a   923 0001:0001a174   925 0001:0001a17e
   926 0001:0001a18f   927 0001:0001a19e   929 0001:0001a1ab   931 0001:0001a1ad
   932 0001:0001a1be   933 0001:0001a1cd   936 0001:0001a1da   937 0001:0001a202
   939 0001:0001a23c   940 0001:0001a263   942 0001:0001a276   943 0001:0001a290
   944 0001:0001a29f   945 0001:0001a2c4   947 0001:0001a2e0   949 0001:0001a2e5
   951 0001:0001a303   952 0001:0001a314   954 0001:0001a320   955 0001:0001a33a
   956 0001:0001a35f   959 0001:0001a381   961 0001:0001a386   962 0001:0001a3ad
   964 0001:0001a3c0   965 0001:0001a3da   966 0001:0001a3e9   967 0001:0001a40e
   969 0001:0001a42a   971 0001:0001a42f   973 0001:0001a44d   974 0001:0001a45e
   976 0001:0001a46a   977 0001:0001a484   978 0001:0001a4a9   980 0001:0001a4cb
   982 0001:0001a4d0   983 0001:0001a4e6   984 0001:0001a4f5   987 0001:0001a510
   988 0001:0001a519   989 0001:0001a526   991 0001:0001a52f   992 0001:0001a542
   993 0001:0001a562   994 0001:0001a573   996 0001:0001a575   997 0001:0001a57b
   998 0001:0001a58c  1000 0001:0001a58e  1001 0001:0001a591  1048 0001:0001a5a0
  1049 0001:0001a5a7  1050 0001:0001a5b6    95 0001:0001a5c0    96 0001:0001a5f0
   304 0001:0001a660   306 0001:0001a66f   339 0001:0001a680   340 0001:0001a687
   341 0001:0001a68f   342 0001:0001a692   200 0001:0001a6a0   201 0001:0001a6af
   204 0001:0001a6c0   205 0001:0001a6c7   206 0001:0001a6d5   267 0001:0001a6e0
   268 0001:0001a6e9   270 0001:0001a6fe   271 0001:0001a723   272 0001:0001a741
   276 0001:0001a743   277 0001:0001a77e   278 0001:0001a788   280 0001:0001a790
   131 0001:0001a7a0   132 0001:0001a7a3   133 0001:0001a7a9   452 0001:0001a7b0
   453 0001:0001a7b7   454 0001:0001a7c2   590 0001:0001a7d0   591 0001:0001a7ef
   592 0001:0001a807   593 0001:0001a835   594 0001:0001a840   598 0001:0001a848
   600 0001:0001a84e   601 0001:0001a86c   602 0001:0001a87d   603 0001:0001a89d
   604 0001:0001a8ae   606 0001:0001a8b0   607 0001:0001a8bb   610 0001:0001a8cc
   612 0001:0001a8d8   613 0001:0001a8e9   614 0001:0001a8fc   616 0001:0001a90d
   617 0001:0001a91c   618 0001:0001a929   619 0001:0001a93e   620 0001:0001a94f
   621 0001:0001a951   623 0001:0001a962   626 0001:0001a971   628 0001:0001a9a8
   631 0001:0001a9b7   633 0001:0001a9ee   635 0001:0001a9f3   636 0001:0001aa0f
   638 0001:0001aa2d   639 0001:0001aa40   640 0001:0001aa46   642 0001:0001aa4b
   643 0001:0001aa5c   644 0001:0001aa6f   645 0001:0001aa80   646 0001:0001aa91
   647 0001:0001aaaf   650 0001:0001aacb   651 0001:0001aada   652 0001:0001aae7
   653 0001:0001ab07   654 0001:0001ab23   655 0001:0001ab25   657 0001:0001ab41
   658 0001:0001ab5f   661 0001:0001ab81   664 0001:0001ab99   665 0001:0001abd7
   667 0001:0001abee   668 0001:0001abff   670 0001:0001ac12   671 0001:0001ac21
   672 0001:0001ac30   673 0001:0001ac3c   676 0001:0001ac4d   677 0001:0001ac60
   678 0001:0001ac66   679 0001:0001ac6b   681 0001:0001aca9   682 0001:0001acb8
   684 0001:0001acbe   686 0001:0001acc3   688 0001:0001ace2   689 0001:0001acfc
   690 0001:0001ad0b   691 0001:0001ad17   694 0001:0001ad28   695 0001:0001ad46
   696 0001:0001ad55   697 0001:0001ad6f   698 0001:0001ad7b   701 0001:0001ad80
   703 0001:0001ad85   704 0001:0001ad96   706 0001:0001ada9   707 0001:0001adb8
   708 0001:0001adc7   709 0001:0001add3   711 0001:0001ade4   712 0001:0001adf7
   713 0001:0001adfd   714 0001:0001ae02   716 0001:0001ae40   717 0001:0001ae4f
   719 0001:0001ae55   721 0001:0001ae5a   723 0001:0001ae79   724 0001:0001ae93
   725 0001:0001aea2   726 0001:0001aeae   729 0001:0001aebf   730 0001:0001aedd
   731 0001:0001aeec   732 0001:0001af06   733 0001:0001af12   735 0001:0001af14
   737 0001:0001af19   740 0001:0001af28   741 0001:0001af37   743 0001:0001af48
   744 0001:0001af51   746 0001:0001af60   747 0001:0001af6b   780 0001:0001af80
   781 0001:0001af87   782 0001:0001af9a   783 0001:0001afb4   784 0001:0001afd4
  1014 0001:0001afe0  1015 0001:0001afea  1016 0001:0001affb  1018 0001:0001b019
  1019 0001:0001b037  1020 0001:0001b053  1022 0001:0001b071  1023 0001:0001b080
  1024 0001:0001b08d  1025 0001:0001b0ad  1026 0001:0001b0c9  1027 0001:0001b0cb
  1029 0001:0001b0e7  1030 0001:0001b0f8  1031 0001:0001b109  1041 0001:0001b110
  1042 0001:0001b113  1043 0001:0001b131  1044 0001:0001b144  1045 0001:0001b147
  1058 0001:0001b150  1059 0001:0001b157  1060 0001:0001b166  1063 0001:0001b170
  1064 0001:0001b177  1065 0001:0001b186  1068 0001:0001b190  1069 0001:0001b19a
  1070 0001:0001b1ab  1072 0001:0001b1c9  1073 0001:0001b1e7  1074 0001:0001b203
  1076 0001:0001b221  1077 0001:0001b230  1078 0001:0001b23d  1079 0001:0001b25d
  1080 0001:0001b279  1081 0001:0001b27b  1083 0001:0001b297  1084 0001:0001b2a8
  1085 0001:0001b2b9  1105 0001:0001b2c0  1106 0001:0001b2e5  1107 0001:0001b2f5
  1109 0001:0001b2fc  1110 0001:0001b303  1111 0001:0001b32c  1112 0001:0001b335
  1113 0001:0001b35e  1114 0001:0001b367  1116 0001:0001b392  1117 0001:0001b398
  1118 0001:0001b3b0  1119 0001:0001b3b6  1120 0001:0001b3ce  1121 0001:0001b3df
  1122 0001:0001b3e8  1123 0001:0001b3ef  1124 0001:0001b3fe  1125 0001:0001b40d
  1126 0001:0001b410  1130 0001:0001b430  1131 0001:0001b455  1132 0001:0001b465
  1133 0001:0001b46c  1135 0001:0001b4c1  1136 0001:0001b4d2  1137 0001:0001b4db
  1138 0001:0001b4e2  1139 0001:0001b4e5    76 0001:0001b500    77 0001:0001b530
   332 0001:0001b540   333 0001:0001b549   334 0001:0001b551   335 0001:0001b559
   336 0001:0001b564   193 0001:0001b570   194 0001:0001b580   227 0001:0001b590
   228 0001:0001b597   229 0001:0001b59f   230 0001:0001b5a2   890 0001:0001b5e0
   891 0001:0001b5e9   893 0001:0001b60a   894 0001:0001b621   895 0001:0001b632
   896 0001:0001b641   897 0001:0001b652   898 0001:0001b654  1034 0001:0001b660
  1035 0001:0001b663  1036 0001:0001b681  1037 0001:0001b694  1038 0001:0001b697
    54 0001:0001b6a0    55 0001:0001b6c4   250 0001:0001b760   251 0001:0001b769
   252 0001:0001b77e   253 0001:0001b793   254 0001:0001b7b8   255 0001:0001b7d6
   259 0001:0001b7d8   260 0001:0001b813   261 0001:0001b81d   262 0001:0001b830
   264 0001:0001b838    40 0001:0001b840    41 0001:0001b882

Line numbers for .\Debug\NxVehicle.obj(c:\program files\ageia technologies\ageia physx sdk\v2.3.2\sdks\physics\include\nxwheelshapedesc.h) segment .text

   245 0001:00018b60   246 0001:00018b70   247 0001:00018b78   250 0001:00018b80
   251 0001:00018b87   252 0001:00018b91   253 0001:00018b9b   254 0001:00018ba5
   255 0001:00018baf   256 0001:00018bb9   259 0001:00018bc0   260 0001:00018bc7
   261 0001:00018bde   262 0001:00018bf5   263 0001:00018c0c   264 0001:00018c23
   266 0001:00018c3a   267 0001:00018c3c

Line numbers for .\Debug\NxVehicle.obj(e:\tony\codes\fantasy\cutecar\src\nxwheel.h) segment .text

    40 0001:000187a0    41 0001:000187a7    42 0001:000187b8    45 0001:000187c0
    46 0001:000187c7    47 0001:000187d6

Line numbers for .\Debug\NxVehicle.obj(c:\program files\ageia technologies\ageia physx sdk\v2.3.2\sdks\foundation\include\nxmat33.h) segment .text

  1310 0001:000186b0  1311 0001:000186b9  1312 0001:000186c1  1313 0001:000186d1
  1314 0001:000186e0  1092 0001:000186f0  1094 0001:000186f9  1095 0001:00018722
  1096 0001:0001874c  1098 0001:00018776  1099 0001:0001877e  1100 0001:00018787
  1101 0001:00018790

Line numbers for .\Debug\NxVehicle.obj(c:\program files\ageia technologies\ageia physx sdk\v2.3.2\sdks\foundation\include\nxmat34.h) segment .text

    74 0001:000185e0   184 0001:00018620   185 0001:00018629   186 0001:00018654

Line numbers for .\Debug\NxVehicle.obj(c:\program files\ageia technologies\ageia physx sdk\v2.3.2\sdks\foundation\include\nxvec3.h) segment .text

   723 0001:00018470   724 0001:00018477   725 0001:0001849d   788 0001:000184b0
   789 0001:000184b7   790 0001:000184e5   794 0001:00018660   795 0001:00018667
   796 0001:000186a0

Line numbers for .\Debug\NxVehicle.obj(c:\program files\ageia technologies\ageia physx sdk\v2.3.2\sdks\foundation\include\nxquat.h) segment .text

   299 0001:00017f50   300 0001:00017f57   301 0001:00017f67   566 0001:00017f70
   569 0001:00017f79   570 0001:00017fb0   571 0001:00017fe7   572 0001:0001801e
   574 0001:00018055   575 0001:0001805e   576 0001:00018066   577 0001:0001806f
   578 0001:00018078   637 0001:00018080   639 0001:00018089   640 0001:00018091
   641 0001:0001809b   642 0001:000180a6   643 0001:000180b1   647 0001:000180ba
   648 0001:000180c2   649 0001:000180d2   650 0001:000180f5   651 0001:00018119
   652 0001:0001813d   582 0001:00018150   585 0001:00018159   586 0001:00018184
   587 0001:000181ae   588 0001:000181d7   590 0001:00018200   591 0001:00018209
   592 0001:00018211   593 0001:0001821a   594 0001:00018223   285 0001:000182d0
   286 0001:00018305   656 0001:000184f0   658 0001:000184f9   659 0001:00018501
   660 0001:0001850b   661 0001:00018516   662 0001:00018521   665 0001:0001852a
   666 0001:00018532   667 0001:00018542   668 0001:00018570   669 0001:0001859f
   670 0001:000185ce

Line numbers for .\Debug\NxVehicle.obj(d:\program files\microsoft visual studio .net 2003\vc7\include\math.h) segment .text

   434 0001:00017f30   543 0001:00018310   438 0001:00018330   450 0001:00018370
   464 0001:000183e0   472 0001:00018430

Line numbers for .\Debug\NxVehicle.obj(c:\program files\ageia technologies\ageia physx sdk\v2.3.2\sdks\foundation\include\nxmath.h) segment .text

   493 0001:00017ea0   494 0001:00017ea4   495 0001:00017ec7   690 0001:00017ed0
   691 0001:00017ed3   692 0001:00017edc   770 0001:00017ee0   772 0001:00017ee3
   773 0001:00017efb   774 0001:00017f13   775 0001:00017f1f   478 0001:00018350
   479 0001:00018353   480 0001:0001835f   568 0001:00018390   569 0001:00018393
   570 0001:000183a0   571 0001:000183a5   572 0001:000183b2   574 0001:000183b7
   575 0001:000183ba   628 0001:000183c0   629 0001:000183c3   630 0001:000183d3
   744 0001:00018410   745 0001:00018413   746 0001:0001841f   786 0001:00018450
   787 0001:00018453   788 0001:0001845f   543 0001:00018aa0   544 0001:00018aa4
   545 0001:00018abd   518 0001:00018b00   519 0001:00018b04   520 0001:00018b1d
   806 0001:00018b30   807 0001:00018b36   808 0001:00018b4a   809 0001:00018b56

Line numbers for .\Debug\NxVehicle.obj(e:\tony\codes\fantasy\cutecar\src\nxvehiclemotordesc.h) segment .text

    42 0001:00017d60    43 0001:00017d67    44 0001:00017d73    45 0001:00017d85
    47 0001:00017d89    49 0001:00017d9c    50 0001:00017dc6    52 0001:00017dca
    53 0001:00017dcc

Line numbers for .\Debug\NxVehicle.obj(e:\tony\codes\fantasy\cutecar\src\nxlinearinterpolationvalues.h) segment .text

    65 0001:00017cf0    66 0001:00017cf9    67 0001:00017d05    68 0001:00017d1f
    69 0001:00017d29    70 0001:00017d34    78 0001:00017d40    44 0001:00018840
    45 0001:00018849    46 0001:00018855    47 0001:00018865    48 0001:00018875
    49 0001:00018881    50 0001:0001888f    51 0001:0001889f    53 0001:000188af
    54 0001:000188c4    55 0001:000188d7    56 0001:000188e4    57 0001:000188ea
    60 0001:000188f8    61 0001:00018908    62 0001:00018918    63 0001:00018942

Line numbers for .\Debug\NxVehicle.obj(e:\tony\codes\fantasy\cutecar\src\nxvehiclemotor.h) segment .text

    30 0001:00017bc0    31 0001:00017bdb    32 0001:00017bea    33 0001:00017bf1
    34 0001:00017c32    35 0001:00017c3e    36 0001:00017c45    37 0001:00017c4c
    38 0001:00017c6b    39 0001:00017c7a    40 0001:00017c87    41 0001:00017c8d
    43 0001:00017c93    44 0001:00017c95    45 0001:00017c9e    46 0001:00017ca7
    47 0001:00017cb3    48 0001:00017cbf    49 0001:00017ccb    50 0001:00017cd7
    51 0001:00017cda    17 0001:00017dd0    20 0001:00018800    27 0001:00018820
    23 0001:00018950    54 0001:00018970    55 0001:00018979    56 0001:00018984
    57 0001:000189a4    58 0001:000189ab    59 0001:000189c4    76 0001:000189cb
    77 0001:000189cd

Line numbers for .\Debug\NxVehicle.obj(e:\tony\codes\fantasy\cutecar\src\nxvehiclegeardesc.h) segment .text

    46 0001:00017a80    47 0001:00017a89    49 0001:00017a98    50 0001:00017ab9
    52 0001:00017ac0    53 0001:00017ac8    54 0001:00017ae0    56 0001:00017ae7
    57 0001:00017afd    58 0001:00017b1e    60 0001:00017b22    61 0001:00017b3e
    62 0001:00017b55    63 0001:00017b7b    69 0001:00017b7f    70 0001:00017b81
    71 0001:00017b83    16 0001:00017b90

Line numbers for .\Debug\NxVehicle.obj(e:\tony\codes\fantasy\cutecar\src\nxvehiclegears.h) segment .text

    34 0001:000179a0    35 0001:000179bd    36 0001:000179cc    37 0001:000179d3
    38 0001:00017a17    39 0001:00017a29    41 0001:00017a49    44 0001:00017a56
    46 0001:00017a68    47 0001:00017a6b    22 0001:00017ba0    28 0001:000189e0
    29 0001:00018a00    49 0001:00018a10    50 0001:00018a17    51 0001:00018a29
    53 0001:00018a30    54 0001:00018a37    55 0001:00018a3d    56 0001:00018a48
    57 0001:00018a4e    58 0001:00018a59    59 0001:00018a5f    30 0001:00018a70
    31 0001:00018ad0

Line numbers for .\Debug\NxVehicle.obj(c:\program files\ageia technologies\ageia physx sdk\v2.3.2\sdks\physics\include\nxbodydesc.h) segment .text

   278 0001:00017890   279 0001:000178de   280 0001:000178e6   283 0001:00017900
   284 0001:00017907   285 0001:0001790f   286 0001:0001791a   287 0001:00017925
   288 0001:00017930   289 0001:0001793a   290 0001:00017944   291 0001:0001794e
   292 0001:00017958   293 0001:00017962   294 0001:0001796c   295 0001:00017976
   296 0001:00017980   297 0001:0001798a   298 0001:00017994

Line numbers for .\Debug\NxVehicle.obj(e:\tony\codes\fantasy\cutecar\src\nxwheeldesc.h) segment .text

    83 0001:00017850    86 0001:00017857    89 0001:00017869    91 0001:0001786d
    94 0001:00017883    96 0001:00017887    97 0001:00017889

Line numbers for .\Debug\NxVehicle.obj(e:\tony\codes\fantasy\cutecar\src\nxvehicledesc.h) segment .text

    65 0001:000177e0    66 0001:000177e9    67 0001:0001780b    68 0001:00017828
    69 0001:0001782c    71 0001:0001782e    72 0001:00017841    74 0001:00017845
    75 0001:00017847

Line numbers for .\Debug\NxVehicle.obj(e:\tony\codes\fantasy\cutecar\src\nxvehicle.cpp) segment .text

    18 0001:00015700    19 0001:000157b6    20 0001:000157c8    21 0001:000157d5
    22 0001:000157e2    24 0001:000157fa    25 0001:00015808    26 0001:0001580a
    27 0001:00015814    28 0001:0001581d    31 0001:00015840    32 0001:00015865
    33 0001:00015871    35 0001:00015894    36 0001:0001589d    38 0001:000158bd
    40 0001:000158df    42 0001:000158f3    43 0001:0001592b    45 0001:00015940
    46 0001:00015942    49 0001:00015980    50 0001:0001599f    51 0001:000159a5
    54 0001:000159ac    57 0001:000159bb    60 0001:000159c2    61 0001:00015a21
    63 0001:00015a30    65 0001:00015a3f    67 0001:00015a4e    68 0001:00015a59
    69 0001:00015a63    70 0001:00015a6d    71 0001:00015a77    72 0001:00015a81
    75 0001:00015a9f    76 0001:00015ab1    78 0001:00015adc    79 0001:00015af7
    80 0001:00015b13    81 0001:00015b4b    83 0001:00015b50    84 0001:00015b5f
    85 0001:00015b68    86 0001:00015b74    88 0001:00015b86    89 0001:00015ba1
    91 0001:00015bad    92 0001:00015bed    94 0001:00015c23    96 0001:00015c35
    98 0001:00015c42    99 0001:00015c5d   101 0001:00015c6c   102 0001:00015cac
   104 0001:00015ce2   106 0001:00015cf2   108 0001:00015cf4   109 0001:00015d04
   112 0001:00015d16   114 0001:00015d23   115 0001:00015d3e   118 0001:00015d4d
   119 0001:00015d8d   122 0001:00015dc3   124 0001:00015dc5   127 0001:00015dd5
   129 0001:00015e07   130 0001:00015e34   132 0001:00015e3d   134 0001:00015e52
   136 0001:00015e54   137 0001:00015e94   139 0001:00015eca   141 0001:00015ecf
   142 0001:00015ee1   143 0001:00015ef9   144 0001:00015f11   145 0001:00015f2c
   146 0001:00015f3e   147 0001:00015f50   150 0001:00015f70   152 0001:00015f91
   154 0001:00015fa6   155 0001:00015fd9   158 0001:00015ff0   159 0001:00016012
   161 0001:00016018   164 0001:00016033   165 0001:00016046   166 0001:00016055
   167 0001:0001606d   171 0001:00016080   174 0001:000160b6   176 0001:000160ed
   178 0001:000160ff   179 0001:00016107   181 0001:00016112   182 0001:0001613b
   185 0001:00016165   187 0001:0001619d   188 0001:000161af   190 0001:000161be
   192 0001:000161d9   193 0001:000161ed   195 0001:000161fc   197 0001:00016209
   199 0001:00016212   201 0001:00016241   203 0001:0001626a   205 0001:00016272
   208 0001:000162b9   209 0001:000162c0   211 0001:000162cb   213 0001:000162e3
   214 0001:000162f8   217 0001:000162fa   218 0001:00016313   219 0001:00016346
   221 0001:0001634f   225 0001:00016359   227 0001:00016368   228 0001:00016374
   229 0001:00016380   230 0001:0001638c   231 0001:00016398   233 0001:000163aa
   234 0001:000163da   237 0001:00016400   238 0001:00016407   241 0001:00016410
   242 0001:00016434   243 0001:0001644f   244 0001:00016487   245 0001:0001648e
   246 0001:000164b0   249 0001:000164da   251 0001:000164f5   253 0001:0001650e
   256 0001:0001651e   257 0001:00016525   258 0001:0001652c   261 0001:00016533
   263 0001:0001655c   265 0001:00016573   267 0001:00016592   269 0001:000165b6
   270 0001:000165e3   271 0001:000165f3   275 0001:000166a3   277 0001:000166b8
   279 0001:000166ca   280 0001:000166e1   281 0001:000166f9   282 0001:00016704
   283 0001:00016716   284 0001:0001672c   286 0001:0001673f   288 0001:00016741
   289 0001:0001674c   292 0001:0001675f   294 0001:00016779   295 0001:000167aa
   296 0001:000167c5   298 0001:000167d1   299 0001:000167d8   301 0001:000167ed
   302 0001:000167f8   304 0001:0001680b   306 0001:0001680d   308 0001:00016817
   309 0001:00016827   310 0001:0001683f   311 0001:0001686a   316 0001:0001687d
   317 0001:0001688e   319 0001:00016893   321 0001:000168a2   322 0001:000168ab
   323 0001:000168ad   325 0001:000168b6   327 0001:000168bb   329 0001:000168db
   330 0001:000168e7   331 0001:000168f3   332 0001:00016900   334 0001:0001690d
   336 0001:0001690f   337 0001:0001691c   338 0001:00016929   339 0001:00016935
   342 0001:00016941   343 0001:00016948   345 0001:00016978   346 0001:00016986
   348 0001:000169b0   349 0001:000169fe   350 0001:00016a07   351 0001:00016a26
   352 0001:00016a28   355 0001:00016a33   357 0001:00016a58   358 0001:00016a6f
   359 0001:00016a94   360 0001:00016a96   364 0001:00016ab0   365 0001:00016ace
   367 0001:00016add   369 0001:00016b03   370 0001:00016b25   371 0001:00016b35
   373 0001:00016b51   374 0001:00016b63   375 0001:00016b65   377 0001:00016b80
   379 0001:00016b85   380 0001:00016b8c   381 0001:00016b99   383 0001:00016bcb
   385 0001:00016bdb   386 0001:00016be9   388 0001:00016bfc   389 0001:00016bfe
   392 0001:00016c20   393 0001:00016c27   395 0001:00016c2f   396 0001:00016c3b
   397 0001:00016c59   398 0001:00016c80   399 0001:00016ca1   401 0001:00016cce
   402 0001:00016cf3   405 0001:00016d00   406 0001:00016d09   407 0001:00016d11
   408 0001:00016d19   410 0001:00016d43   412 0001:00016d64   414 0001:00016d66
   418 0001:00016db1   419 0001:00016dc6   420 0001:00016dce   421 0001:00016de0
   422 0001:00016df2   425 0001:00016e00   426 0001:00016e07   427 0001:00016e26
   430 0001:00016e30   431 0001:00016e37   434 0001:00016e40   435 0001:00016e49
   436 0001:00016e59   438 0001:00016e61   440 0001:00016e69   442 0001:00016e78
   444 0001:00016e7a   446 0001:00016e87   448 0001:00016eac   450 0001:00016eb3
   452 0001:00016edb   454 0001:00016f05   456 0001:00016f0c   458 0001:00016f0e
   459 0001:00016f1a   460 0001:00016f2f   462 0001:00016f3f   464 0001:00016f4f
   466 0001:00016f56   468 0001:00016f65   471 0001:00016f7a   473 0001:00016f7c
   477 0001:00016f88   478 0001:00016f98   481 0001:00016fa0   482 0001:00016fa9
   484 0001:00016fb9   485 0001:00016fc4   486 0001:00016fd3   488 0001:00016fe5
   489 0001:00016fff   491 0001:00017021   495 0001:00017040   496 0001:0001704a
   498 0001:0001705c   501 0001:00017060   502 0001:00017069   503 0001:00017070
   504 0001:00017077   506 0001:00017099   507 0001:000170ad   509 0001:000170be
   510 0001:000170c7   512 0001:000170d8   513 0001:000170da   514 0001:000170e0
   517 0001:000170f0   518 0001:000170f9   519 0001:0001710d   520 0001:00017116
   523 0001:00017126   525 0001:00017158   527 0001:0001715e   528 0001:00017166
   529 0001:00017168   530 0001:00017185   533 0001:0001718d   534 0001:000171a1
   536 0001:000171c8   537 0001:000171cb   540 0001:000171e0   541 0001:000171e7
   543 0001:000171f3   547 0001:000171fb   549 0001:00017209   552 0001:00017210
   553 0001:00017217   556 0001:00017223   563 0001:00017231   565 0001:00017240
   566 0001:00017247   569 0001:00017253   576 0001:00017261   579 0001:00017270
   580 0001:00017279   581 0001:000172c0   582 0001:00017307   583 0001:0001733b
   586 0001:00017340   587 0001:0001734c   589 0001:00017383   591 0001:0001739d
   592 0001:000173ae   595 0001:000173ba   596 0001:000173c1   598 0001:000173cb
   600 0001:000173d1   602 0001:000173f7   604 0001:0001741d   605 0001:00017437
   606 0001:0001745a   607 0001:0001748b   608 0001:000174bc   611 0001:000174c0
   612 0001:000174c9   613 0001:000174e8   614 0001:000174f9   616 0001:00017505
   617 0001:0001750c   618 0001:00017516   620 0001:0001751c   621 0001:00017542
   622 0001:00017568   623 0001:00017582   624 0001:0001759c   625 0001:000175c4
   627 0001:000175ec   628 0001:000175f8   629 0001:00017601   630 0001:0001760b
   631 0001:00017615   632 0001:0001761f   635 0001:00017630   636 0001:00017639
   637 0001:00017644   639 0001:00017650   640 0001:0001765f   642 0001:00017671
   645 0001:00017680   646 0001:00017690   647 0001:000176ab   650 0001:000176c0
   651 0001:000176c9   652 0001:000176d1   653 0001:000176d8   654 0001:000176df
   655 0001:000176e6   657 0001:000176ed   658 0001:00017718   659 0001:00017743
   662 0001:00017750   663 0001:00017759   664 0001:00017761   665 0001:00017768
   666 0001:0001776f   667 0001:00017776   669 0001:0001777d   670 0001:000177a8
   671 0001:000177d3

Line numbers for .\Debug\NxTerrainItem.obj(e:\tony\codes\fantasy\cutecar\src\nxterrainitem.h) segment .text

    27 0001:00015450    28 0001:00015457    29 0001:0001545d

Line numbers for .\Debug\NxTerrainItem.obj(c:\program files\ageia technologies\ageia physx sdk\v2.3.2\sdks\foundation\include\nxarray.h) segment .text

   286 0001:000150b0   287 0001:000150b7   288 0001:000150c2    43 0001:000150d0
    45 0001:000150f4   237 0001:000154b0   238 0001:000154b7   239 0001:000154c3
   209 0001:000154d0   211 0001:000154d7   213 0001:000154e5   215 0001:000154fa
   216 0001:00015507   217 0001:00015516   124 0001:00015520   125 0001:00015529
   128 0001:00015536   129 0001:00015545   130 0001:0001555e   131 0001:00015573
   134 0001:00015581   135 0001:00015590   136 0001:000155a4   138 0001:000155ac
   430 0001:000155c0   431 0001:000155c7   432 0001:000155dc   144 0001:000155f0
   145 0001:000155f9   146 0001:0001561e   409 0001:00015630   410 0001:00015637
   411 0001:00015653   412 0001:0001565f   413 0001:00015662   416 0001:00015670
   418 0001:00015677   422 0001:0001569d    76 0001:000156b0    77 0001:000156b7
    78 0001:000156cc    79 0001:000156da    80 0001:000156e3    81 0001:000156ed
    82 0001:000156f7

Line numbers for .\Debug\NxTerrainItem.obj(c:\program files\ageia technologies\ageia physx sdk\v2.3.2\sdks\foundation\include\nxvec3.h) segment .text

   203 0001:00015080   204 0001:00015087   205 0001:000150a5   206 0001:000150aa

Line numbers for .\Debug\NxTerrainItem.obj(c:\program files\ageia technologies\ageia physx sdk\v2.3.2\sdks\physics\include\nxbodydesc.h) segment .text

   301 0001:00014eb0   302 0001:00014eb7   303 0001:00014eca   304 0001:00014ece
   305 0001:00014ee1   306 0001:00014ee5   307 0001:00014ef8   308 0001:00014efc
   309 0001:00014f0f   310 0001:00014f13   311 0001:00014f26   312 0001:00014f2a
   313 0001:00014f39   314 0001:00014f3d   315 0001:00014f3f

Line numbers for .\Debug\NxTerrainItem.obj(c:\program files\ageia technologies\ageia physx sdk\v2.3.2\sdks\physics\include\nxactordesc.h) segment .text

   383 0001:00014db0   384 0001:00014db9   385 0001:00014dc8   387 0001:00014dcc
   388 0001:00014dee   389 0001:00014e14   392 0001:00014e18   393 0001:00014e3a
   395 0001:00014e3e   396 0001:00014e40   335 0001:00014e50   336 0001:00014e57
   337 0001:00014e6a   339 0001:00014e6e   340 0001:00014e89   341 0001:00014e8d
   342 0001:00014e9c   344 0001:00014ea0   345 0001:00014ea2   353 0001:00014f50
   354 0001:00014f59   355 0001:00014f84   356 0001:00014fbb   358 0001:00014ffb
   359 0001:0001500c   360 0001:00015010   361 0001:00015034   362 0001:00015058
   363 0001:00015074   364 0001:00015076

Line numbers for .\Debug\NxTerrainItem.obj(e:\tony\codes\fantasy\cutecar\src\nxterrainitem.cpp) segment .text

   121 0001:00014790   122 0001:000147a9   123 0001:000147b3   126 0001:000147c0
   127 0001:000147d0   130 0001:000147e0   131 0001:000147e3   132 0001:000147eb
   133 0001:00014806   137 0001:00014810   139 0001:0001482e   141 0001:0001488e
   142 0001:000148a0   143 0001:000148c0   145 0001:000148c9   147 0001:000148d8
   148 0001:000148f6   150 0001:00014905   152 0001:00014911   155 0001:00014923
   157 0001:00014959   159 0001:00014974   161 0001:0001497a   164 0001:000149ad
   166 0001:000149cb   167 0001:000149fe   170 0001:00014a10   173 0001:00014a2e
   174 0001:00014a8c   175 0001:00014a9e   176 0001:00014ac4   178 0001:00014ad3
   180 0001:00014ae2   181 0001:00014b00   183 0001:00014b26   185 0001:00014b32
   187 0001:00014b44   189 0001:00014b6a   190 0001:00014b88   193 0001:00014ba8
   194 0001:00014c00   195 0001:00014c0f   196 0001:00014c32   198 0001:00014c3b
   200 0001:00014c4a   201 0001:00014c68   203 0001:00014c8b   205 0001:00014c97
   207 0001:00014ca9   209 0001:00014cea   210 0001:00014d05   213 0001:00014d22
   216 0001:00014d70   221 0001:00014d73   222 0001:00014d78    14 0001:00015120
    15 0001:00015148    16 0001:00015156    18 0001:0001515f    19 0001:00015166
    20 0001:0001517d    23 0001:00015189    25 0001:0001519a    27 0001:000151a2
    29 0001:000151ab    31 0001:000151b5    33 0001:000151be    35 0001:000151c8
    39 0001:000151d1    41 0001:000151e7    43 0001:000151ef    45 0001:000151f8
    47 0001:00015202    49 0001:0001520b    51 0001:00015215    54 0001:0001521e
    56 0001:00015223    57 0001:0001526a    58 0001:0001527d    59 0001:000152b1
    61 0001:000152c5    62 0001:000152d3    63 0001:000152e8    67 0001:00015318
    69 0001:00015324    71 0001:0001533b    73 0001:00015343    74 0001:0001534c
    76 0001:0001536c    78 0001:00015376    80 0001:0001537f    82 0001:00015389
    84 0001:00015392    86 0001:0001539c    89 0001:000153a5    91 0001:000153c1
    93 0001:000153c9    94 0001:000153d2    96 0001:000153f2    98 0001:000153fc
   100 0001:00015405   102 0001:0001540f   104 0001:00015418   106 0001:00015422
   113 0001:0001542d   115 0001:0001543a     6 0001:00046680   118 0001:000466a0

Line numbers for .\Debug\NxTerrain.obj(d:\program files\microsoft visual studio .net 2003\vc7\include\ios) segment .text

   119 0001:00046620   119 0001:00046640   119 0001:00046660

Line numbers for .\Debug\NxTerrain.obj(c:\program files\ageia technologies\ageia physx sdk\v2.3.2\sdks\foundation\include\nxarray.h) segment .text

   262 0001:00014730   263 0001:00014737   264 0001:00014751   265 0001:0001475c
   304 0001:00014760   305 0001:00014767   306 0001:0001476c   316 0001:00014770
   317 0001:00014777   318 0001:0001477d

Line numbers for .\Debug\NxTerrain.obj(c:\program files\ageia technologies\ageia physx sdk\v2.3.2\sdks\physics\include\nxtrianglemeshshapedesc.h) segment .text

    74 0001:000145e0    75 0001:00014616    76 0001:0001461e    79 0001:00014690
    80 0001:00014697    81 0001:0001469f    82 0001:000146a9    86 0001:000146b3
    89 0001:000146c0    90 0001:000146c7    94 0001:000146d4    95 0001:000146dc

Line numbers for .\Debug\NxTerrain.obj(c:\program files\ageia technologies\ageia physx sdk\v2.3.2\sdks\foundation\include\nxsimpletrianglemesh.h) segment .text

    96 0001:00014520    97 0001:00014527    98 0001:0001452f   101 0001:00014540
   102 0001:00014547   103 0001:00014550   104 0001:0001455a   105 0001:00014564
   106 0001:0001456e   107 0001:00014578   108 0001:00014582   109 0001:0001458c

Line numbers for .\Debug\NxTerrain.obj(c:\program files\ageia technologies\ageia physx sdk\v2.3.2\sdks\physics\include\nxtrianglemeshdesc.h) segment .text

   171 0001:00014500   172 0001:0001450f   173 0001:00014517   176 0001:00014590
   177 0001:00014597   178 0001:0001459f   179 0001:000145a9   180 0001:000145b3
   181 0001:000145bd   182 0001:000145c7   183 0001:000145d1   184 0001:000145db

Line numbers for .\Debug\NxTerrain.obj(c:\program files\ageia technologies\ageia physx sdk\v2.3.2\sdks\physics\include\nxmaterialdesc.h) segment .text

   345 0001:00014450   346 0001:00014462   347 0001:0001446a   350 0001:00014480
   351 0001:00014487   352 0001:00014490   353 0001:0001449a   356 0001:000144a4
   357 0001:000144ae   359 0001:000144b8   360 0001:000144cc   361 0001:000144d6
   362 0001:000144e0   363 0001:000144ea   364 0001:000144f4

Line numbers for .\Debug\NxTerrain.obj(c:\program files\ageia technologies\ageia physx sdk\v2.3.2\sdks\physics\include\nxactordesc.h) segment .text

   370 0001:00014320   371 0001:0001435b   372 0001:00014367   373 0001:0001436f
   374 0001:00014379   318 0001:000143a0   320 0001:000143b1   377 0001:000143e0
   378 0001:000143e7   379 0001:000143ef   380 0001:000143fa   324 0001:00014400
   325 0001:00014407   326 0001:00014411   327 0001:0001441b   328 0001:00014423
   329 0001:0001442d   330 0001:00014437   331 0001:00014441   332 0001:0001444a

Line numbers for .\Debug\NxTerrain.obj(c:\program files\ageia technologies\ageia physx sdk\v2.3.2\sdks\foundation\include\nxvec3.h) segment .text

   647 0001:000140e0   648 0001:000140e9   649 0001:000140f4   651 0001:00014106
   652 0001:00014112   653 0001:0001411f   654 0001:0001412e   656 0001:0001413d
   657 0001:00014140   717 0001:00014150   718 0001:00014157   719 0001:00014189
   800 0001:00014190   801 0001:00014197   802 0001:000141d0   856 0001:000141e0
   857 0001:000141e9   858 0001:000141f1   859 0001:00014201   860 0001:00014210
   404 0001:00014220   405 0001:00014249   747 0001:00014260   749 0001:00014269
   750 0001:00014286   751 0001:000142a1   753 0001:000142bc   754 0001:000142c4
   755 0001:000142cd   756 0001:000142d6   837 0001:000142e0   838 0001:000142e7
   839 0001:000142f4   840 0001:00014303   841 0001:00014312   842 0001:00014315

Line numbers for .\Debug\NxTerrain.obj(c:\program files\ageia technologies\ageia physx sdk\v2.3.2\sdks\physics\include\nxscenedesc.h) segment .text

   383 0001:00014000   384 0001:00014012   385 0001:0001401a   388 0001:00014030
   389 0001:00014037   390 0001:00014040   391 0001:0001404b   392 0001:00014055
   393 0001:0001405f   395 0001:00014069   396 0001:00014073   397 0001:0001407d
   399 0001:00014087   400 0001:00014091   402 0001:0001409b   403 0001:000140a5
   404 0001:000140af   406 0001:000140b9   407 0001:000140c0   408 0001:000140c7
   409 0001:000140ce   410 0001:000140d8

Line numbers for .\Debug\NxTerrain.obj(c:\program files\ageia technologies\ageia physx sdk\v2.3.2\sdks\physics\include\nxphysicssdk.h) segment .text

    98 0001:00013fb0   100 0001:00013fb7   101 0001:00013fbf    81 0001:00013fd0
    82 0001:00013fd7    83 0001:00013fe0    84 0001:00013fea    85 0001:00013ff4

Line numbers for .\Debug\NxTerrain.obj(e:\tony\codes\fantasy\cutecar\src\nxterrain.cpp) segment .text

     9 0001:000131f0    10 0001:00013200    11 0001:0001320a    13 0001:00013214
    14 0001:0001321e    15 0001:00013228    17 0001:00013232    18 0001:0001323b
    21 0001:00013250    22 0001:00013260    26 0001:00013270    28 0001:00013279
    29 0001:0001329a    31 0001:000132a3    33 0001:000132a8    35 0001:000132b5
    37 0001:000132cf    39 0001:000132e9    43 0001:00013303    44 0001:0001331d
    45 0001:00013337    46 0001:00013351    48 0001:0001336b    49 0001:00013385
    50 0001:0001339f    51 0001:000133b9    52 0001:000133d3    53 0001:000133ed
    56 0001:00013407    62 0001:0001341e    63 0001:00013426    65 0001:00013440
    69 0001:0001345b    70 0001:00013474    71 0001:00013481    72 0001:00013491
    77 0001:000134a1    84 0001:000134b0    85 0001:000134b9    86 0001:000134d4
    87 0001:000134f0    89 0001:0001350c    90 0001:0001351c    92 0001:0001352c
    93 0001:0001353c    94 0001:00013546    95 0001:00013552    96 0001:00013558
    98 0001:00013561   100 0001:00013571   102 0001:00013585   104 0001:00013597
   107 0001:000135ab   109 0001:000135bd   111 0001:000135d1   112 0001:000135d3
   113 0001:000135e7   114 0001:000135ea   118 0001:000135f0   119 0001:00013614
   121 0001:0001361f   122 0001:00013640   123 0001:0001364d   124 0001:0001365d
   130 0001:0001366d   131 0001:00013677   132 0001:00013681   133 0001:0001368b
   135 0001:000136ca   136 0001:000136d4   137 0001:000136de   138 0001:000136e8
   140 0001:00013729   141 0001:00013733   142 0001:0001373d   143 0001:00013747
   145 0001:00013788   146 0001:00013792   147 0001:0001379c   148 0001:000137a6
   150 0001:000137e7   151 0001:000137fc   157 0001:00013802   160 0001:00013807
   162 0001:0001381e   168 0001:0001384e   173 0001:00013853   174 0001:00013867
   176 0001:00013928   177 0001:00013944   179 0001:0001396a   180 0001:00013986
   183 0001:00013988   184 0001:0001399c   185 0001:000139fc   187 0001:00013a1b
   190 0001:00013a27   192 0001:00013a83   193 0001:00013a8a   196 0001:00013ab0
   197 0001:00013ac9   203 0001:00013acb   204 0001:00013ad6   205 0001:00013adf
   206 0001:00013ae8   207 0001:00013af2   208 0001:00013afc   209 0001:00013b0b
   210 0001:00013b1a   212 0001:00013b24   213 0001:00013b2e   220 0001:00013b3d
   222 0001:00013b4f   223 0001:00013b5c   224 0001:00013b68   225 0001:00013b82
   226 0001:00013b92   227 0001:00013bb2   228 0001:00013bc1   229 0001:00013bdf
   230 0001:00013c05   231 0001:00013c12   235 0001:00013c60   239 0001:00013c67
   241 0001:00013c77   243 0001:00013c7e   245 0001:00013c8e   249 0001:00013c95
   251 0001:00013c9e   252 0001:00013cb5   255 0001:00013cc4   256 0001:00013cdc
   257 0001:00013cf2   258 0001:00013d0e   261 0001:00013d20   262 0001:00013d27
   263 0001:00013d32   266 0001:00013d40   267 0001:00013d47   268 0001:00013d56
   271 0001:00013d60   272 0001:00013d67   273 0001:00013d72   276 0001:00013d80
   277 0001:00013d87   278 0001:00013d96   282 0001:00013da0   283 0001:00013da7
   284 0001:00013dbe   287 0001:00013dd0   288 0001:00013dd7   289 0001:00013de2
   292 0001:00013df0   293 0001:00013df7   294 0001:00013e06   297 0001:00013e10
   298 0001:00013e37   299 0001:00013e77   302 0001:00013ea0   303 0001:00013ea7
   304 0001:00013eb2   307 0001:00013ec0   308 0001:00013ec7   309 0001:00013ed2
   317 0001:00013ee0   318 0001:00013ee7   319 0001:00013ef6   322 0001:00013f00
   323 0001:00013f07   324 0001:00013f12   327 0001:00013f20   328 0001:00013f27
   329 0001:00013f36   332 0001:00013f40   333 0001:00013f47   334 0001:00013f52
   337 0001:00013f60   338 0001:00013f67   341 0001:00013f70   342 0001:00013f77
     6 0001:00046610

Line numbers for .\Debug\NxAllVehicle.obj(d:\program files\microsoft visual studio .net 2003\vc7\include\ios) segment .text

   119 0001:000465b0   119 0001:000465d0   119 0001:000465f0

Line numbers for .\Debug\NxAllVehicle.obj(d:\program files\microsoft visual studio .net 2003\vc7\include\iosfwd) segment .text

   346 0001:000131b0   347 0001:000131b8   348 0001:000131db

Line numbers for .\Debug\NxAllVehicle.obj(d:\program files\microsoft visual studio .net 2003\vc7\include\xstring) segment .text

  1379 0001:000130c0  1380 0001:000130c7  1381 0001:000130ea  1412 0001:000130f0
  1413 0001:000130f9  1414 0001:00013104  1415 0001:0001310c  1416 0001:0001311a
  1420 0001:00013126  1422 0001:00013170  1423 0001:000131a6

Line numbers for .\Debug\NxAllVehicle.obj(d:\program files\microsoft visual studio .net 2003\vc7\include\string) segment .text

    71 0001:00012fd0    72 0001:00012fd3    73 0001:00012fe4

Line numbers for .\Debug\NxAllVehicle.obj(d:\program files\microsoft visual studio .net 2003\vc7\include\new) segment .text

    63 0001:00012e20    64 0001:00012e23    65 0001:00012e26    68 0001:00012e30
    69 0001:00012e33

Line numbers for .\Debug\NxAllVehicle.obj(d:\program files\microsoft visual studio .net 2003\vc7\include\stdexcept) segment .text

   118 0001:000119b0   119 0001:000119cc    19 0001:000119e0    20 0001:00011a23
    26 0001:00011a40    27 0001:00011a47    28 0001:00011a52    23 0001:00011a90
   122 0001:00011af0    95 0001:00012080    96 0001:0001209c    99 0001:000120b0

Line numbers for .\Debug\NxAllVehicle.obj(c:\program files\ageia technologies\ageia physx sdk\v2.3.2\sdks\foundation\include\nxallocatordefault.h) segment .text

    89 0001:00010ac0    90 0001:00010ac7    91 0001:00010ad9    53 0001:00012350
    59 0001:00012357    65 0001:00012363

Line numbers for .\Debug\NxAllVehicle.obj(d:\program files\microsoft visual studio .net 2003\vc7\include\utility) segment .text

    34 0001:000109c0    35 0001:000109dc    34 0001:00012ea0    35 0001:00012ebc
    14 0001:00012ff0    15 0001:00012ff4    16 0001:00012ffc    17 0001:0001300e

Line numbers for .\Debug\NxAllVehicle.obj(d:\program files\microsoft visual studio .net 2003\vc7\include\functional) segment .text

   138 0001:00010970   139 0001:00010979   140 0001:0001099d

Line numbers for .\Debug\NxAllVehicle.obj(d:\program files\microsoft visual studio .net 2003\vc7\include\xmemory) segment .text

   111 0001:00010960   113 0001:00010967   115 0001:00012220   117 0001:00012227
   131 0001:00012230   132 0001:00012237   133 0001:00012243   151 0001:00012250
   152 0001:00012257   153 0001:00012263   151 0001:00012270   152 0001:00012277
   153 0001:00012283   156 0001:00012f00   157 0001:00012f09   158 0001:00012f10
   159 0001:00012f28   136 0001:00012f30   137 0001:00012f37   138 0001:00012f45
   146 0001:00012f50   147 0001:00012f57   148 0001:00012f67    48 0001:00013020
    50 0001:00013023    48 0001:00013030    50 0001:00013033   120 0001:00013040
   122 0001:00013047   120 0001:00013050   122 0001:00013057    33 0001:00013060
    34 0001:00013063    35 0001:00013072    41 0001:00013080    42 0001:00013086
    43 0001:000130b6

Line numbers for .\Debug\NxAllVehicle.obj(c:\program files\ageia technologies\ageia physx sdk\v2.3.2\sdks\foundation\include\nxarray.h) segment .text

    43 0001:0000f9b0    45 0001:0000f9d4    76 0001:0000f9e0    77 0001:0000f9e7
    78 0001:0000f9fc    79 0001:0000fa0a    80 0001:0000fa13    81 0001:0000fa1d
    82 0001:0000fa27   209 0001:0000fa30   211 0001:0000fa37   213 0001:0000fa45
   215 0001:0000fa5a   216 0001:0000fa67   217 0001:0000fa76   183 0001:0000fa80
   184 0001:0000fa87   185 0001:0000fa95    43 0001:0000faa0    45 0001:0000fac4
    76 0001:0000fad0    77 0001:0000fad7    78 0001:0000faec    79 0001:0000fafa
    80 0001:0000fb03    81 0001:0000fb0d    82 0001:0000fb17   209 0001:0000fb20
   211 0001:0000fb27   213 0001:0000fb35   215 0001:0000fb4a   216 0001:0000fb57
   217 0001:0000fb66   183 0001:0000fb70   184 0001:0000fb77   185 0001:0000fb85
   262 0001:0000fb90   263 0001:0000fb97   264 0001:0000fbb1   265 0001:0000fbbc
    43 0001:0000fbc0    45 0001:0000fbe4    76 0001:0000fbf0    77 0001:0000fbf7
    78 0001:0000fc0c    79 0001:0000fc1a    80 0001:0000fc23    81 0001:0000fc2d
    82 0001:0000fc37   209 0001:0000fc40   211 0001:0000fc47   213 0001:0000fc55
   215 0001:0000fc6a   216 0001:0000fc77   217 0001:0000fc86   262 0001:0000fc90
   263 0001:0000fc97   264 0001:0000fcb1   265 0001:0000fcbc   294 0001:0000fcc0
   295 0001:0000fcc7   296 0001:0000fcd2    43 0001:0000fce0    45 0001:0000fd04
    76 0001:0000fd10    77 0001:0000fd17    78 0001:0000fd2c    79 0001:0000fd3a
    80 0001:0000fd43    81 0001:0000fd4d    82 0001:0000fd57   209 0001:0000fd60
   211 0001:0000fd67   213 0001:0000fd75   215 0001:0000fd8a   216 0001:0000fd97
   217 0001:0000fda6   262 0001:0000fdb0   263 0001:0000fdb7   264 0001:0000fdd1
   265 0001:0000fddc   294 0001:0000fde0   295 0001:0000fde7   296 0001:0000fdf2
    43 0001:0000fe00    45 0001:0000fe24    76 0001:0000fe30    77 0001:0000fe37
    78 0001:0000fe4c    79 0001:0000fe5a    80 0001:0000fe63    81 0001:0000fe6d
    82 0001:0000fe77   183 0001:0000fe80   184 0001:0000fe87   185 0001:0000fe9a
   209 0001:0000fea0   211 0001:0000fea7   213 0001:0000feb5   215 0001:0000feca
   216 0001:0000fed9   217 0001:0000fee8   223 0001:0000fef0   224 0001:0000fef7
   226 0001:0000ff05   228 0001:0000ff1a   229 0001:0000ff29   230 0001:0000ff32
   294 0001:0000ff40   295 0001:0000ff47   296 0001:0000ff52   124 0001:000109f0
   125 0001:000109f9   128 0001:00010a06   129 0001:00010a15   130 0001:00010a2e
   131 0001:00010a43   134 0001:00010a51   135 0001:00010a60   136 0001:00010a74
   138 0001:00010a7c   430 0001:00010a90   431 0001:00010a97   432 0001:00010aac
   435 0001:00010ae0   436 0001:00010ae7   439 0001:00010afa   440 0001:00010afc
   124 0001:00010b10   125 0001:00010b19   128 0001:00010b26   129 0001:00010b35
   130 0001:00010b4e   131 0001:00010b63   134 0001:00010b71   135 0001:00010b80
   136 0001:00010b94   138 0001:00010b9c   304 0001:00010bb0   305 0001:00010bb7
   306 0001:00010bbc   316 0001:00010bc0   317 0001:00010bc7   318 0001:00010bcd
   430 0001:00010be0   431 0001:00010be7   432 0001:00010bfc   435 0001:00010c10
   436 0001:00010c17   439 0001:00010c2a   440 0001:00010c2c   124 0001:00010c40
   125 0001:00010c49   128 0001:00010c56   129 0001:00010c65   130 0001:00010c7e
   131 0001:00010c93   134 0001:00010ca1   135 0001:00010cb0   136 0001:00010cc4
   138 0001:00010ccc   304 0001:00010ce0   305 0001:00010ce7   306 0001:00010cec
   316 0001:00010cf0   317 0001:00010cf7   318 0001:00010cfd   430 0001:00010d10
   431 0001:00010d17   432 0001:00010d2c   435 0001:00010d40   436 0001:00010d47
   439 0001:00010d5a   440 0001:00010d5c   124 0001:00010d70   125 0001:00010d79
   128 0001:00010d86   129 0001:00010d95   130 0001:00010dae   131 0001:00010dc3
   134 0001:00010dd1   135 0001:00010de0   136 0001:00010df4   138 0001:00010dfc
   183 0001:00010e10   184 0001:00010e17   185 0001:00010e25   304 0001:00010e30
   305 0001:00010e37   306 0001:00010e3c   316 0001:00010e40   317 0001:00010e47
   318 0001:00010e4d   430 0001:00010e60   431 0001:00010e67   432 0001:00010e7c
   435 0001:00010e90   436 0001:00010e97   439 0001:00010eaa   440 0001:00010eac
   124 0001:00010ec0   125 0001:00010ec9   128 0001:00010ed6   129 0001:00010ee5
   130 0001:00010efe   131 0001:00010f13   134 0001:00010f21   135 0001:00010f30
   136 0001:00010f44   138 0001:00010f4c   430 0001:00010f60   431 0001:00010f67
   432 0001:00010f7c   435 0001:00010f90   436 0001:00010f97   439 0001:00010faa
   440 0001:00010fac   144 0001:00012290   145 0001:00012299   146 0001:000122be
   409 0001:000122d0   410 0001:000122d7   411 0001:000122f3   412 0001:000122ff
   413 0001:00012302   416 0001:00012310   418 0001:00012317   422 0001:0001233d
   144 0001:00012370   145 0001:00012379   146 0001:0001239e   409 0001:000123b0
   410 0001:000123b7   411 0001:000123d3   412 0001:000123df   413 0001:000123e2
   416 0001:000123f0   418 0001:000123f7   422 0001:0001241d   144 0001:00012430
   145 0001:00012439   146 0001:0001245e   409 0001:00012470   410 0001:00012477
   411 0001:00012493   412 0001:0001249f   413 0001:000124a2   416 0001:000124b0
   418 0001:000124b7   422 0001:000124dd   144 0001:000124f0   145 0001:000124f9
   146 0001:0001251e   409 0001:00012530   410 0001:00012537   411 0001:00012553
   412 0001:0001255f   413 0001:00012562   416 0001:00012570   418 0001:00012577
   422 0001:0001259d   144 0001:000125b0   145 0001:000125b9   146 0001:000125e3
   409 0001:000125f0   410 0001:000125f7   411 0001:00012613   412 0001:00012621
   413 0001:00012624   416 0001:00012630   418 0001:00012637   422 0001:0001265d

Line numbers for .\Debug\NxAllVehicle.obj(d:\program files\microsoft visual studio .net 2003\vc7\include\xtree) segment .text

   391 0001:0000f930   392 0001:0000f937   393 0001:0000f93f   457 0001:0000f950
   458 0001:0000f957   459 0001:0000f964   447 0001:0000f970   448 0001:0000f977
   449 0001:0000f97d   240 0001:0000f990   241 0001:0000f997   242 0001:0000f9a6
   141 0001:0000ff60   142 0001:0000ff63   143 0001:0000ff78   361 0001:0000ff80
   362 0001:0000ffa1   363 0001:0000ffa9   417 0001:0000ffc0   418 0001:0000ffc7
   419 0001:0000ffd9   509 0001:0000ffe0   510 0001:0000ffe9   512 0001:0000fff1
   513 0001:0000fffd   514 0001:0001001e   516 0001:00010026   518 0001:00010042
   519 0001:00010070   521 0001:00010093   523 0001:000100b4   524 0001:000100e4
   526 0001:00010109   528 0001:0001010e   530 0001:0001017b   531 0001:0001019e
   533 0001:000101c1   538 0001:000101e4   540 0001:0001026d   541 0001:00010290
   543 0001:000102b3   546 0001:000102d6   548 0001:000102db   550 0001:000102f7
   551 0001:00010325   553 0001:00010348   555 0001:00010369   556 0001:00010399
   558 0001:000103be   560 0001:000103c3   562 0001:00010430   563 0001:00010453
   565 0001:00010476   570 0001:00010499   572 0001:00010522   573 0001:00010545
   575 0001:00010565   579 0001:00010585   580 0001:0001059f   407 0001:000105b0
   408 0001:000105b7   409 0001:000105cd   809 0001:000105e0   810 0001:000105e7
   811 0001:000105ff   987 0001:00010610   988 0001:00010619   989 0001:00010626
   991 0001:0001062f   992 0001:00010642   993 0001:00010662   994 0001:00010673
   996 0001:00010675   997 0001:0001067b   998 0001:0001068c  1000 0001:0001068e
  1001 0001:00010691  1004 0001:000106a0  1005 0001:000106a7  1006 0001:000106b6
  1048 0001:000106c0  1049 0001:000106c7  1050 0001:000106d6  1142 0001:000106e0
  1143 0001:000106e9  1144 0001:00010713  1145 0001:0001072e  1146 0001:00010749
  1147 0001:00010764  1148 0001:00010778  1149 0001:0001078c   750 0001:00010790
   751 0001:00010799   753 0001:000107d1   754 0001:000107d9   758 0001:000107ea
   759 0001:000107fd   760 0001:0001081c   762 0001:00010827   780 0001:00010830
   781 0001:00010837   782 0001:0001084a   783 0001:00010864   784 0001:00010884
   245 0001:00010890   246 0001:00010897   247 0001:000108ab   890 0001:000108c0
   891 0001:000108c9   893 0001:000108ea   894 0001:00010901   895 0001:00010912
   896 0001:00010921   897 0001:00010932   898 0001:00010934  1058 0001:00010940
  1059 0001:00010947  1060 0001:00010956   283 0001:000109b0   284 0001:000109b7
   285 0001:000109bc   316 0001:00010fc0   317 0001:00010fc7   318 0001:00010fcf
   204 0001:00010fe0   205 0001:00010fe7   206 0001:00010ff5   136 0001:00011000
   137 0001:00011003   138 0001:00011009   146 0001:00011010   147 0001:00011013
   148 0001:00011016   151 0001:00011020   152 0001:00011023   153 0001:00011029
   156 0001:00011030   157 0001:00011033   158 0001:00011039   161 0001:00011040
   162 0001:00011043   163 0001:00011049   477 0001:00011050   478 0001:00011059
   479 0001:00011066   480 0001:0001106f   481 0001:00011073   483 0001:00011086
   484 0001:0001108c   485 0001:000110b1   486 0001:000110e3   488 0001:000110e5
   489 0001:000110e9   492 0001:0001111a   493 0001:00011126   495 0001:0001112e
   496 0001:0001114c   498 0001:00011178   500 0001:00011180   501 0001:000111ae
   503 0001:000111dc   505 0001:000111f3   590 0001:00011200   591 0001:0001121f
   592 0001:00011237   593 0001:00011265   594 0001:00011270   598 0001:00011278
   600 0001:0001127e   601 0001:0001129c   602 0001:000112ad   603 0001:000112cd
   604 0001:000112de   606 0001:000112e0   607 0001:000112eb   610 0001:000112fc
   612 0001:00011308   613 0001:00011319   614 0001:0001132c   616 0001:0001133d
   617 0001:0001134c   618 0001:00011359   619 0001:0001136e   620 0001:0001137f
   621 0001:00011381   623 0001:00011392   626 0001:000113a1   628 0001:000113d8
   631 0001:000113e7   633 0001:0001141e   635 0001:00011423   636 0001:0001143f
   638 0001:0001145d   639 0001:00011470   640 0001:00011476   642 0001:0001147b
   643 0001:0001148c   644 0001:0001149f   645 0001:000114b0   646 0001:000114c1
   647 0001:000114df   650 0001:000114fb   651 0001:0001150a   652 0001:00011517
   653 0001:00011537   654 0001:00011553   655 0001:00011555   657 0001:00011571
   658 0001:0001158f   661 0001:000115b1   664 0001:000115c9   665 0001:00011607
   667 0001:0001161e   668 0001:0001162f   670 0001:00011642   671 0001:00011651
   672 0001:00011660   673 0001:0001166c   676 0001:0001167d   677 0001:00011690
   678 0001:00011696   679 0001:0001169b   681 0001:000116d9   682 0001:000116e8
   684 0001:000116ee   686 0001:000116f3   688 0001:00011712   689 0001:0001172c
   690 0001:0001173b   691 0001:00011747   694 0001:00011758   695 0001:00011776
   696 0001:00011785   697 0001:0001179f   698 0001:000117ab   701 0001:000117b0
   703 0001:000117b5   704 0001:000117c6   706 0001:000117d9   707 0001:000117e8
   708 0001:000117f7   709 0001:00011803   711 0001:00011814   712 0001:00011827
   713 0001:0001182d   714 0001:00011832   716 0001:00011870   717 0001:0001187f
   719 0001:00011885   721 0001:0001188a   723 0001:000118a9   724 0001:000118c3
   725 0001:000118d2   726 0001:000118de   729 0001:000118ef   730 0001:0001190d
   731 0001:0001191c   732 0001:00011936   733 0001:00011942   735 0001:00011944
   737 0001:00011949   740 0001:00011958   741 0001:00011967   743 0001:00011978
   744 0001:00011981   746 0001:00011990   747 0001:0001199b   901 0001:00011bb0
   902 0001:00011bb7   903 0001:00011bc5   904 0001:00011bd7   905 0001:00011be7
   906 0001:00011c07   907 0001:00011c11   911 0001:00011c20   912 0001:00011c3f
   913 0001:00011c52   915 0001:00011c80   917 0001:00011ca3   918 0001:00011cb2
   920 0001:00011cbd   921 0001:00011cca   923 0001:00011ce4   925 0001:00011cee
   926 0001:00011cff   927 0001:00011d0e   929 0001:00011d1b   931 0001:00011d1d
   932 0001:00011d2e   933 0001:00011d3d   936 0001:00011d4a   937 0001:00011d72
   939 0001:00011dac   940 0001:00011dd3   942 0001:00011de6   943 0001:00011e00
   944 0001:00011e0f   945 0001:00011e34   947 0001:00011e50   949 0001:00011e55
   951 0001:00011e73   952 0001:00011e84   954 0001:00011e90   955 0001:00011eaa
   956 0001:00011ecf   959 0001:00011ef1   961 0001:00011ef6   962 0001:00011f1d
   964 0001:00011f30   965 0001:00011f4a   966 0001:00011f59   967 0001:00011f7e
   969 0001:00011f9a   971 0001:00011f9f   973 0001:00011fbd   974 0001:00011fce
   976 0001:00011fda   977 0001:00011ff4   978 0001:00012019   980 0001:0001203b
   982 0001:00012040   983 0001:00012056   984 0001:00012065  1034 0001:00012130
  1035 0001:00012133  1036 0001:00012151  1037 0001:00012164  1038 0001:00012167
  1041 0001:00012170  1042 0001:00012173  1043 0001:00012191  1044 0001:000121a4
  1045 0001:000121a7  1063 0001:000121b0  1064 0001:000121b7  1065 0001:000121c6
    95 0001:000121d0    96 0001:00012200   304 0001:00012670   306 0001:0001267f
   312 0001:00012690   313 0001:000126a3   200 0001:000126b0   201 0001:000126bf
   326 0001:000126d0   327 0001:000126d7   328 0001:000126df   329 0001:000126e2
   214 0001:000126f0   215 0001:000126f7   216 0001:000126ff   217 0001:00012702
   267 0001:00012710   268 0001:00012719   270 0001:0001272e   271 0001:00012753
   272 0001:00012771   276 0001:00012773   277 0001:000127ae   278 0001:000127b8
   280 0001:000127c0   332 0001:000127d0   333 0001:000127d9   334 0001:000127e1
   335 0001:000127e9   336 0001:000127f4   339 0001:00012800   340 0001:00012807
   341 0001:0001280f   342 0001:00012812   227 0001:00012820   228 0001:00012827
   229 0001:0001282f   230 0001:00012832   250 0001:00012840   251 0001:00012849
   252 0001:0001285e   253 0001:00012873   254 0001:00012898   255 0001:000128b6
   259 0001:000128b8   260 0001:000128f3   261 0001:000128fd   262 0001:00012910
   264 0001:00012918   131 0001:00012950   132 0001:00012953   133 0001:00012959
   452 0001:00012960   453 0001:00012967   454 0001:00012972  1014 0001:00012980
  1015 0001:0001298a  1016 0001:0001299b  1018 0001:000129b9  1019 0001:000129d7
  1020 0001:000129f3  1022 0001:00012a11  1023 0001:00012a20  1024 0001:00012a2d
  1025 0001:00012a4d  1026 0001:00012a69  1027 0001:00012a6b  1029 0001:00012a87
  1030 0001:00012a98  1031 0001:00012aa9  1068 0001:00012ab0  1069 0001:00012aba
  1070 0001:00012acb  1072 0001:00012ae9  1073 0001:00012b07  1074 0001:00012b23
  1076 0001:00012b41  1077 0001:00012b50  1078 0001:00012b5d  1079 0001:00012b7d
  1080 0001:00012b99  1081 0001:00012b9b  1083 0001:00012bb7  1084 0001:00012bc8
  1085 0001:00012bd9  1105 0001:00012be0  1106 0001:00012c05  1107 0001:00012c15
  1109 0001:00012c1c  1110 0001:00012c23  1111 0001:00012c4c  1112 0001:00012c55
  1113 0001:00012c7e  1114 0001:00012c87  1116 0001:00012cb2  1117 0001:00012cb8
  1118 0001:00012cd0  1119 0001:00012cd6  1120 0001:00012cee  1121 0001:00012cff
  1122 0001:00012d08  1123 0001:00012d0f  1124 0001:00012d1e  1125 0001:00012d2d
  1126 0001:00012d30  1130 0001:00012d50  1131 0001:00012d75  1132 0001:00012d85
  1133 0001:00012d8c  1135 0001:00012de1  1136 0001:00012df2  1137 0001:00012dfb
  1138 0001:00012e02  1139 0001:00012e05    76 0001:00012e40    77 0001:00012e70
   193 0001:00012e80   194 0001:00012e90    54 0001:00012ed0    55 0001:00012ef4
    40 0001:00012f70    41 0001:00012fb2

Line numbers for .\Debug\NxAllVehicle.obj(d:\program files\microsoft visual studio .net 2003\vc7\include\map) segment .text

   102 0001:0000f860   103 0001:0000f87e   142 0001:0000f890   143 0001:0000f899
   144 0001:0000f8a9   146 0001:0000f8ea   147 0001:0000f917   148 0001:0000f922
    63 0001:00012210    64 0001:00012213    65 0001:00012216    38 0001:00012fc0
    39 0001:00012fc7

Line numbers for .\Debug\NxAllVehicle.obj(e:\tony\codes\fantasy\cutecar\src\nxvehicle.h) segment .text

   149 0001:0000f4a0   150 0001:0000f4a7   151 0001:0000f4b0   181 0001:0000f4c0
   153 0001:0000f5e0   154 0001:0000f5e7   155 0001:0000f5ed   157 0001:0000f600
   158 0001:0000f607   159 0001:0000f610   161 0001:0000f620   162 0001:0000f627
   163 0001:0000f62d   167 0001:0000f800   168 0001:0000f807   170 0001:0000f81d
   174 0001:0000f828   176 0001:0000f82e   137 0001:0000f840   138 0001:0000f847
   139 0001:0000f850

Line numbers for .\Debug\NxAllVehicle.obj(c:\program files\ageia technologies\ageia physx sdk\v2.3.2\sdks\physics\include\nxconvexshapedesc.h) segment .text

    79 0001:0000f3a0    80 0001:0000f3d6    81 0001:0000f3de    84 0001:0000f450
    85 0001:0000f457    86 0001:0000f45f    87 0001:0000f469    91 0001:0000f473
    94 0001:0000f480    95 0001:0000f487    99 0001:0000f494   100 0001:0000f49c

Line numbers for .\Debug\NxAllVehicle.obj(c:\program files\ageia technologies\ageia physx sdk\v2.3.2\sdks\physics\include\nxconvexmeshdesc.h) segment .text

   188 0001:0000f330   189 0001:0000f337   190 0001:0000f33f   193 0001:0000f350
   194 0001:0000f357   195 0001:0000f360   196 0001:0000f36a   197 0001:0000f374
   198 0001:0000f37e   199 0001:0000f388   200 0001:0000f392   201 0001:0000f39c

Line numbers for .\Debug\NxAllVehicle.obj(c:\program files\ageia technologies\ageia physx sdk\v2.3.2\sdks\physics\include\nxp.h) segment .text

  1775 0001:0000ee70  1776 0001:0000ee80

Line numbers for .\Debug\NxAllVehicle.obj(c:\program files\ageia technologies\ageia physx sdk\v2.3.2\sdks\foundation\include\nxmat34.h) segment .text

   125 0001:0000ed50   126 0001:0000ed86   128 0001:0000ed8e   129 0001:0000ed99
   131 0001:0000eda1   142 0001:0000efc0   143 0001:0000efc7   144 0001:0000efcf
   145 0001:0000efda   157 0001:0000f080   158 0001:0000f087   159 0001:0000f09a
   160 0001:0000f0b0   161 0001:0000f0b2

Line numbers for .\Debug\NxAllVehicle.obj(c:\program files\ageia technologies\ageia physx sdk\v2.3.2\sdks\foundation\include\nxmat33.h) segment .text

   359 0001:0000ed40   361 0001:0000ed47   325 0001:0000edf0   326 0001:0000edf7
   816 0001:0000ee00   817 0001:0000ee07   818 0001:0000ee10   819 0001:0000ee1a
   821 0001:0000ee24   822 0001:0000ee2e   823 0001:0000ee38   825 0001:0000ee42
   826 0001:0000ee4c   827 0001:0000ee56   828 0001:0000ee60   783 0001:0000f150
   794 0001:0000f159   795 0001:0000f23d

Line numbers for .\Debug\NxAllVehicle.obj(c:\program files\ageia technologies\ageia physx sdk\v2.3.2\sdks\physics\include\nxshapedesc.h) segment .text

   245 0001:0000eca0   246 0001:0000ecf1   247 0001:0000ecf9   250 0001:0000eec0
   251 0001:0000eeec   254 0001:0000ef20   255 0001:0000ef27   256 0001:0000ef32
   257 0001:0000ef3c   258 0001:0000ef45   259 0001:0000ef4e   260 0001:0000ef58
   261 0001:0000ef62   262 0001:0000ef6c   263 0001:0000ef76   264 0001:0000ef80
   266 0001:0000ef8a   267 0001:0000ef94   268 0001:0000ef9e   269 0001:0000efa8
   271 0001:0000efb2   274 0001:0000efe0   275 0001:0000efe7   276 0001:0000eff9
   277 0001:0000effd   278 0001:0000f009   279 0001:0000f00d   280 0001:0000f01b
   281 0001:0000f01f   282 0001:0000f028   283 0001:0000f02c   284 0001:0000f03b
   285 0001:0000f03f   286 0001:0000f067   287 0001:0000f06b   288 0001:0000f06d

Line numbers for .\Debug\NxAllVehicle.obj(c:\program files\ageia technologies\ageia physx sdk\v2.3.2\sdks\physics\include\nxboxshapedesc.h) segment .text

    62 0001:0000ec30    63 0001:0000ec71    64 0001:0000ec79    67 0001:0000f2a0
    68 0001:0000f2a7    69 0001:0000f2af    70 0001:0000f2ba    73 0001:0000f2c0
    74 0001:0000f2c7    75 0001:0000f2dd    76 0001:0000f2f4    77 0001:0000f30b
    78 0001:0000f322    79 0001:0000f32a

Line numbers for .\Debug\NxAllVehicle.obj(e:\tony\codes\fantasy\cutecar\src\nxvehicledesc.h) segment .text

    47 0001:0000eb40    48 0001:0000eba6    49 0001:0000ebae    52 0001:0000ebd0
    53 0001:0000ebd7    54 0001:0000ebe1    55 0001:0000ebeb    56 0001:0000ebf5
    57 0001:0000ebff    58 0001:0000ec09    61 0001:0000ec13    62 0001:0000ec1e

Line numbers for .\Debug\NxAllVehicle.obj(d:\program files\microsoft visual studio .net 2003\vc7\include\math.h) segment .text

   470 0001:0000ea90   466 0001:0000eae0   444 0001:0000eb20

Line numbers for .\Debug\NxAllVehicle.obj(c:\program files\ageia technologies\ageia physx sdk\v2.3.2\sdks\foundation\include\nxquat.h) segment .text

   279 0001:0000e960   281 0001:0000e967   435 0001:0000e970   436 0001:0000e979
   437 0001:0000e983   438 0001:0000e98f   442 0001:0000e99b   444 0001:0000e9d6
   445 0001:0000e9e3   446 0001:0000e9f2   449 0001:0000ea01   451 0001:0000ea19
   452 0001:0000ea2b   453 0001:0000ea3a   454 0001:0000ea47   455 0001:0000ea56
   456 0001:0000ea65   674 0001:0000f7c0   675 0001:0000f7c7   676 0001:0000f7d1
   677 0001:0000f7dd   678 0001:0000f7e9   679 0001:0000f7f5   680 0001:0000f7f8

Line numbers for .\Debug\NxAllVehicle.obj(e:\tony\codes\fantasy\cutecar\src\nxvehiclegeardesc.h) segment .text

    12 0001:0000e8d0    29 0001:0000e8f0    31 0001:0000e8f7    33 0001:0000e900
    34 0001:0000e907    35 0001:0000e911    36 0001:0000e91b    37 0001:0000e925
    38 0001:0000e92f    39 0001:0000e939    40 0001:0000e943    42 0001:0000e94c
    44 0001:0000e959

Line numbers for .\Debug\NxAllVehicle.obj(c:\program files\ageia technologies\ageia physx sdk\v2.3.2\sdks\foundation\include\nxmath.h) segment .text

   508 0001:0000e870   509 0001:0000e874   510 0001:0000e892   533 0001:0000e8a0
   534 0001:0000e8a4   535 0001:0000e8c2   608 0001:0000ea70   609 0001:0000ea73
   610 0001:0000ea7f   680 0001:0000eab0   681 0001:0000eab3   682 0001:0000eabc
   700 0001:0000eac0   701 0001:0000eac3   702 0001:0000eacf   710 0001:0000eb00
   711 0001:0000eb03   712 0001:0000eb0f   921 0001:0000f130   923 0001:0000f133
   928 0001:0000f14e

Line numbers for .\Debug\NxAllVehicle.obj(e:\tony\codes\fantasy\cutecar\src\nxlinearinterpolationvalues.h) segment .text

    21 0001:0000e7f0    22 0001:0000e7f7    23 0001:0000e806    24 0001:0000e818
    26 0001:0000e81a    27 0001:0000e833    29 0001:0000e84c    30 0001:0000e85d
    17 0001:0000f550

Line numbers for .\Debug\NxAllVehicle.obj(e:\tony\codes\fantasy\cutecar\src\nxvehiclemotordesc.h) segment .text

    28 0001:0000e760    31 0001:0000e767    32 0001:0000e779    33 0001:0000e78b
    34 0001:0000e79d    35 0001:0000e7af    36 0001:0000e7c1    37 0001:0000e7cb
    38 0001:0000e7d5    39 0001:0000e7df    40 0001:0000e7e9

Line numbers for .\Debug\NxAllVehicle.obj(e:\tony\codes\fantasy\cutecar\src\nxwheeldesc.h) segment .text

    57 0001:0000e6a0    58 0001:0000e6af    59 0001:0000e6b7    62 0001:0000e6d0
    63 0001:0000e6d7    66 0001:0000e6e5    67 0001:0000e6ef    68 0001:0000e6f9
    69 0001:0000e703    71 0001:0000e70d    72 0001:0000e717    73 0001:0000e721
    75 0001:0000e72b    77 0001:0000e735    78 0001:0000e73f    79 0001:0000e749
    80 0001:0000e753

Line numbers for .\Debug\NxAllVehicle.obj(c:\program files\ageia technologies\ageia physx sdk\v2.3.2\sdks\foundation\include\nxvec3.h) segment .text

   415 0001:0000e630   416 0001:0000e637   417 0001:0000e641   418 0001:0000e64d
   419 0001:0000e659   420 0001:0000e65c   555 0001:0000e670   556 0001:0000e677
   557 0001:0000e67f   558 0001:0000e688   559 0001:0000e691   409 0001:0000e6c0
   411 0001:0000e6c7   571 0001:0000edc0   572 0001:0000edc7   573 0001:0000ede4
   699 0001:0000f0c0   700 0001:0000f0c9   701 0001:0000f11d

Line numbers for .\Debug\NxAllVehicle.obj(e:\tony\codes\fantasy\cutecar\src\nxallvehicle.cpp) segment .text

    10 0001:0000d130    11 0001:0000d176    12 0001:0000d180    13 0001:0000d18a
    14 0001:0000d195    15 0001:0000d1a0    16 0001:0000d1aa    17 0001:0000d1b4
    20 0001:0000d1d0    21 0001:0000d1fc    25 0001:0000d230    26 0001:0000d24b
    28 0001:0000d254    30 0001:0000d2c4    31 0001:0000d2c9    35 0001:0000d2e0
    36 0001:0000d30d    37 0001:0000d31c    38 0001:0000d33a    40 0001:0000d358
    41 0001:0000d367    42 0001:0000d376    43 0001:0000d385    44 0001:0000d391
    46 0001:0000d39d    47 0001:0000d3c4    48 0001:0000d3e7    49 0001:0000d415
    50 0001:0000d43f    51 0001:0000d481    52 0001:0000d4c5    53 0001:0000d507
    55 0001:0000d54b    56 0001:0000d589    57 0001:0000d5c9    58 0001:0000d5f3
    59 0001:0000d622    60 0001:0000d662    62 0001:0000d6a4    63 0001:0000d6dc
    64 0001:0000d716    65 0001:0000d750    67 0001:0000d78c    69 0001:0000d7b0
    70 0001:0000d7ce    72 0001:0000d7d0    73 0001:0000d812    74 0001:0000d856
    75 0001:0000d898    78 0001:0000d8dc    79 0001:0000d907    80 0001:0000d917
    81 0001:0000d929    82 0001:0000d933    84 0001:0000d942    85 0001:0000d951
    86 0001:0000d96c    88 0001:0000d977    89 0001:0000d9c6    92 0001:0000d9e4
    93 0001:0000da0f    94 0001:0000da1f    95 0001:0000da31    96 0001:0000da3b
    98 0001:0000da45    99 0001:0000da51   100 0001:0000da69   102 0001:0000da74
   103 0001:0000dac0   106 0001:0000dade   107 0001:0000daed   108 0001:0000daf6
   109 0001:0000daff   110 0001:0000db08   112 0001:0000db14   113 0001:0000db23
   114 0001:0000db2e   116 0001:0000db38   117 0001:0000db41   118 0001:0000db4c
   119 0001:0000db58   120 0001:0000db63   121 0001:0000db6f   123 0001:0000db79
   124 0001:0000db83   127 0001:0000db97   128 0001:0000dbac   130 0001:0000dbd4
   132 0001:0000dbe8   133 0001:0000dbfe   134 0001:0000dc12   135 0001:0000dc26
   136 0001:0000dc3a   137 0001:0000dc4e   139 0001:0000dc62   140 0001:0000dc7b
   141 0001:0000dc8f   143 0001:0000dca3   144 0001:0000dccb   146 0001:0000dcd0
   147 0001:0000dcda   148 0001:0000dcf6   149 0001:0000dd12   150 0001:0000dd2e
   151 0001:0000dd47   153 0001:0000dd4e   154 0001:0000dd6d   155 0001:0000dd8c
   156 0001:0000dda5   158 0001:0000ddbe   159 0001:0000ddd2   161 0001:0000dde6
   162 0001:0000de25   164 0001:0000de30   165 0001:0000de55   167 0001:0000de7e
   168 0001:0000de91   171 0001:0000dea0   172 0001:0000deb5   175 0001:0000ded4
   176 0001:0000df7e   179 0001:0000df90   180 0001:0000dfae   181 0001:0000dfbc
   183 0001:0000dfd6   185 0001:0000e02a   186 0001:0000e033   188 0001:0000e03a
   190 0001:0000e03c   191 0001:0000e03e   195 0001:0000e050   196 0001:0000e057
   198 0001:0000e060   201 0001:0000e064   202 0001:0000e078   205 0001:0000e080
   206 0001:0000e087   207 0001:0000e0a4   210 0001:0000e0b0   211 0001:0000e0b7
   212 0001:0000e0d0   215 0001:0000e0e0   216 0001:0000e0e7   217 0001:0000e104
   220 0001:0000e110   221 0001:0000e117   222 0001:0000e130   226 0001:0000e140
   227 0001:0000e147   229 0001:0000e150   231 0001:0000e152   232 0001:0000e17b
   236 0001:0000e180   237 0001:0000e187   239 0001:0000e196   241 0001:0000e19a
   243 0001:0000e1b0   245 0001:0000e1ba   247 0001:0000e1bc   250 0001:0000e1cb
   251 0001:0000e1df   255 0001:0000e1f0   256 0001:0000e1f7   258 0001:0000e200
   260 0001:0000e202   261 0001:0000e231   264 0001:0000e240   265 0001:0000e247
   267 0001:0000e250   269 0001:0000e252   270 0001:0000e26b   273 0001:0000e270
   274 0001:0000e277   276 0001:0000e280   278 0001:0000e282   279 0001:0000e29f
   282 0001:0000e2b0   283 0001:0000e2b9   284 0001:0000e2c7   286 0001:0000e2e1
   287 0001:0000e2fb   288 0001:0000e2fd   291 0001:0000e310   292 0001:0000e334
   294 0001:0000e351   295 0001:0000e368   296 0001:0000e3d9   298 0001:0000e49b
   300 0001:0000e4bb   301 0001:0000e521   302 0001:0000e523   303 0001:0000e52c
   306 0001:0000e540   307 0001:0000e547   309 0001:0000e550   311 0001:0000e569
   314 0001:0000e570   315 0001:0000e577   316 0001:0000e590   319 0001:0000e5a0
   320 0001:0000e5a7   321 0001:0000e5c0   324 0001:0000e5d0   325 0001:0000e5d7
   326 0001:0000e5f4

Line numbers for .\Debug\CuteCar.obj(d:\program files\microsoft visual studio .net 2003\vc7\include\xlocale) segment .text

    66 0001:0000d110    67 0001:0000d11f

Line numbers for .\Debug\CuteCar.obj(d:\program files\microsoft visual studio .net 2003\vc7\include\xutility) segment .text

  1039 0001:0000cdd0  1040 0001:0000cdd4  1041 0001:0000cdff   211 0001:0000cfa0
   213 0001:0000cfa4   214 0001:0000cfa7  1020 0001:0000cfb0  1021 0001:0000cfb3
  1022 0001:0000cfcf  1023 0001:0000cfdb  1024 0001:0000cfde

Line numbers for .\Debug\CuteCar.obj(f:\ogresdk\include\cegui\ceguievent.h) segment .text

   146 0001:0000cd50   148 0001:0000cd6e   149 0001:0000cdbd   114 0001:0000ce70
   111 0001:0000ceb0   112 0001:0000ceb7   113 0001:0000cecd    60 0001:0000cf60

Line numbers for .\Debug\CuteCar.obj(d:\program files\microsoft visual studio .net 2003\vc7\include\string) segment .text

    31 0001:0000c9c0    32 0001:0000c9e2    33 0001:0000ca2b    51 0001:0000cb50
    52 0001:0000cb72    53 0001:0000cbbb    21 0001:0000ccd0    22 0001:0000ccf2
    23 0001:0000cd3b

Line numbers for .\Debug\CuteCar.obj(d:\program files\microsoft visual studio .net 2003\vc7\include\xmemory) segment .text

   111 0001:0000beb0   113 0001:0000beb7   115 0001:0000bec0   117 0001:0000bec7
   131 0001:0000bed0   132 0001:0000bed7   133 0001:0000bee3   136 0001:0000c720
   137 0001:0000c727   138 0001:0000c735   156 0001:0000c840   157 0001:0000c849
   158 0001:0000c850   159 0001:0000c868    33 0001:0000ce10    34 0001:0000ce13
    35 0001:0000ce1f   216 0001:0000ce30   217 0001:0000ce34   218 0001:0000ce5f
   224 0001:0000cfe0   225 0001:0000cfe3   226 0001:0000cff6   227 0001:0000d004
   151 0001:0000d010   152 0001:0000d017   153 0001:0000d023    48 0001:0000d030
    50 0001:0000d033

Line numbers for .\Debug\CuteCar.obj(d:\program files\microsoft visual studio .net 2003\vc7\include\iosfwd) segment .text

   357 0001:0000bd20   358 0001:0000bd25   359 0001:0000bd40   351 0001:0000bda0
   352 0001:0000bda6   353 0001:0000bdd0   369 0001:0000c280   370 0001:0000c283
   371 0001:0000c297   330 0001:0000c2e0   331 0001:0000c2e3   332 0001:0000c2ed

Line numbers for .\Debug\CuteCar.obj(d:\program files\microsoft visual studio .net 2003\vc7\include\xtree) segment .text

   407 0001:0000baf0   408 0001:0000baf7   409 0001:0000bb0d   417 0001:0000bb20
   418 0001:0000bb27   419 0001:0000bb39   304 0001:0000bb40   306 0001:0000bb4f
   321 0001:0000bb60   322 0001:0000bb67   323 0001:0000bb6f   326 0001:0000bb80
   327 0001:0000bb87   328 0001:0000bb8f   329 0001:0000bb92   245 0001:0000bba0
   246 0001:0000bba7   247 0001:0000bbbb   321 0001:0000bf80   322 0001:0000bf87
   323 0001:0000bf8f   332 0001:0000bfa0   333 0001:0000bfa9   334 0001:0000bfb1
   335 0001:0000bfb9   336 0001:0000bfc4   245 0001:0000bfd0   246 0001:0000bfd7
   247 0001:0000bfeb  1004 0001:0000c000  1005 0001:0000c007  1006 0001:0000c016
   312 0001:0000c020   313 0001:0000c033   316 0001:0000c040   317 0001:0000c047
   318 0001:0000c04f   193 0001:0000c060   194 0001:0000c070   214 0001:0000c080
   215 0001:0000c087   216 0001:0000c08f   217 0001:0000c092   240 0001:0000c0a0
   241 0001:0000c0a7   242 0001:0000c0b6   316 0001:0000c3c0   317 0001:0000c3c7
   318 0001:0000c3cf   326 0001:0000c3e0   327 0001:0000c3e7   328 0001:0000c3ef
   329 0001:0000c3f2   240 0001:0000c400   241 0001:0000c407   242 0001:0000c416
   146 0001:0000c420   147 0001:0000c423   148 0001:0000c426   200 0001:0000c430
   201 0001:0000c43f   204 0001:0000c450   205 0001:0000c457   206 0001:0000c465
   267 0001:0000c470   268 0001:0000c479   270 0001:0000c48e   271 0001:0000c4b3
   272 0001:0000c4d1   276 0001:0000c4d3   277 0001:0000c50e   278 0001:0000c518
   280 0001:0000c520   204 0001:0000c780   205 0001:0000c787   206 0001:0000c795
   214 0001:0000c7a0   215 0001:0000c7a7   216 0001:0000c7af   217 0001:0000c7b2
   136 0001:0000c7c0   137 0001:0000c7c3   138 0001:0000c7c9   151 0001:0000c7d0
   152 0001:0000c7d3   153 0001:0000c7d9   156 0001:0000c7e0   157 0001:0000c7e3
   158 0001:0000c7e9   161 0001:0000c7f0   162 0001:0000c7f3   163 0001:0000c7f9
  1041 0001:0000c800  1042 0001:0000c803  1043 0001:0000c821  1044 0001:0000c834
  1045 0001:0000c837   161 0001:0000c870   162 0001:0000c873   163 0001:0000c879
   267 0001:0000c880   268 0001:0000c889   270 0001:0000c89e   271 0001:0000c8c3
   272 0001:0000c8e1   276 0001:0000c8e3   277 0001:0000c91e   278 0001:0000c928
   280 0001:0000c930   136 0001:0000c940   137 0001:0000c943   138 0001:0000c949
   151 0001:0000c950   152 0001:0000c953   153 0001:0000c959   156 0001:0000c960
   157 0001:0000c963   158 0001:0000c969  1041 0001:0000c970  1042 0001:0000c973
  1043 0001:0000c991  1044 0001:0000c9a4  1045 0001:0000c9a7   146 0001:0000c9b0
   147 0001:0000c9b3   148 0001:0000c9b6

Line numbers for .\Debug\CuteCar.obj(f:\ogresdk\include\ogreiteratorwrappers.h) segment .text

   134 0001:0000ba60   135 0001:0000ba67   136 0001:0000ba76   140 0001:0000ba80
   141 0001:0000ba89   142 0001:0000baa1   150 0001:0000bab0   151 0001:0000bac0
   152 0001:0000badd

Line numbers for .\Debug\CuteCar.obj(f:\ogresdk\include\cegui\ceguirefptr.h) segment .text

    75 0001:0000ba30    76 0001:0000ba3f    77 0001:0000ba4a    79 0001:0000ba53

Line numbers for .\Debug\CuteCar.obj(d:\program files\microsoft visual studio .net 2003\vc7\include\vector) segment .text

   462 0001:0000b910   463 0001:0000b917   464 0001:0000b929   472 0001:0000b930
   473 0001:0000b937   474 0001:0000b949   515 0001:0000b950   516 0001:0000b959
   517 0001:0000b980   554 0001:0000b990   555 0001:0000b999   556 0001:0000b9bb
   723 0001:0000b9d0   724 0001:0000b9d7   725 0001:0000b9f1   726 0001:0000ba0a
   727 0001:0000ba19   728 0001:0000ba24   235 0001:0000bbd0   236 0001:0000bbd9
   237 0001:0000bbe1   238 0001:0000bbe9   239 0001:0000bbf4   159 0001:0000bc00
   160 0001:0000bc07   161 0001:0000bc1b   786 0001:0000bf50   787 0001:0000bf57
   788 0001:0000bf6b   215 0001:0000c0c0   216 0001:0000c0d3   219 0001:0000c0e0
   220 0001:0000c0e7   221 0001:0000c0ef   229 0001:0000c100   230 0001:0000c107
   231 0001:0000c114   232 0001:0000c117   261 0001:0000c120   262 0001:0000c129
   263 0001:0000c131   264 0001:0000c147   152 0001:0000c150   155 0001:0000c157
   156 0001:0000c166   255 0001:0000c530   256 0001:0000c537   257 0001:0000c547
   258 0001:0000c54a    73 0001:0000c550    75 0001:0000c557    76 0001:0000c55f
    79 0001:0000c570    82 0001:0000c577    83 0001:0000c57c

Line numbers for .\Debug\CuteCar.obj(c:\program files\ageia technologies\ageia physx sdk\v2.3.2\sdks\foundation\include\nxarray.h) segment .text

   183 0001:0000b880   184 0001:0000b887   185 0001:0000b895   183 0001:0000b8a0
   184 0001:0000b8a7   185 0001:0000b8b5   262 0001:0000b8c0   263 0001:0000b8c7
   264 0001:0000b8e1   265 0001:0000b8ec   294 0001:0000b8f0   295 0001:0000b8f7
   296 0001:0000b902   304 0001:0000bef0   305 0001:0000bef7   306 0001:0000befc
   316 0001:0000bf00   317 0001:0000bf07   318 0001:0000bf0d   435 0001:0000bf20
   436 0001:0000bf27   439 0001:0000bf3a   440 0001:0000bf3c

Line numbers for .\Debug\CuteCar.obj(d:\program files\microsoft visual studio .net 2003\vc7\include\xstring) segment .text

   311 0001:0000b740   312 0001:0000b759   313 0001:0000b765   323 0001:0000b770
   324 0001:0000b78d   325 0001:0000b799   326 0001:0000b7ae   360 0001:0000b7c0
   361 0001:0000b7d9   362 0001:0000b7e5   363 0001:0000b7f1   456 0001:0000b800
   457 0001:0000b807   458 0001:0000b813   466 0001:0000b820   467 0001:0000b827
   468 0001:0000b833   471 0001:0000b840   472 0001:0000b847   473 0001:0000b853
  1093 0001:0000b860  1094 0001:0000b867  1095 0001:0000b86f   584 0001:0000bc30
   585 0001:0000bc37   586 0001:0000bc4b   590 0001:0000bc60   591 0001:0000bc69
   592 0001:0000bc76   593 0001:0000bc7e   594 0001:0000bc8c   595 0001:0000bc94
   597 0001:0000bc9a   598 0001:0000bca2   599 0001:0000bcc5   601 0001:0000bcdc
   602 0001:0000bcfd   604 0001:0000bd09   605 0001:0000bd0c  1108 0001:0000bd50
  1109 0001:0000bd57  1110 0001:0000bd5d   621 0001:0000bd70   622 0001:0000bd77
   623 0001:0000bd90  1509 0001:0000bde0  1510 0001:0000bde9  1512 0001:0000bdf1
  1514 0001:0000bdfc  1515 0001:0000be05  1516 0001:0000be0b  1517 0001:0000be22
  1519 0001:0000be38  1520 0001:0000be42  1521 0001:0000be4e  1536 0001:0000be60
  1537 0001:0000be69  1538 0001:0000be89    34 0001:0000be90    35 0001:0000bea3
   608 0001:0000c170   609 0001:0000c177   610 0001:0000c18a   612 0001:0000c1aa
   614 0001:0000c1bf   615 0001:0000c1d8   617 0001:0000c1e4   618 0001:0000c1e7
   792 0001:0000c1f0   793 0001:0000c1f9   794 0001:0000c204   795 0001:0000c20c
   796 0001:0000c21a   797 0001:0000c226   800 0001:0000c22c   801 0001:0000c25c
   802 0001:0000c268   804 0001:0000c274   805 0001:0000c277  1474 0001:0000c2a0
  1475 0001:0000c2a9  1476 0001:0000c2ce  1480 0001:0000c2f0  1481 0001:0000c2f9
  1482 0001:0000c306  1483 0001:0000c30e  1484 0001:0000c319  1485 0001:0000c32c
  1487 0001:0000c33c  1488 0001:0000c366  1489 0001:0000c36e  1490 0001:0000c378
  1491 0001:0000c381  1531 0001:0000c390  1532 0001:0000c399  1533 0001:0000c3b9
  1113 0001:0000c580  1114 0001:0000c589  1115 0001:0000c594  1116 0001:0000c5af
  1444 0001:0000c5c0  1445 0001:0000c5e5  1446 0001:0000c5ee  1447 0001:0000c5fb
  1448 0001:0000c601  1449 0001:0000c603  1450 0001:0000c635  1453 0001:0000c646
  1454 0001:0000c64d  1455 0001:0000c667  1456 0001:0000c66a  1457 0001:0000c670
  1458 0001:0000c674  1460 0001:0000c68e  1461 0001:0000c69a  1462 0001:0000c6a3
  1463 0001:0000c6aa  1465 0001:0000c6b7  1466 0001:0000c6bd  1467 0001:0000c6d6
  1468 0001:0000c6e2  1469 0001:0000c6eb  1470 0001:0000c6f4  1471 0001:0000c700
  1494 0001:0000c740  1495 0001:0000c747  1496 0001:0000c767  1498 0001:0000c76b
  1499 0001:0000c76d   481 0001:0000ca40   482 0001:0000ca47   483 0001:0000ca53
   496 0001:0000ca60   497 0001:0000ca67   498 0001:0000ca7b   502 0001:0000ca90
   503 0001:0000ca99   504 0001:0000caa6   505 0001:0000caae   506 0001:0000cabc
   507 0001:0000cac4   508 0001:0000caca   509 0001:0000cada   511 0001:0000cae2
   514 0001:0000cb09   515 0001:0000cb30   517 0001:0000cb3c   518 0001:0000cb3f
   486 0001:0000cbd0   487 0001:0000cbd7   488 0001:0000cbe3   537 0001:0000cbf0
   538 0001:0000cbf7   539 0001:0000cc10   521 0001:0000cc20   522 0001:0000cc29
   523 0001:0000cc3c   524 0001:0000cc5c   525 0001:0000cc6d   528 0001:0000cc75
   530 0001:0000cc9c   531 0001:0000ccbb   533 0001:0000ccc7   534 0001:0000ccca
   344 0001:00046550   344 0001:00046570   344 0001:00046590

Line numbers for .\Debug\CuteCar.obj(e:\tony\codes\fantasy\cutecar\src\nxallvehicle.h) segment .text

    29 0001:00009bc0    30 0001:00009bc7    31 0001:00009bd2

Line numbers for .\Debug\CuteCar.obj(e:\tony\codes\fantasy\cutecar\src\nxterrainitem.h) segment .text

    23 0001:00009b80    24 0001:00009b87    25 0001:00009b8d

Line numbers for .\Debug\CuteCar.obj(c:\program files\ageia technologies\ageia physx sdk\v2.3.2\sdks\foundation\include\nxmath.h) segment .text

   812 0001:00009b60   813 0001:00009b63   814 0001:00009b76

Line numbers for .\Debug\CuteCar.obj(c:\program files\ageia technologies\ageia physx sdk\v2.3.2\sdks\foundation\include\nxvec3.h) segment .text

   391 0001:000066a0   392 0001:000066c1

Line numbers for .\Debug\CuteCar.obj(e:\tony\codes\fantasy\cutecar\src\audioclass.h) segment .text

    52 0001:00006610   111 0001:00006630   114 0001:00006650

Line numbers for .\Debug\CuteCar.obj(e:\tony\codes\fantasy\cutecar\src\nxterrain.h) segment .text

    55 0001:000065c0    56 0001:000065c7    57 0001:000065cd    61 0001:000065e0
    62 0001:000065e7    63 0001:000065f3    76 0001:00006600    77 0001:00006607
    78 0001:0000660c    41 0001:00009ba0    42 0001:00009ba7    43 0001:00009bb2
    66 0001:00009be0    67 0001:00009be7    68 0001:00009bfb    71 0001:00009c10
    72 0001:00009c17    73 0001:00009c21    81 0001:0000b5f0    82 0001:0000b5f7
    83 0001:0000b60a

Line numbers for .\Debug\CuteCar.obj(e:\tony\codes\fantasy\cutecar\src\nxvehicle.h) segment .text

    37 0001:00006540    38 0001:000065b4

Line numbers for .\Debug\CuteCar.obj(f:\ogresdk\include\ogremath.h) segment .text

    42 0001:00003490    85 0001:000034b0    87 0001:000034d0    99 0001:00003e60
   135 0001:00003e90   136 0001:00003ea4   560 0001:00003eb0   561 0001:00003eb7
   562 0001:00003ec6    44 0001:000040c0    88 0001:000040e0   104 0001:00004100
   137 0001:00004230   138 0001:00004237   139 0001:00004247

Line numbers for .\Debug\CuteCar.obj(d:\ogresdk\include\exampleframelistener.h) segment .text

    92 0001:000031c0    94 0001:00003251    95 0001:00003286    96 0001:0000328f
    97 0001:00003298    98 0001:000032c7    99 0001:000032dd   101 0001:000032e7
   103 0001:000032f6   104 0001:00003362   105 0001:00003372   106 0001:00003380
   107 0001:000033ab   110 0001:000033bd   112 0001:000033bf   113 0001:000033d3
   116 0001:000033ee   117 0001:000033f7   118 0001:00003400   119 0001:00003407
   120 0001:00003411   121 0001:0000341b   122 0001:00003425   123 0001:0000342f
   124 0001:00003445   125 0001:00003458   126 0001:00003462   128 0001:0000346c
   129 0001:00003476   143 0001:000034f0   144 0001:0000351c   147 0001:0000353e
   150 0001:00003552   153 0001:00003574   157 0001:00003586   159 0001:000035c9
   163 0001:000035dd   165 0001:00003622   168 0001:00003634   171 0001:00003657
   174 0001:00003669   177 0001:0000368c   180 0001:000036a0   182 0001:000036c5
   185 0001:000036f3   187 0001:00003716   190 0001:0000373b   192 0001:0000375b
   196 0001:00003762   198 0001:000037a8   199 0001:000037b3   202 0001:000037c0
   205 0001:00003804   206 0001:0000380f   208 0001:0000381c   210 0001:00003854
   211 0001:0000386c   213 0001:00003881   215 0001:0000388e   217 0001:000038cc
   220 0001:000038f8   221 0001:00003905   222 0001:00003912   224 0001:00003914
   225 0001:00003921   226 0001:0000392e   228 0001:00003930   229 0001:0000393d
   234 0001:0000394a   235 0001:00003974   238 0001:0000398c   240 0001:000039a1
   243 0001:000039ae   246 0001:000039ef   247 0001:00003a1f   248 0001:00003a5f
   249 0001:00003a6c   252 0001:00003afe   254 0001:00003b3e   255 0001:00003b5b
   256 0001:00003b87   257 0001:00003b9a   258 0001:00003bad   260 0001:00003bbe
   264 0001:00003bcb   266 0001:00003c05   267 0001:00003c17   268 0001:00003c24
   269 0001:00003c2f   271 0001:00003c78   275 0001:00003c87   279 0001:00003e39
   280 0001:00003e3b   316 0001:00003ed0   317 0001:00003ed7   319 0001:00003ee0
   321 0001:00003ee8   324 0001:00003ef4   326 0001:00003ef6   329 0001:00003f02
   333 0001:00003f10   334 0001:00003f19   335 0001:00003f36   337 0001:00003f3d
   339 0001:00003f48   343 0001:00003f5b   346 0001:00003f75   347 0001:00003f88
   350 0001:00003f9a   352 0001:00003faf   353 0001:00003fb9   356 0001:00003fcf
   359 0001:00003fd1   361 0001:00003fe3   363 0001:00004005   364 0001:0000401b
   365 0001:00004031   368 0001:00004044   373 0001:0000404f   375 0001:00004051
   377 0001:00004067   380 0001:0000406b   385 0001:00004076   387 0001:00004078
   389 0001:0000408b   393 0001:0000408f   397 0001:000040a5   401 0001:000040ad
   402 0001:000040af   283 0001:00004130   288 0001:00004139   290 0001:00004155
   291 0001:0000417e   293 0001:000041a7   295 0001:000041a9   296 0001:000041e3
   300 0001:0000421f   301 0001:00004221   304 0001:00004250   308 0001:00004257
   309 0001:0000426a   310 0001:0000427d   313 0001:00004290   405 0001:000042a0
   406 0001:000042a7   407 0001:000042af   408 0001:000042b1    55 0001:000042c0
    56 0001:000042eb    57 0001:0000432e    58 0001:00004370    59 0001:000043b4
    60 0001:000043f7    63 0001:00004439    64 0001:00004440    65 0001:00004490
    66 0001:000044e0    67 0001:00004530    69 0001:00004589    71 0001:000045af
    72 0001:00004645    74 0001:000046da    76 0001:00004874    78 0001:00004a0e
    79 0001:00004a67    81 0001:00004afb    82 0001:00004b54    87 0001:00004b7d
    88 0001:00004b8a   411 0001:00004ba0   412 0001:00004ba7   413 0001:00004bb9
   414 0001:00004bd8   416 0001:00004be0   417 0001:00004be7   418 0001:00004bf9
   419 0001:00004c18   422 0001:00004c20   423 0001:00004c27   425 0001:00004c38
   427 0001:00004c43   430 0001:00004c56   433 0001:00004c61   434 0001:00004c70
   435 0001:00004c80   131 0001:00004cc0   132 0001:00004cf8   134 0001:00004d03
   136 0001:00004d31   138 0001:00004d33   140 0001:00004d48

Line numbers for .\Debug\CuteCar.obj(d:\ogresdk\include\exampleapplication.h) segment .text

    54 0001:00002d00    55 0001:00002d07    56 0001:00002d19    58 0001:00002d1b
    61 0001:00002d27    62 0001:00002d32    38 0001:00002d60    40 0001:00002d70
    41 0001:00002d7a    42 0001:00002d84    74 0001:00002d90    75 0001:00002db5
    77 0001:00002eae    79 0001:00002eb9    80 0001:00002ec7    82 0001:00002ed3
    83 0001:00002ede    84 0001:00002ee9    87 0001:00002ef4    90 0001:00002f0d
    92 0001:00002f18    95 0001:00002f23    97 0001:00002f2e    99 0001:00002f39
   101 0001:00002f3b   104 0001:00002f50   108 0001:00002f6e   112 0001:00002f81
   113 0001:00002fbc   117 0001:00002fc0   119 0001:00002fc2   122 0001:00002fd0
   124 0001:00002fee   125 0001:00003029   127 0001:00003040   129 0001:0000305e
   132 0001:0000309c   134 0001:000030bb   135 0001:000030da   137 0001:000030f3
   139 0001:00003110   140 0001:0000312e   141 0001:00003184   142 0001:00003191
   143 0001:000031a4   147 0001:00004dc0   150 0001:00004dd0   152 0001:00004dd9
   153 0001:00004e04   157 0001:00004e22   158 0001:00004e60   162 0001:00004e70
   164 0001:00004e9c   165 0001:00004eac   168 0001:00004f0b   170 0001:00004f18
   171 0001:00004f3c   173 0001:00004f4f   174 0001:00004f92   175 0001:00004fa0
   176 0001:00004fa8   178 0001:00004feb   179 0001:00004ffc   181 0001:00005010
   182 0001:0000502c   183 0001:0000502e   184 0001:00005033   188 0001:00005080
   190 0001:00005087   195 0001:00005090   197 0001:00005097   199 0001:000050a5
    45 0001:000050e0    46 0001:000050f2    47 0001:000050fb    48 0001:00005129
    49 0001:00005132    50 0001:0000515d

Line numbers for .\Debug\CuteCar.obj(e:\tony\codes\fantasy\cutecar\src\cutecar.cpp) segment .text

    17 0001:00002b90    19 0001:00002bb2    22 0001:00002bc1    23 0001:00002bc5
    28 0001:00002bcf    32 0001:00002c10    35 0001:00002c1d    36 0001:00002c36

Line numbers for .\Debug\CuteCar.obj(e:\tony\codes\fantasy\cutecar\src\cutecar.h) segment .text

    77 0001:00002ac0    78 0001:00002ac4    81 0001:00002aea    83 0001:00002aee
    85 0001:00002af5    87 0001:00002afc    89 0001:00002b03    91 0001:00002b05
  1413 0001:00002d40  1414 0001:00002d58  1417 0001:000051a0  1418 0001:000051b0
  1421 0001:000051c0  1423 0001:000051c7  1424 0001:000051e1  1427 0001:000051f0
  1428 0001:0000520e  1431 0001:00005249  1433 0001:00005287  1434 0001:000052ac
  1436 0001:000052d0  1437 0001:000052e9  1440 0001:00005300  1441 0001:00005307
  1444 0001:00005310  1446 0001:0000532e  1447 0001:0000538a  1450 0001:0000539d
  1451 0001:000053aa   175 0001:000053c0   176 0001:000054bf   177 0001:000054f1
   178 0001:0000551c   179 0001:0000554a   180 0001:00005578   181 0001:000055a6
   182 0001:000055d4   183 0001:00005602   184 0001:00005630   185 0001:0000565e
   186 0001:0000568c   187 0001:000056ba   188 0001:000056e8   189 0001:00005716
   190 0001:00005744   192 0001:00005772   194 0001:0000577e   195 0001:000057bb
   198 0001:000057f8   200 0001:0000587b   202 0001:000058ff   205 0001:0000590f
   207 0001:00005975   208 0001:000059df   210 0001:00005a1d   211 0001:00005a76
   212 0001:00005a84   213 0001:00005a92   214 0001:00005af5   215 0001:00005b03
   217 0001:00005b11   219 0001:00005b29   220 0001:00005b31   221 0001:00005b38
   222 0001:00005b3f   223 0001:00005b46   224 0001:00005b4d   225 0001:00005b54
   226 0001:00005b5b   227 0001:00005b62   228 0001:00005b69   229 0001:00005b70
   230 0001:00005b77   231 0001:00005b7e   233 0001:00005b85   234 0001:00005be5
   235 0001:00005c1d   236 0001:00005c3a   238 0001:00005c48   239 0001:00005c86
   241 0001:00005cc8   243 0001:00005ce0   244 0001:00005cf4   247 0001:00005cf6
   248 0001:00005d5b   249 0001:00005d6c   250 0001:00005d7f   251 0001:00005d99
   252 0001:00005db3   253 0001:00005dcd   255 0001:00005de8   256 0001:00005e51
   257 0001:00005e67   258 0001:00005e7e   259 0001:00005e98   260 0001:00005eab
   261 0001:00005ebe   262 0001:00005ec5   263 0001:00005ef2   264 0001:00005f12
   265 0001:00005f28   266 0001:00005f3e   268 0001:00005f51   269 0001:00005fba
   270 0001:00005fd0   271 0001:00005fe7   272 0001:00006001   273 0001:00006014
   274 0001:00006027   275 0001:0000602e   276 0001:0000605b   277 0001:0000607b
   278 0001:00006091   279 0001:000060a7   281 0001:000060ba   282 0001:00006123
   284 0001:00006139   285 0001:00006150   286 0001:0000616a   287 0001:0000617d
   288 0001:00006190   289 0001:00006197   290 0001:000061c4   291 0001:000061e4
   292 0001:000061fa   293 0001:00006210   295 0001:00006223   296 0001:0000628c
   298 0001:000062a2   299 0001:000062b9   300 0001:000062d3   301 0001:000062e6
   302 0001:000062f9   303 0001:00006300   304 0001:0000632d   305 0001:0000634d
   306 0001:00006363   307 0001:00006379   309 0001:0000638c   310 0001:000063f5
   312 0001:0000640b   313 0001:00006422   314 0001:0000643c   315 0001:0000644f
   316 0001:00006462   317 0001:00006469   318 0001:00006496   319 0001:000064b6
   320 0001:000064cc   321 0001:000064e2   323 0001:000064f5   324 0001:0000650e
   325 0001:00006519    61 0001:00006670    62 0001:00006673    63 0001:00006692
   567 0001:000066d0   568 0001:000066f4   569 0001:000066ff   570 0001:000067a7
   571 0001:000067c6   572 0001:000067d1   573 0001:000067de   509 0001:000067f0
   510 0001:0000680e   511 0001:00006846   513 0001:00006852   514 0001:0000686a
   516 0001:00006877   518 0001:00006883   519 0001:0000689b   521 0001:000068a8
   523 0001:000068b4   524 0001:000068cc   526 0001:000068d9   528 0001:000068e5
   529 0001:000068fd   531 0001:0000690a   533 0001:00006916   534 0001:00006920
   535 0001:00006938   537 0001:00006945   540 0001:00006960   541 0001:00006984
   542 0001:0000698d   546 0001:000069d4   550 0001:00006a79   554 0001:00006b1d
   558 0001:00006bc1   562 0001:00006c65   563 0001:00006d09   564 0001:00006d47
   671 0001:00006d60   672 0001:00006d67   673 0001:00006d71   674 0001:00006d90
   675 0001:00006d9a   676 0001:00006da2   677 0001:00006da4   576 0001:00006db0
   577 0001:00006dd4   579 0001:00006e0c   580 0001:00006e17   581 0001:00006ebf
   583 0001:00006ede   584 0001:00006f07   585 0001:00006f45   588 0001:00006f8d
   590 0001:00006f9a   593 0001:00006fa7   594 0001:00006fb1   596 0001:00006fbe
   597 0001:00006fcb   598 0001:00006fd8   600 0001:00006fe5   602 0001:00006ff2
   604 0001:0000703e   605 0001:0000708a   606 0001:000070cd   607 0001:00007119
   608 0001:00007142   610 0001:0000714e   612 0001:0000719c   614 0001:000071aa
   617 0001:000071f8   619 0001:00007214   620 0001:000072ea   622 0001:000072ef
   623 0001:0000733b   625 0001:00007392   626 0001:000073de   627 0001:00007422
   628 0001:0000746e   629 0001:000074ba   630 0001:00007506   632 0001:00007516
   634 0001:000075a6   636 0001:000075bb   639 0001:00007712   640 0001:0000775e
   642 0001:00007770   643 0001:00007780   644 0001:00007790   645 0001:000077a0
   646 0001:000077b0   647 0001:000077c8   648 0001:000077e0   650 0001:000077ed
   651 0001:000077fd   652 0001:0000780d   653 0001:0000781d   655 0001:0000782d
   656 0001:0000783d   657 0001:0000784d   659 0001:0000785d   661 0001:0000786d
   662 0001:0000787a   663 0001:00007887   664 0001:00007894   666 0001:000078a1
   667 0001:000078ae   668 0001:000078c9   680 0001:000078e0   681 0001:000078e7
   682 0001:000078f1   683 0001:00007910   684 0001:0000791a   685 0001:00007922
   686 0001:00007924   689 0001:00007930   690 0001:00007954   691 0001:00007961
   692 0001:0000796c   693 0001:00007a14   694 0001:00007a33   695 0001:00007a35
   698 0001:00007a50   699 0001:00007a7f   700 0001:00007a8c   701 0001:00007a97
   702 0001:00007b3f   704 0001:00007b5e   706 0001:00007b65   711 0001:00007b6f
   716 0001:00007b79   717 0001:00007b8e   719 0001:00007b98   720 0001:00007baf
   722 0001:00007bcc   723 0001:00007be7   724 0001:00007bff   725 0001:00007c23
   726 0001:00007c3b   727 0001:00007c40   728 0001:00007c57   730 0001:00007c74
   731 0001:00007c8f   732 0001:00007caa   733 0001:00007cd1   734 0001:00007cec
   735 0001:00007cf1   737 0001:00007cfd   739 0001:00007cff   746 0001:00007d06
   748 0001:00007d2e   749 0001:00007e04   750 0001:00007eda   751 0001:00007fb0
   752 0001:00008083   753 0001:000080d4   754 0001:00008125   755 0001:000081b1
   756 0001:0000823a   757 0001:0000823f   758 0001:00008241   498 0001:00008260
   499 0001:00008278   500 0001:00008286   501 0001:00008294   502 0001:000082a2
   504 0001:000082b0   505 0001:00008309   506 0001:00008321   761 0001:00008330
   762 0001:00008337   763 0001:0000833e   764 0001:00008340   858 0001:00008350
   859 0001:0000837c   860 0001:0000838a   861 0001:00008398   862 0001:000083a6
   864 0001:000083b4   865 0001:0000840d   866 0001:00008450   869 0001:00008470
   871 0001:0000849c   872 0001:000084b1   873 0001:000084f4   877 0001:00008510
   878 0001:0000853c   880 0001:00008551   881 0001:00008558   883 0001:0000856d
   885 0001:00008599   887 0001:000085b2   889 0001:000085b4   892 0001:000085c5
   894 0001:000085e4   896 0001:000085ef   898 0001:0000860f   901 0001:0000861a
   902 0001:00008650   904 0001:00008661   907 0001:0000866f   909 0001:0000867c
   910 0001:0000868d   911 0001:0000869e   913 0001:00008739   915 0001:00008753
   916 0001:000087ac   917 0001:000087ae   919 0001:000087c0   921 0001:000087d3
   922 0001:000087e1   925 0001:000087ef   926 0001:00008806   927 0001:00008862
   930 0001:0000889f   932 0001:000088b2   933 0001:000088f3   935 0001:0000890d
   936 0001:00008926   937 0001:0000893a   941 0001:00008983   942 0001:00008990
   943 0001:000089a4   945 0001:000089ad   947 0001:000089b4   948 0001:000089c6
   952 0001:000089cb   953 0001:000089d8   954 0001:000089ec   956 0001:000089f5
   958 0001:000089fc   959 0001:00008a0e   963 0001:00008a10   964 0001:00008a1d
   965 0001:00008a31   967 0001:00008a3a   969 0001:00008a41   970 0001:00008a53
   973 0001:00008a55   974 0001:00008a62   975 0001:00008a75   978 0001:00008a8d
   979 0001:00008acf   980 0001:00008ae7   981 0001:00008aee   983 0001:00008b2c
   985 0001:00008b46   986 0001:00008b59   988 0001:00008b5b   989 0001:00008b5d
   991 0001:00008b6c   994 0001:00008b7c   995 0001:00008b8d   996 0001:00008b98
   998 0001:00008b9e  1001 0001:00008bb7  1004 0001:00008bd5  1005 0001:00008bf4
  1006 0001:00008c44  1008 0001:00008c68  1010 0001:00008c8d  1012 0001:00008ca4
  1014 0001:00008ca6  1016 0001:00008cbd  1019 0001:00008cfd  1020 0001:00008d0d
  1021 0001:00008d1b  1022 0001:00008d33  1024 0001:00008d38  1025 0001:00008d48
  1027 0001:00008d4d  1028 0001:00008d5d  1030 0001:00008d62  1031 0001:00008d72
  1033 0001:00008d77  1034 0001:00008d87  1036 0001:00008d8c  1037 0001:00008d9c
  1038 0001:00008daf  1039 0001:00008dc7  1042 0001:00008dc9  1043 0001:00008dd9
  1044 0001:00008df0  1046 0001:00008df2  1048 0001:00008dfc  1053 0001:00008e11
  1054 0001:00008e29  1055 0001:00008e6e  1056 0001:00008e85  1057 0001:00008e8d
  1058 0001:00008ea0  1059 0001:00008ee1  1061 0001:00008f04  1064 0001:00008f41
  1065 0001:00008f9c  1067 0001:00008fa1  1068 0001:00008ffc  1070 0001:00009001
  1071 0001:0000905c  1073 0001:0000905e  1076 0001:000090b9  1077 0001:000090be
  1079 0001:000090cf  1080 0001:0000912a  1085 0001:0000912c  1086 0001:00009142
  1087 0001:0000915c  1089 0001:00009176  1091 0001:00009191  1093 0001:000091ad
  1095 0001:000091c8  1097 0001:000091d7  1099 0001:000091e7  1101 0001:000091f8
  1104 0001:00009208  1105 0001:00009266  1109 0001:00009280  1111 0001:000092a7
  1113 0001:000092b7  1115 0001:000092db  1117 0001:000092f0  1118 0001:00009304
  1120 0001:00009311  1122 0001:00009329  1124 0001:0000932b  1126 0001:0000933b
  1129 0001:000093cb  1132 0001:000093e9  1134 0001:000093fe  1135 0001:00009412
  1137 0001:00009423  1139 0001:00009432  1142 0001:00009581  1144 0001:000095a5
  1146 0001:000095b6  1147 0001:000095fa  1149 0001:0000960a  1152 0001:00009627
  1154 0001:0000964b  1156 0001:0000965c  1157 0001:000096a0  1158 0001:000096b8
  1159 0001:000096c6  1161 0001:000096d6  1164 0001:000096f3  1166 0001:00009717
  1168 0001:00009728  1169 0001:0000976c  1170 0001:00009784  1171 0001:00009797
  1173 0001:000097a7  1176 0001:000097c4  1178 0001:000097e8  1180 0001:000097fd
  1181 0001:00009828  1182 0001:0000983f  1184 0001:00009859  1185 0001:00009865
  1186 0001:00009874  1188 0001:0000987d  1190 0001:00009887  1192 0001:000098ab
  1193 0001:000098ba  1195 0001:000098c3  1197 0001:000098cd  1198 0001:000098cf
  1200 0001:000098dd  1202 0001:000098e7  1204 0001:000098e9  1208 0001:000098f5
  1210 0001:00009902  1211 0001:00009934  1212 0001:0000994e  1213 0001:00009995
  1214 0001:000099cd  1218 0001:000099eb  1221 0001:00009a09  1223 0001:00009a26
  1225 0001:00009a37  1227 0001:00009a52  1228 0001:00009a6a  1230 0001:00009a85
  1232 0001:00009a97  1233 0001:00009ab2  1234 0001:00009ac2  1235 0001:00009ad2
  1238 0001:00009ae2  1240 0001:00009af0  1242 0001:00009af4  1243 0001:00009b03
    45 0001:00009c70    46 0001:00009ca0    47 0001:00009caf    48 0001:00009ccc
    49 0001:00009cec    50 0001:00009d0c    51 0001:00009d2c    52 0001:00009d35
    53 0001:00009d3e    54 0001:00009d47    55 0001:00009d50    57 0001:00009d5f
    58 0001:00009d89    35 0001:00009da0    36 0001:00009da3    37 0001:00009dc3
    40 0001:00009dd0    41 0001:00009dd3    42 0001:00009dfa   773 0001:00009f00
   774 0001:00009f24   775 0001:00009f3d   776 0001:00009f4a   778 0001:00009f57
   779 0001:00009f62   781 0001:00009f6d   782 0001:0000a015   783 0001:0000a034
   784 0001:0000a077   785 0001:0000a0f8   786 0001:0000a103   352 0001:0000a120
   353 0001:0000a13a   354 0001:0000a141   355 0001:0000a148   357 0001:0000a152
   362 0001:0000a159   367 0001:0000a160   368 0001:0000a175   370 0001:0000a17f
   371 0001:0000a193   373 0001:0000a1ad   374 0001:0000a1c8   375 0001:0000a1e0
   376 0001:0000a204   377 0001:0000a21c   378 0001:0000a221   379 0001:0000a235
   381 0001:0000a24f   382 0001:0000a267   383 0001:0000a282   384 0001:0000a2a9
   385 0001:0000a2c4   386 0001:0000a2c9   389 0001:0000a2d5   390 0001:0000a2ed
   392 0001:0000a2f6   394 0001:0000a2fb   396 0001:0000a30b   398 0001:0000a31a
   400 0001:0000a321   401 0001:0000a338   403 0001:0000a356   405 0001:0000a372
   406 0001:0000a392   408 0001:0000a3b4   410 0001:0000a3cb   411 0001:0000a3e3
   413 0001:0000a3ec   415 0001:0000a3f6   416 0001:0000a410   418 0001:0000a43b
   419 0001:0000a444   423 0001:0000a446   424 0001:0000a464   425 0001:0000a47f
   427 0001:0000a4a6   428 0001:0000a4ab   430 0001:0000a4be   431 0001:0000a4dc
   432 0001:0000a4f7   433 0001:0000a51e   435 0001:0000a520   436 0001:0000a537
   438 0001:0000a551   439 0001:0000a56c   440 0001:0000a58a   441 0001:0000a5b4
   442 0001:0000a5b6   444 0001:0000a5c5   446 0001:0000a5da   447 0001:0000a5f1
   449 0001:0000a60b   450 0001:0000a629   451 0001:0000a644   452 0001:0000a66b
   454 0001:0000a66d   456 0001:0000a67c   458 0001:0000a683   459 0001:0000a69a
   461 0001:0000a6b8   463 0001:0000a6d1   464 0001:0000a6f1   466 0001:0000a712
   468 0001:0000a729   469 0001:0000a741   471 0001:0000a74a   473 0001:0000a754
   474 0001:0000a76e   476 0001:0000a799   477 0001:0000a7a2   481 0001:0000a7a4
   482 0001:0000a7bf   483 0001:0000a7dd   485 0001:0000a807   486 0001:0000a80c
   488 0001:0000a81f   489 0001:0000a83a   490 0001:0000a858   491 0001:0000a882
   493 0001:0000a884   495 0001:0000a893   789 0001:0000a8b0   790 0001:0000a8d4
   794 0001:0000a8dd   798 0001:0000a981   802 0001:0000aa25   803 0001:0000aac9
   767 0001:0000aae0   768 0001:0000aae7   769 0001:0000aaef   770 0001:0000aaf1
   851 0001:0000ab00   852 0001:0000ab09   853 0001:0000ab1c   854 0001:0000ab3a
   855 0001:0000ab3d  1247 0001:0000ab50  1250 0001:0000ab59  1251 0001:0000abbf
  1252 0001:0000abc8  1255 0001:0000abd0  1256 0001:0000abd7  1257 0001:0000abe6
  1260 0001:0000abf0  1262 0001:0000abf7  1263 0001:0000ac18  1264 0001:0000ac21
  1267 0001:0000ac30  1269 0001:0000ac37  1270 0001:0000ac58  1271 0001:0000ac61
  1273 0001:0000ac70  1274 0001:0000ac80  1275 0001:0000ac90  1278 0001:0000aca0
  1280 0001:0000acb0  1281 0001:0000acce  1283 0001:0000acdc  1285 0001:0000acea
  1286 0001:0000acf1  1287 0001:0000acfc  1288 0001:0000ad05  1290 0001:0000ad0a
  1292 0001:0000ad15  1295 0001:0000ad1c  1296 0001:0000ad27  1297 0001:0000ad30
  1300 0001:0000ad35  1302 0001:0000ad43  1303 0001:0000ad5b  1304 0001:0000ad76
  1305 0001:0000ad7f  1308 0001:0000ad84  1312 0001:0000adb7  1313 0001:0000adc1
  1316 0001:0000adc6  1317 0001:0000add0  1320 0001:0000add5  1321 0001:0000addf
  1324 0001:0000ade4  1325 0001:0000adee  1327 0001:0000adf3  1328 0001:0000adfa
  1330 0001:0000adff  1332 0001:0000ae0d  1333 0001:0000ae17  1335 0001:0000ae29
  1337 0001:0000ae2b  1338 0001:0000ae35  1340 0001:0000ae6e  1342 0001:0000ae70
  1343 0001:0000ae77  1345 0001:0000ae79  1347 0001:0000ae84  1349 0001:0000ae8b
  1351 0001:0000ae8d  1353 0001:0000ae94  1355 0001:0000ae96  1356 0001:0000aea3
  1358 0001:0000aea5  1359 0001:0000aeb2  1361 0001:0000aeb4  1362 0001:0000aec1
  1364 0001:0000aec3  1365 0001:0000aed0  1367 0001:0000aed2  1368 0001:0000aedf
  1370 0001:0000aee1  1373 0001:0000aeee   806 0001:0000b010   807 0001:0000b017
   809 0001:0000b023   810 0001:0000b032   812 0001:0000b03a   814 0001:0000b03c
   816 0001:0000b044   819 0001:0000b050   820 0001:0000b074   824 0001:0000b07d
   828 0001:0000b121   829 0001:0000b1c5   831 0001:0000b1e0   832 0001:0000b1e7
   833 0001:0000b1f1   836 0001:0000b200   837 0001:0000b208   838 0001:0000b20a
   840 0001:0000b210   841 0001:0000b217   843 0001:0000b223   845 0001:0000b232
   846 0001:0000b23c   847 0001:0000b246   848 0001:0000b248  1375 0001:0000b250
  1376 0001:0000b259  1378 0001:0000b267  1379 0001:0000b27f  1380 0001:0000b288
  1383 0001:0000b28a  1387 0001:0000b2b9  1388 0001:0000b2c3  1391 0001:0000b2c5
  1392 0001:0000b2cf  1395 0001:0000b2d1  1396 0001:0000b2db  1399 0001:0000b2dd
  1400 0001:0000b2e7  1402 0001:0000b2e9  1406 0001:0000b2f0   328 0001:0000b400
   329 0001:0000b44c   331 0001:0000b455   332 0001:0000b460   334 0001:0000b48d
   336 0001:0000b496   339 0001:0000b4c3   341 0001:0000b4cf   342 0001:0000b4ff
   344 0001:0000b50c   346 0001:0000b518   347 0001:0000b548   349 0001:0000b555

Line numbers for .\Debug\CuteCar.obj(f:\ogresdk\include\ogrememorymanager.h) segment .text

   354 0001:00002a60   355 0001:00002a63   356 0001:00002a6c   357 0001:00002a7f
   358 0001:00002a97   367 0001:00002aa0   368 0001:00002aa3   369 0001:00002abb
   371 0001:00002cc0   372 0001:00002cc3   373 0001:00002cdb   360 0001:00009c30
   361 0001:00009c33   362 0001:00009c3c   363 0001:00009c4f   364 0001:00009c67

Line numbers for .\Debug\AudioClass.obj(e:\tony\codes\fantasy\cutecar\src\audioclass.h) segment .text

    55 0001:000029e0    57 0001:00002a00   159 0001:00002a20

Line numbers for .\Debug\AudioClass.obj(e:\tony\codes\fantasy\cutecar\src\audioclass.cpp) segment .text

    14 0001:00000000    15 0001:00000007    16 0001:00000011    17 0001:0000001b
    18 0001:00000023    19 0001:0000002d    20 0001:00000034    21 0001:0000003d
    22 0001:00000050    23 0001:00000059    24 0001:00000081    25 0001:000000a6
    26 0001:000000cb    27 0001:000000d0    29 0001:000000d9    30 0001:000000e4
    31 0001:000000fb    32 0001:00000114    35 0001:0000011a    37 0001:0000011e
    38 0001:00000123    44 0001:00000130    47 0001:00000139    50 0001:0000015e
    52 0001:00000177    56 0001:0000017c    58 0001:0000019f    61 0001:000001a4
    62 0001:000001a6    71 0001:000001b0    74 0001:000001c1    75 0001:000001ca
    79 0001:000001d4    80 0001:000001e4    81 0001:000001eb    82 0001:000001f2
    83 0001:00000206    84 0001:0000020d    86 0001:00000214    88 0001:0000023c
    92 0001:00000241    93 0001:00000251    94 0001:00000257    95 0001:0000025f
    96 0001:00000265    97 0001:0000026d    98 0001:00000285   100 0001:00000290
   102 0001:000002af   105 0001:000002b4   106 0001:000002b6   113 0001:000002d0
   118 0001:000002d9   119 0001:000002e2   121 0001:000002e9   123 0001:000002f3
   125 0001:00000319   127 0001:0000033e   130 0001:00000343   131 0001:0000034d
   132 0001:00000366   133 0001:00000368   147 0001:00000370   148 0001:00000379
   150 0001:00000388   151 0001:00000398   152 0001:000003b1   154 0001:000003c1
   156 0001:000003ca   158 0001:000003da   160 0001:000003e3   161 0001:000003ec
   164 0001:00000409   166 0001:00000410   167 0001:00000419   169 0001:00000424
   170 0001:00000434   171 0001:0000044d   172 0001:00000464   173 0001:0000046d
   176 0001:0000048a   177 0001:00000490   178 0001:00000499   181 0001:000004a4
   182 0001:000004aa   183 0001:000004b0   184 0001:000004b6   187 0001:000004d4
   188 0001:000004e0   189 0001:000004e9   191 0001:000004f4   192 0001:00000504
   193 0001:0000051d   194 0001:00000534   195 0001:0000053d   198 0001:0000055a
   199 0001:00000560   200 0001:00000569   203 0001:00000574   204 0001:0000057a
   205 0001:00000580   206 0001:00000586   208 0001:000005a4   209 0001:000005b0
   210 0001:000005b9   212 0001:000005c4   213 0001:000005d4   214 0001:000005ed
   215 0001:00000604   216 0001:0000060d   219 0001:0000062a   220 0001:00000630
   221 0001:00000639   224 0001:00000644   225 0001:0000064a   226 0001:00000650
   227 0001:00000656   230 0001:00000674   231 0001:00000680   232 0001:00000689
   234 0001:00000694   235 0001:000006a4   236 0001:000006bd   237 0001:000006d4
   238 0001:000006dd   240 0001:000006fa   241 0001:00000700   242 0001:00000709
   245 0001:00000714   246 0001:0000071a   247 0001:00000720   248 0001:00000726
   251 0001:00000744   256 0001:00000750   257 0001:00000760   258 0001:00000769
   259 0001:00000792   260 0001:0000079c   261 0001:000007a6   262 0001:000007b0
   263 0001:000007b7   264 0001:000007c0   265 0001:000007d0   266 0001:000007d9
   267 0001:000007e2   268 0001:00000809   269 0001:00000813   270 0001:0000081d
   271 0001:00000827   272 0001:0000082e   273 0001:00000840   274 0001:00000852
   275 0001:0000085a   277 0001:00000862   278 0001:00000887   279 0001:000008c5
   280 0001:000008ea   287 0001:000008f0   288 0001:0000091c   290 0001:00000931
   291 0001:00000938   292 0001:00000941   293 0001:0000094c   294 0001:00000957
   295 0001:00000959   298 0001:00000963   299 0001:00000994   300 0001:000009e1
   302 0001:000009ee   303 0001:00000a00   304 0001:00000a0a   305 0001:00000a19
   307 0001:00000a23   308 0001:00000a76   310 0001:00000a82   312 0001:00000a89
   313 0001:00000aba   316 0001:00000ac2   317 0001:00000ae1   322 0001:00000ae7
   323 0001:00000aee   324 0001:00000aff   326 0001:00000b09   329 0001:00000b18
   333 0001:00000b22   334 0001:00000b41   337 0001:00000b47   338 0001:00000b94
   340 0001:00000bc5   341 0001:00000bd6   344 0001:00000be0   345 0001:00000c2d
   346 0001:00000c5e   349 0001:00000c68   353 0001:00000c78   354 0001:00000cc5
   355 0001:00000cf6   358 0001:00000d00   362 0001:00000d0f   363 0001:00000d5c
   364 0001:00000d8d   367 0001:00000d97   370 0001:00000dad   372 0001:00000db4
   373 0001:00000e07   374 0001:00000e38   378 0001:00000e40   384 0001:00000e57
   385 0001:00000e67   386 0001:00000e6e   387 0001:00000e75   388 0001:00000e96
   389 0001:00000ea2   390 0001:00000ed7   394 0001:00000ee8   398 0001:00000f21
   399 0001:00000f2a   401 0001:00000f31   413 0001:00000f44   414 0001:00000fa0
   415 0001:00000fd1   417 0001:00000fd6   418 0001:00000fe3   420 0001:00000ff8
   421 0001:00001006   423 0001:00001011   424 0001:00001013   430 0001:00001030
   431 0001:00001056   433 0001:00001066   434 0001:0000106c   435 0001:00001074
   436 0001:0000107c   437 0001:0000107e   440 0001:00001088   441 0001:000010ad
   442 0001:000010eb   444 0001:000010f5   445 0001:00001104   446 0001:0000110e
   447 0001:0000111a   449 0001:00001124   450 0001:0000116b   452 0001:00001174
   454 0001:0000117b   455 0001:000011a0   457 0001:000011a8   458 0001:000011c4
   461 0001:000011ca   462 0001:00001208   464 0001:0000122d   470 0001:00001236
   471 0001:00001246   472 0001:0000124d   473 0001:00001254   474 0001:0000126f
   475 0001:00001278   476 0001:000012a7   480 0001:000012ad   485 0001:000012d7
   497 0001:000012e6   498 0001:00001324   499 0001:00001349   501 0001:0000134e
   502 0001:00001358   504 0001:0000136a   505 0001:00001375   507 0001:00001380
   508 0001:00001382   510 0001:000013a0   513 0001:000013a9   514 0001:000013c9
   517 0001:000013cf   518 0001:000013f4   522 0001:000013f9   523 0001:00001403
   526 0001:0000141c   527 0001:00001426   529 0001:00001441   530 0001:00001443
   536 0001:00001450   538 0001:00001459   539 0001:00001460   540 0001:00001467
   542 0001:0000146e   543 0001:00001477   547 0001:00001481   549 0001:00001494
   555 0001:0000149c   557 0001:000014ce   561 0001:000014d6   565 0001:000014e1
   567 0001:00001501   570 0001:00001509   575 0001:0000150f   577 0001:00001540
   581 0001:00001551   584 0001:00001559   585 0001:0000155f   589 0001:00001567
   591 0001:0000157b   596 0001:00001583   597 0001:000015a3   599 0001:000015a9
   602 0001:000015ae   603 0001:000015b7   605 0001:000015b9   610 0001:000015bb
   615 0001:000015f3   617 0001:00001611   618 0001:00001613   626 0001:00001620
   629 0001:00001629   630 0001:00001632   631 0001:00001639   632 0001:0000163f
   635 0001:00001645   637 0001:00001664   640 0001:00001669   646 0001:00001671
   647 0001:0000168f   648 0001:00001697   651 0001:00001699   652 0001:0000169f
   654 0001:000016a5   658 0001:000016a9   660 0001:000016ae   668 0001:000016c0
   672 0001:000016c9   673 0001:000016d2   716 0001:000016d9   717 0001:000016e9
   718 0001:00001705   725 0001:00001710   726 0001:00001719   727 0001:00001722
   729 0001:00001729   731 0001:00001730   732 0001:00001745   733 0001:00001748
   741 0001:00001750   742 0001:00001759   743 0001:00001762   745 0001:00001769
   746 0001:00001770   748 0001:00001787   749 0001:0000178a   756 0001:00001790
   757 0001:00001799   759 0001:0000179d   760 0001:000017a6   762 0001:000017ab
   763 0001:000017b2   764 0001:000017c8   766 0001:000017d7   767 0001:000017da
   768 0001:000017e0   769 0001:000017e7   771 0001:000017f9   772 0001:00001812
   773 0001:0000181b   774 0001:00001824   777 0001:0000183f   778 0001:00001850
   779 0001:00001857   781 0001:00001869   782 0001:00001882   783 0001:0000188b
   784 0001:00001894   787 0001:000018af   788 0001:000018c0   789 0001:000018c7
   791 0001:000018d9   792 0001:000018f2   793 0001:00001909   794 0001:00001912
   797 0001:0000192d   798 0001:00001940   799 0001:00001949   802 0001:0000195b
   803 0001:00001961   804 0001:00001967   805 0001:0000196d   807 0001:0000198b
   808 0001:000019a0   809 0001:000019a7   811 0001:000019b9   812 0001:000019d2
   813 0001:000019e9   814 0001:000019f2   816 0001:00001a0d   817 0001:00001a20
   818 0001:00001a29   821 0001:00001a3b   822 0001:00001a41   823 0001:00001a47
   824 0001:00001a4d   826 0001:00001a6b   827 0001:00001a80   828 0001:00001a87
   830 0001:00001a99   831 0001:00001ab2   832 0001:00001ac9   833 0001:00001ad2
   835 0001:00001aed   837 0001:00001b00   838 0001:00001b09   841 0001:00001b1b
   842 0001:00001b21   843 0001:00001b27   844 0001:00001b2d   846 0001:00001b4b
   847 0001:00001b60   848 0001:00001b67   850 0001:00001b79   851 0001:00001b92
   852 0001:00001b9b   853 0001:00001ba4   855 0001:00001bbf   856 0001:00001bd0
   857 0001:00001bd7   859 0001:00001be9   860 0001:00001c02   861 0001:00001c0b
   862 0001:00001c14   864 0001:00001c2f   865 0001:00001c40   866 0001:00001c47
   868 0001:00001c59   869 0001:00001c72   870 0001:00001c7b   871 0001:00001c84
   873 0001:00001c9f   885 0001:00001cb0   886 0001:00001cb7   887 0001:00001cc0
   888 0001:00001cca   889 0001:00001cd7   890 0001:00001ce1   891 0001:00001cee
   898 0001:00001d00   899 0001:00001d09   901 0001:00001d11   902 0001:00001d1d
   903 0001:00001d42   910 0001:00001d50   913 0001:00001d59   914 0001:00001d62
   916 0001:00001d6f   918 0001:00001d7c   919 0001:00001d82   920 0001:00001d8c
   922 0001:00001db1   924 0001:00001dc8   932 0001:00001dd5   934 0001:00001def
   935 0001:00001e09   938 0001:00001e13   939 0001:00001e2f   941 0001:00001e39
   942 0001:00001e55   944 0001:00001e5f   945 0001:00001e72   947 0001:00001e7c
   948 0001:00001e97   949 0001:00001ea3   950 0001:00001ead   953 0001:00001ec7
   954 0001:00001ed7   955 0001:00001ede   956 0001:00001ee4   958 0001:00001ef0
   961 0001:00001f07   964 0001:00001f18   965 0001:00001f27   968 0001:00001f2f
   969 0001:00001f40   972 0001:00001f45   974 0001:00001f51   976 0001:00001f53
   977 0001:00001f6a   978 0001:00001f73   980 0001:00001f7a   982 0001:00001f8f
   983 0001:00001f9e   986 0001:00001fa3   987 0001:00001fb4   990 0001:00001fb9
   991 0001:00001fbc   999 0001:00001fd0  1000 0001:00001fd7  1001 0001:00001fdf
  1002 0001:00001feb  1003 0001:00001ff7  1004 0001:00002009  1006 0001:00002016
  1007 0001:0000201c  1009 0001:00002023  1010 0001:00002025  1019 0001:00002030
  1023 0001:00002039  1025 0001:00002042  1026 0001:0000205e  1030 0001:00002068
  1031 0001:00002080  1034 0001:0000208a  1035 0001:00002091  1036 0001:000020af
  1040 0001:000020b9  1041 0001:000020bf  1045 0001:000020c9  1046 0001:000020e1
  1050 0001:000020eb  1052 0001:000020f4  1053 0001:00002109  1054 0001:00002111
  1057 0001:0000211b  1058 0001:0000212f  1060 0001:0000213a  1063 0001:0000213f
  1064 0001:00002145  1065 0001:0000215d  1067 0001:00002167  1068 0001:00002182
  1069 0001:0000218a  1072 0001:00002194  1073 0001:000021a8  1077 0001:000021b5
  1079 0001:000021d8  1080 0001:000021fd  1085 0001:00002204  1087 0001:0000221b
  1088 0001:00002240  1091 0001:00002247  1092 0001:00002249  1099 0001:00002250
  1100 0001:00002257  1101 0001:0000225d  1109 0001:00002270  1110 0001:00002277
  1112 0001:00002283  1114 0001:00002295  1116 0001:0000229a  1117 0001:000022a3
  1119 0001:000022ad  1123 0001:000022b6  1124 0001:000022d4  1127 0001:000022de
  1128 0001:000022e8  1129 0001:00002309  1131 0001:00002310  1134 0001:00002312
  1135 0001:0000231c  1137 0001:00002326  1138 0001:00002340  1140 0001:00002347
  1141 0001:00002361  1145 0001:00002368  1146 0001:0000236a  1158 0001:00002370
  1159 0001:00002379  1161 0001:00002389  1162 0001:00002395  1163 0001:0000239f
  1164 0001:000023a5  1167 0001:000023ae  1169 0001:000023d0  1172 0001:000023f0
  1174 0001:0000240a  1175 0001:00002410  1177 0001:00002418  1183 0001:0000241f
  1184 0001:00002428  1185 0001:00002432  1186 0001:0000243e  1188 0001:00002448
  1189 0001:0000244e  1191 0001:00002457  1192 0001:0000246e  1194 0001:00002478
  1195 0001:0000247e  1196 0001:00002489  1198 0001:00002492  1200 0001:000024a1
  1203 0001:000024bb  1205 0001:000024c3  1206 0001:000024da  1208 0001:000024e1
  1209 0001:000024e9  1213 0001:000024f0  1214 0001:000024fd  1215 0001:00002506
  1217 0001:00002508  1218 0001:0000251f  1220 0001:00002526  1221 0001:0000252c
  1223 0001:00002534  1225 0001:00002536  1233 0001:00002540  1234 0001:00002549
  1236 0001:00002552  1237 0001:00002561  1238 0001:0000256b  1240 0001:0000259c
  1242 0001:000025a1  1244 0001:000025b3  1245 0001:000025bc  1247 0001:000025c6
  1248 0001:000025e0  1252 0001:000025ea  1253 0001:00002604  1256 0001:0000260e
  1257 0001:00002628  1259 0001:00002632  1261 0001:00002643  1262 0001:0000265f
  1264 0001:00002669  1266 0001:00002673  1268 0001:00002694  1269 0001:0000269b
  1270 0001:000026ae  1275 0001:000026c4  1276 0001:000026de  1278 0001:000026e5
  1279 0001:000026f4  1282 0001:000026fe  1283 0001:00002700  1294 0001:00002710
  1298 0001:00002719  1301 0001:00002720  1302 0001:0000272a  1304 0001:00002734
  1305 0001:0000274e  1311 0001:00002758  1312 0001:00002762  1314 0001:0000276c
  1315 0001:00002786  1318 0001:00002790  1321 0001:0000279b  1322 0001:000027b3
  1324 0001:000027bd  1329 0001:000027bf  1330 0001:000027e9  1334 0001:000027f3
  1335 0001:0000280d  1339 0001:00002814  1340 0001:0000281b  1342 0001:00002822
  1343 0001:00002839  1346 0001:00002840  1347 0001:00002858  1350 0001:0000285f
  1351 0001:00002876  1353 0001:0000287d  1354 0001:0000287f  1362 0001:00002890
  1365 0001:00002899  1366 0001:000028a5  1367 0001:000028af  1368 0001:000028b8
  1369 0001:000028c2  1370 0001:000028ce  1372 0001:000028d8  1374 0001:000028e1
  1376 0001:000028fb  1378 0001:00002909  1379 0001:0000291a  1380 0001:00002934
  1383 0001:0000293b  1384 0001:0000294b  1386 0001:0000295a  1387 0001:00002967
  1389 0001:00002969  1390 0001:0000296b

Line numbers for D:\Program Files\Microsoft Visual Studio .NET 2003\Vc7\lib\LIBCMTD.lib(f:\vs70builds\3077\vc\crtbld\crt\src\tzset.c) segment .text

    88 0001:00040bc0    91 0001:00040be3    93 0001:00040bec    94 0001:00040bf6
    96 0001:00040bfd    97 0001:00040c06    98 0001:00040c0b   102 0001:00040c26
   106 0001:00040c31   113 0001:00040c50   114 0001:00040c73   115 0001:00040c7d
   117 0001:00040c84   120 0001:00040c97   122 0001:00040ca2   135 0001:00040cc0
   138 0001:00040ce3   141 0001:00040cea   142 0001:00040cf4   147 0001:00040cfb
   152 0001:00040d03   158 0001:00040d0d   163 0001:00040d23   173 0001:00040d47
   174 0001:00040d50   175 0001:00040d61   178 0001:00040d6b   182 0001:00040d7f
   187 0001:00040d89   189 0001:00040d98   190 0001:00040da3   198 0001:00040db8
   200 0001:00040dcc   202 0001:00040dd6   204 0001:00040de9   205 0001:00040deb
   213 0001:00040df5   233 0001:00040dff   234 0001:00040e2b   235 0001:00040e35
   236 0001:00040e37   246 0001:00040e40   247 0001:00040e6c   248 0001:00040e75
   249 0001:00040e77   256 0001:00040e8e   260 0001:00040e93   266 0001:00040ec0
   272 0001:00040ec5   273 0001:00040ece   275 0001:00040ede   277 0001:00040f1e
   279 0001:00040f23   282 0001:00040f44   289 0001:00040f4f   290 0001:00040f63
   299 0001:00040f6d   300 0001:00040f81   301 0001:00040f8a   307 0001:00040f93
   309 0001:00040faa   314 0001:00040fd6   318 0001:00040fe5   319 0001:00041008
   324 0001:00041029   328 0001:00041034   329 0001:00041054   333 0001:00041075
   334 0001:0004107b   339 0001:00041087   340 0001:0004109c   341 0001:000410b1
   343 0001:000410bb   344 0001:000410bd   346 0001:000410c5   523 0001:000410e0
   526 0001:00041103   527 0001:0004110d   528 0001:00041114   530 0001:00041131
   533 0001:0004113c   534 0001:0004113f   540 0001:00041150   543 0001:00041154
   544 0001:0004115d   551 0001:00041164   552 0001:00041184   556 0001:00041191
   567 0001:0004119c   568 0001:000411e9   579 0001:000411eb   583 0001:00041232
   594 0001:0004123d   595 0001:0004128a   606 0001:0004128c   609 0001:000412d3
   624 0001:000412d5   636 0001:000412f8   643 0001:0004131b   647 0001:00041329
   648 0001:00041345   649 0001:0004134c   650 0001:00041368   652 0001:00041372
   656 0001:00041374   657 0001:00041390   658 0001:00041397   659 0001:000413b3
   662 0001:000413b7   664 0001:000413de   665 0001:000413ec   666 0001:000413f7
   668 0001:000413fe   674 0001:00041402   675 0001:0004140d   677 0001:00041414
   680 0001:00041416   395 0001:00041420   399 0001:00041428   409 0001:00041432
   415 0001:0004148d   420 0001:000414de   421 0001:000414e6   422 0001:000414fd
   423 0001:000414ff   432 0001:00041513   434 0001:00041574   437 0001:0004157d
   442 0001:0004157f   444 0001:000415d8   447 0001:000415e1   451 0001:000415e7
   452 0001:000415f0   457 0001:0004160d   459 0001:00041616   463 0001:0004161b
   464 0001:00041624   470 0001:00041641   471 0001:0004165b   472 0001:0004166d
   474 0001:0004167a   475 0001:00041688   476 0001:0004169a   483 0001:000416a9
   487 0001:000416b1

Line numbers for D:\Program Files\Microsoft Visual Studio .NET 2003\Vc7\lib\LIBCMTD.lib(f:\vs70builds\3077\vc\crtbld\crt\src\strftime.c) segment .text

   110 0001:00039740   111 0001:00039747   112 0001:0003974f   115 0001:00039756
   116 0001:0003976e   117 0001:000397a1   119 0001:000397bc   120 0001:000397c6
   122 0001:000397cc   123 0001:000397e4   124 0001:000397f3   125 0001:00039818
   126 0001:00039827   127 0001:0003984d   128 0001:0003984f   131 0001:0003985e
   132 0001:00039861   138 0001:00039870   139 0001:00039877   140 0001:0003987f
   143 0001:00039886   144 0001:0003989e   145 0001:000398d2   147 0001:000398f0
   148 0001:000398fa   150 0001:00039900   151 0001:00039918   152 0001:00039927
   153 0001:0003994d   154 0001:0003995c   155 0001:00039982   156 0001:00039984
   159 0001:00039993   160 0001:00039996   166 0001:000399a0   167 0001:000399a7
   168 0001:000399af   171 0001:000399b6   172 0001:000399ce   173 0001:00039a01
   174 0001:00039a19   175 0001:00039a4d   176 0001:00039a7d   177 0001:00039a99
   178 0001:00039ab5   179 0001:00039ad1   181 0001:00039af1   182 0001:00039afb
   183 0001:00039b01   185 0001:00039b0d   186 0001:00039b24   187 0001:00039b3c
   188 0001:00039b48   189 0001:00039b71   190 0001:00039b7e   191 0001:00039ba8
   192 0001:00039baa   193 0001:00039bc2   194 0001:00039bcf   195 0001:00039bf9
   196 0001:00039c06   197 0001:00039c30   198 0001:00039c32   199 0001:00039c3e
   200 0001:00039c67   201 0001:00039c73   202 0001:00039c9c   203 0001:00039ca8
   204 0001:00039cd1   205 0001:00039cdd   206 0001:00039d06   207 0001:00039d12
   210 0001:00039d28   211 0001:00039d2b   249 0001:00039d30   250 0001:00039d33
   251 0001:00039d4d   292 0001:00039d50   294 0001:00039d54   296 0001:00039d5f
   297 0001:00039d6a   300 0001:00039d72   301 0001:00039d92   311 0001:00039da0
   315 0001:00039da6   322 0001:00039dad   325 0001:00039dca   327 0001:00039dd0
   328 0001:00039df5   332 0001:00039dfc   339 0001:00039e02   341 0001:00039e0c
   347 0001:00039e22   354 0001:00039e27   357 0001:00039e30   358 0001:00039e37
   360 0001:00039e42   361 0001:00039e49   368 0001:00039e52   370 0001:00039e7c
   371 0001:00039e83   374 0001:00039e88   375 0001:00039e91   387 0001:00039e96
   390 0001:00039eb4   392 0001:00039ebf   393 0001:00039ee4   394 0001:00039eeb
   398 0001:00039eed   399 0001:00039f09   404 0001:00039f12   405 0001:00039f2e
   408 0001:00039f37   416 0001:00039f3c   421 0001:00039f48   422 0001:00039f4e
   426 0001:00039f56   429 0001:00039f5c   433 0001:00039f65   436 0001:00039f6b
   438 0001:00039f6d   477 0001:00039f80   487 0001:00039f87   491 0001:00039fb2
   492 0001:00039fcf   496 0001:00039fd4   497 0001:00039ff2   501 0001:00039ff7
   502 0001:0003a015   506 0001:0003a01a   507 0001:0003a038   510 0001:0003a03d
   516 0001:0003a047   518 0001:0003a069   521 0001:0003a070   522 0001:0003a078
   523 0001:0003a07f   524 0001:0003a094   529 0001:0003a0a1   531 0001:0003a0c3
   535 0001:0003a0ca   540 0001:0003a0cf   542 0001:0003a0f1   544 0001:0003a0f8
   545 0001:0003a100   546 0001:0003a107   547 0001:0003a11c   552 0001:0003a129
   554 0001:0003a14b   557 0001:0003a152   562 0001:0003a157   563 0001:0003a174
   568 0001:0003a179   569 0001:0003a196   572 0001:0003a19b   573 0001:0003a1b2
   575 0001:0003a1b9   576 0001:0003a1d3   581 0001:0003a1d8   582 0001:0003a1f8
   587 0001:0003a1fd   588 0001:0003a21d   593 0001:0003a222   594 0001:0003a23f
   597 0001:0003a244   598 0001:0003a24d   599 0001:0003a267   600 0001:0003a269
   601 0001:0003a283   606 0001:0003a288   607 0001:0003a2a4   610 0001:0003a2a9
   611 0001:0003a2b2   616 0001:0003a2b4   617 0001:0003a2d1   620 0001:0003a2d6
   621 0001:0003a2df   622 0001:0003a2e6   623 0001:0003a2e8   625 0001:0003a2f4
   626 0001:0003a2ff   627 0001:0003a306   628 0001:0003a308   629 0001:0003a319
   630 0001:0003a32c   633 0001:0003a335   634 0001:0003a34f   637 0001:0003a354
   643 0001:0003a35a   645 0001:0003a37c   648 0001:0003a383   654 0001:0003a385
   656 0001:0003a3a7   659 0001:0003a3ae   666 0001:0003a3b3   668 0001:0003a3d5
   670 0001:0003a3dc   673 0001:0003a3e1   675 0001:0003a3f2   676 0001:0003a40c
   680 0001:0003a411   682 0001:0003a43a   683 0001:0003a454   687 0001:0003a456
   689 0001:0003a45b   690 0001:0003a47f   693 0001:0003a481   694 0001:0003a496
   704 0001:0003a4a3   705 0001:0003a4a8   734 0001:0003a560   736 0001:0003a563
   737 0001:0003a575   738 0001:0003a597   739 0001:0003a5a4   740 0001:0003a5a6
   774 0001:0003a5b0   775 0001:0003a5b4   777 0001:0003a5bb   778 0001:0003a5c1
   779 0001:0003a5d5   782 0001:0003a5d7   783 0001:0003a5e1   784 0001:0003a5fd
   785 0001:0003a616   786 0001:0003a624   787 0001:0003a62d   788 0001:0003a62f
   789 0001:0003a63c   791 0001:0003a649   792 0001:0003a64b   793 0001:0003a654
   830 0001:0003a660   835 0001:0003a666   838 0001:0003a66e   841 0001:0003a676
   842 0001:0003a692   843 0001:0003a69f   846 0001:0003a6bb   847 0001:0003a6c3
   848 0001:0003a6cb   852 0001:0003a6d4   853 0001:0003a6dc   854 0001:0003a6ef
   855 0001:0003a700   856 0001:0003a708   902 0001:0003a710   910 0001:0003a736
   913 0001:0003a74a   914 0001:0003a756   916 0001:0003a758   917 0001:0003a764
   920 0001:0003a766   924 0001:0003a772   933 0001:0003a782   934 0001:0003a788
   935 0001:0003a791   936 0001:0003a793   938 0001:0003a79b   939 0001:0003a7ab
   940 0001:0003a7b8   941 0001:0003a7c3   942 0001:0003a7ce   943 0001:0003a7d9
   944 0001:0003a7e3   948 0001:0003a7e9   950 0001:0003a807   952 0001:0003a811
   956 0001:0003a818   958 0001:0003a81f   960 0001:0003a842   962 0001:0003a84b
   963 0001:0003a850   966 0001:0003a85e   968 0001:0003a864   969 0001:0003a87f
   970 0001:0003a885   973 0001:0003a88c   977 0001:0003a896   980 0001:0003a8b8
   981 0001:0003a8be   982 0001:0003a8d5   983 0001:0003a8f7   984 0001:0003a904
   986 0001:0003a906   987 0001:0003a90c   988 0001:0003a91a   995 0001:0003a924
   997 0001:0003a93e   998 0001:0003a942  1001 0001:0003a949  1003 0001:0003a97c
  1006 0001:0003a985  1009 0001:0003a9b2  1011 0001:0003a9d1  1012 0001:0003a9d8
  1013 0001:0003a9de  1014 0001:0003a9e4  1015 0001:0003a9e8  1017 0001:0003a9ed
  1019 0001:0003aa0c  1020 0001:0003aa13  1021 0001:0003aa19  1022 0001:0003aa1f
  1023 0001:0003aa23  1025 0001:0003aa28  1027 0001:0003aa3c  1028 0001:0003aa42
  1029 0001:0003aa46  1031 0001:0003aa4b  1033 0001:0003aa5f  1034 0001:0003aa66
  1035 0001:0003aa6a  1037 0001:0003aa6f  1039 0001:0003aa83  1040 0001:0003aa8a
  1041 0001:0003aa8e  1043 0001:0003aa93  1045 0001:0003aaa7  1046 0001:0003aaae
  1047 0001:0003aab2  1049 0001:0003aab7  1051 0001:0003aacb  1052 0001:0003aad2
  1053 0001:0003aad6  1056 0001:0003aadb  1057 0001:0003aaf0  1058 0001:0003aaf9
  1059 0001:0003ab10  1060 0001:0003ab19  1061 0001:0003ab1d  1063 0001:0003ab22
  1064 0001:0003ab2b  1065 0001:0003ab37  1066 0001:0003ab39  1068 0001:0003ab45
  1075 0001:0003ab5b  1078 0001:0003ab7b  1080 0001:0003ab86  1081 0001:0003abab
  1084 0001:0003abb2  1085 0001:0003abd4  1088 0001:0003abe1  1089 0001:0003ac03
  1090 0001:0003ac10  1091 0001:0003ac15  1098 0001:0003ac2f  1101 0001:0003ac4e
  1103 0001:0003ac59  1104 0001:0003ac7e  1107 0001:0003ac85  1108 0001:0003aca7
  1110 0001:0003acb4  1111 0001:0003acd6  1112 0001:0003ace3  1114 0001:0003ace8
  1115 0001:0003acee  1118 0001:0003acf3  1120 0001:0003acff  1121 0001:0003ad08
  1123 0001:0003ad22  1125 0001:0003ad2d  1126 0001:0003ad36  1133 0001:0003ad3b
  1136 0001:0003ad5b  1138 0001:0003ad66  1139 0001:0003ad8b  1142 0001:0003ad92
  1143 0001:0003adb4  1146 0001:0003adc1  1147 0001:0003ade3  1148 0001:0003adf0
  1150 0001:0003adf5  1151 0001:0003adf7  1153 0001:0003ae00  1160 0001:0003ae05
  1167 0001:0003ae0d  1169 0001:0003ae35  1171 0001:0003ae3c  1172 0001:0003ae42
  1178 0001:0003ae47  1181 0001:0003ae67  1183 0001:0003ae72  1184 0001:0003ae97
  1187 0001:0003ae9b  1188 0001:0003aebd  1190 0001:0003aeca  1191 0001:0003aeec
  1193 0001:0003aef9  1195 0001:0003aefe  1196 0001:0003af03

Line numbers for D:\Program Files\Microsoft Visual Studio .NET 2003\Vc7\lib\LIBCMTD.lib(F:\VS70Builds\3077\vc\crtbld\crt\src\Intel\STRSPN.ASM) segment .text

   191 0001:0003c630   191 0001:0003c630   198 0001:0003c634   199 0001:0003c636
   200 0001:0003c637   201 0001:0003c638   202 0001:0003c639   203 0001:0003c63a
   204 0001:0003c63b   205 0001:0003c63c   206 0001:0003c63d   212 0001:0003c63e
   216 0001:0003c644   217 0001:0003c646   218 0001:0003c648   219 0001:0003c64a
   220 0001:0003c64d   221 0001:0003c651   227 0001:0003c653   236 0001:0003c658
   237 0001:0003c65a   238 0001:0003c65c   239 0001:0003c65e   240 0001:0003c661
   247 0001:0003c665   248 0001:0003c667   257 0001:0003c66a   259 0001:0003c66d

Line numbers for D:\Program Files\Microsoft Visual Studio .NET 2003\Vc7\lib\LIBCMTD.lib(F:\VS70Builds\3077\vc\crtbld\crt\src\intel\_strnicm.asm) segment .text

    69 0001:00042d40    69 0001:00042d40    75 0001:00042d46    76 0001:00042d49
    77 0001:00042d4b    79 0001:00042d4d    80 0001:00042d50    82 0001:00042d53
    83 0001:00042d55    84 0001:00042d57    89 0001:00042d5c    91 0001:00042d5e
    93 0001:00042d60    95 0001:00042d62    97 0001:00042d64    98 0001:00042d66
   100 0001:00042d68   101 0001:00042d6b   103 0001:00042d6e   104 0001:00042d70
   106 0001:00042d72   107 0001:00042d74   109 0001:00042d76   112 0001:00042d78
   113 0001:00042d7a   115 0001:00042d7c   116 0001:00042d7e   118 0001:00042d80
   121 0001:00042d82   122 0001:00042d84   124 0001:00042d86   125 0001:00042d89
   128 0001:00042d8b   129 0001:00042d8d   130 0001:00042d8f   133 0001:00042d91
   134 0001:00042d96   135 0001:00042d98   138 0001:00042d9a   140 0001:00042d9c

Line numbers for D:\Program Files\Microsoft Visual Studio .NET 2003\Vc7\lib\LIBCMTD.lib(f:\vs70builds\3077\vc\crtbld\crt\src\strnicmp.c) segment .text

    47 0001:00041e70    50 0001:00041e76    52 0001:00041e81    53 0001:00041e8c
    56 0001:00041e94    59 0001:00041e9e    63 0001:00041ea7    68 0001:00041ebd
    69 0001:00041ee2    74 0001:00041f07    77 0001:00041f20    80 0001:00041f28
    81 0001:00041f2a

Line numbers for D:\Program Files\Microsoft Visual Studio .NET 2003\Vc7\lib\LIBCMTD.lib(F:\VS70Builds\3077\vc\crtbld\crt\src\intel\strncpy.asm) segment .text

    66 0001:00032b40    62 0001:00032b40    67 0001:00032b44    68 0001:00032b45
    69 0001:00032b47    71 0001:00032b4d    72 0001:00032b4e    73 0001:00032b4f
    74 0001:00032b51    75 0001:00032b55    76 0001:00032b5b    77 0001:00032b5f
    79 0001:00032b61    80 0001:00032b64    81 0001:00032b6a    86 0001:00032b6c
    87 0001:00032b6e    88 0001:00032b71    89 0001:00032b73    90 0001:00032b76
    91 0001:00032b79    92 0001:00032b7b    93 0001:00032b7d    95 0001:00032b7f
    96 0001:00032b85    97 0001:00032b87    98 0001:00032b89    99 0001:00032b8c
   102 0001:00032b8e   103 0001:00032b91   109 0001:00032b93   110 0001:00032b95
   111 0001:00032b98   112 0001:00032b9a   113 0001:00032b9d   114 0001:00032b9f
   115 0001:00032ba1   116 0001:00032ba4   118 0001:00032ba6   119 0001:00032baa
   120 0001:00032bab   121 0001:00032bac   122 0001:00032bad   127 0001:00032bae
   128 0001:00032bb4   130 0001:00032bb6   131 0001:00032bb8   132 0001:00032bbb
   133 0001:00032bbe   134 0001:00032bc4   135 0001:00032bca   137 0001:00032bcc
   138 0001:00032bce   139 0001:00032bd1   142 0001:00032bd3   143 0001:00032bd5
   145 0001:00032bd8   146 0001:00032bdb   147 0001:00032bdd   148 0001:00032bde
   150 0001:00032bdf   151 0001:00032be3   152 0001:00032be4   157 0001:00032be5
   158 0001:00032be7   159 0001:00032bea   160 0001:00032bed   163 0001:00032bef
   164 0001:00032bf4   165 0001:00032bf6   166 0001:00032bf8   167 0001:00032bfb
   168 0001:00032bfd   169 0001:00032bff   170 0001:00032c02   171 0001:00032c07
   175 0001:00032c09   176 0001:00032c0b   177 0001:00032c0d   178 0001:00032c0f
   179 0001:00032c11   180 0001:00032c17   181 0001:00032c19   182 0001:00032c1f
   188 0001:00032c21   189 0001:00032c23   192 0001:00032c25   193 0001:00032c2b
   194 0001:00032c2d   197 0001:00032c2f   198 0001:00032c35   199 0001:00032c37
   202 0001:00032c39   203 0001:00032c3b   208 0001:00032c3d   209 0001:00032c40
   210 0001:00032c42   211 0001:00032c45   214 0001:00032c47   216 0001:00032c49
   217 0001:00032c4b   218 0001:00032c4e   219 0001:00032c51   221 0001:00032c53
   222 0001:00032c56   224 0001:00032c5c   225 0001:00032c60   226 0001:00032c61
   227 0001:00032c62   228 0001:00032c63

Line numbers for D:\Program Files\Microsoft Visual Studio .NET 2003\Vc7\lib\LIBCMTD.lib(F:\VS70Builds\3077\vc\crtbld\crt\src\intel\strncmp.asm) segment .text

    62 0001:0003c5f0    62 0001:0003c5f0    69 0001:0003c5f6    70 0001:0003c5f9
    72 0001:0003c5fb    74 0001:0003c5fd    76 0001:0003c600    77 0001:0003c602
    78 0001:0003c604    79 0001:0003c606    80 0001:0003c608    83 0001:0003c60a
    84 0001:0003c60c    85 0001:0003c60f    86 0001:0003c611    87 0001:0003c614
    89 0001:0003c616    90 0001:0003c619    91 0001:0003c61b    95 0001:0003c61d
    98 0001:0003c620   101 0001:0003c622   103 0001:0003c624

Line numbers for D:\Program Files\Microsoft Visual Studio .NET 2003\Vc7\lib\LIBCMTD.lib(F:\VS70Builds\3077\vc\crtbld\crt\src\intel\strncat.asm) segment .text

    71 0001:00032a00    64 0001:00032a00    72 0001:00032a04    73 0001:00032a05
    74 0001:00032a07    76 0001:00032a0d    77 0001:00032a11    78 0001:00032a12
    79 0001:00032a18    80 0001:00032a19    85 0001:00032a1b    86 0001:00032a1d
    87 0001:00032a20    88 0001:00032a22    89 0001:00032a24    90 0001:00032a2a
    93 0001:00032a2c    94 0001:00032a2e    95 0001:00032a33    96 0001:00032a35
    97 0001:00032a38    98 0001:00032a3a    99 0001:00032a3d   100 0001:00032a42
   103 0001:00032a44   104 0001:00032a47   105 0001:00032a49   106 0001:00032a4b
   107 0001:00032a4d   108 0001:00032a4f   109 0001:00032a54   110 0001:00032a56
   111 0001:00032a5b   115 0001:00032a5d   116 0001:00032a60   118 0001:00032a62
   119 0001:00032a65   121 0001:00032a67   122 0001:00032a6a   124 0001:00032a6c
   129 0001:00032a6f   130 0001:00032a73   131 0001:00032a79   133 0001:00032a7b
   135 0001:00032a7d   136 0001:00032a80   137 0001:00032a82   142 0001:00032a84
   143 0001:00032a86   144 0001:00032a89   145 0001:00032a8b   146 0001:00032a8d
   147 0001:00032a8f   148 0001:00032a92   149 0001:00032a95   150 0001:00032a97
   151 0001:00032a9d   152 0001:00032a9f   153 0001:00032aa1   154 0001:00032aa4
   157 0001:00032aa6   158 0001:00032aa8   160 0001:00032aab   163 0001:00032aad
   164 0001:00032aaf   165 0001:00032ab2   166 0001:00032ab4   167 0001:00032ab7
   168 0001:00032ab9   169 0001:00032abb   170 0001:00032abe   173 0001:00032ac0
   175 0001:00032ac2   176 0001:00032ac3   178 0001:00032ac4   179 0001:00032ac8
   180 0001:00032ac9   184 0001:00032aca   185 0001:00032acc   186 0001:00032ad0
   187 0001:00032ad1   188 0001:00032ad2   189 0001:00032ad3   193 0001:00032ad4
   194 0001:00032ad6   196 0001:00032ad9   197 0001:00032adc   199 0001:00032ade
   200 0001:00032ae3   202 0001:00032ae5   203 0001:00032ae7   205 0001:00032aea
   206 0001:00032aec   208 0001:00032aee   209 0001:00032af1   211 0001:00032af6
   214 0001:00032af8   215 0001:00032afa   216 0001:00032afc   217 0001:00032afe
   218 0001:00032b00   219 0001:00032b06   220 0001:00032b08   221 0001:00032b0e
   224 0001:00032b10   225 0001:00032b12   226 0001:00032b16   227 0001:00032b17
   228 0001:00032b18   229 0001:00032b19   232 0001:00032b1a   233 0001:00032b1d
   234 0001:00032b1f   235 0001:00032b23   236 0001:00032b26   237 0001:00032b27
   238 0001:00032b28   239 0001:00032b29   242 0001:00032b2a   243 0001:00032b2d
   244 0001:00032b31   245 0001:00032b32   246 0001:00032b33   247 0001:00032b34

Line numbers for D:\Program Files\Microsoft Visual Studio .NET 2003\Vc7\lib\LIBCMTD.lib(F:\VS70Builds\3077\vc\crtbld\crt\src\intel\strlen.asm) segment .text

    60 0001:00026ae0    54 0001:00026ae0    61 0001:00026ae4    62 0001:00026aea
    66 0001:00026aec    67 0001:00026aee    68 0001:00026af1    69 0001:00026af3
    70 0001:00026af5    71 0001:00026afb    73 0001:00026afd    78 0001:00026b10
    79 0001:00026b12    80 0001:00026b17    81 0001:00026b19    82 0001:00026b1c
    83 0001:00026b1e    84 0001:00026b21    85 0001:00026b26    87 0001:00026b28
    88 0001:00026b2b    89 0001:00026b2d    90 0001:00026b2f    91 0001:00026b31
    92 0001:00026b33    93 0001:00026b38    94 0001:00026b3a    95 0001:00026b3f
    96 0001:00026b41   100 0001:00026b43   101 0001:00026b46   102 0001:00026b4a
   103 0001:00026b4c   105 0001:00026b4d   106 0001:00026b50   107 0001:00026b54
   108 0001:00026b56   110 0001:00026b57   111 0001:00026b5a   112 0001:00026b5e
   113 0001:00026b60   115 0001:00026b61   116 0001:00026b64   117 0001:00026b68
   118 0001:00026b6a

Line numbers for D:\Program Files\Microsoft Visual Studio .NET 2003\Vc7\lib\LIBCMTD.lib(f:\vs70builds\3077\vc\crtbld\crt\src\stricmp.c) segment .text

    44 0001:00041dc0    48 0001:00041dc6    50 0001:00041dd1    51 0001:00041ddc
    53 0001:00041de4    57 0001:00041ded    62 0001:00041dff    63 0001:00041e24
    68 0001:00041e49    71 0001:00041e57    72 0001:00041e5d

Line numbers for D:\Program Files\Microsoft Visual Studio .NET 2003\Vc7\lib\LIBCMTD.lib(F:\VS70Builds\3077\vc\crtbld\crt\src\intel\_stricmp.asm) segment .text

    61 0001:000416c0    61 0001:000416c0    68 0001:000416c6    69 0001:000416c9
    71 0001:000416cc    76 0001:000416d0    77 0001:000416d2    79 0001:000416d4
    80 0001:000416d6    81 0001:000416d9    82 0001:000416db    84 0001:000416de
    85 0001:000416e0    87 0001:000416e2    88 0001:000416e4    89 0001:000416e6
    90 0001:000416e8    91 0001:000416eb    92 0001:000416ed    94 0001:000416ef
    96 0001:000416f1    97 0001:000416f3    98 0001:000416f5    99 0001:000416f7
   100 0001:000416fa   101 0001:000416fc   103 0001:000416fe   104 0001:00041700
   107 0001:00041702   108 0001:00041704   110 0001:00041706   112 0001:00041709

Line numbers for D:\Program Files\Microsoft Visual Studio .NET 2003\Vc7\lib\LIBCMTD.lib(F:\VS70Builds\3077\vc\crtbld\crt\src\Intel\STRSPN.ASM) segment .text

   191 0001:0003c5a0   191 0001:0003c5a0   198 0001:0003c5a4   199 0001:0003c5a6
   200 0001:0003c5a7   201 0001:0003c5a8   202 0001:0003c5a9   203 0001:0003c5aa
   204 0001:0003c5ab   205 0001:0003c5ac   206 0001:0003c5ad   212 0001:0003c5ae
   216 0001:0003c5b4   217 0001:0003c5b6   218 0001:0003c5b8   219 0001:0003c5ba
   220 0001:0003c5bd   221 0001:0003c5c1   227 0001:0003c5c3   229 0001:0003c5c6
   234 0001:0003c5cc   236 0001:0003c5cf   237 0001:0003c5d1   238 0001:0003c5d3
   239 0001:0003c5d5   240 0001:0003c5d8   245 0001:0003c5dc   255 0001:0003c5de
   257 0001:0003c5e0   259 0001:0003c5e3

Line numbers for D:\Program Files\Microsoft Visual Studio .NET 2003\Vc7\lib\LIBCMTD.lib(F:\VS70Builds\3077\vc\crtbld\crt\src\intel\strcmp.asm) segment .text

    69 0001:000298b0    65 0001:000298b0    70 0001:000298b4    72 0001:000298b8
    73 0001:000298be    77 0001:000298c0    79 0001:000298c2    80 0001:000298c4
    81 0001:000298c6    82 0001:000298c8    83 0001:000298ca    84 0001:000298cd
    85 0001:000298cf    86 0001:000298d1    88 0001:000298d3    90 0001:000298d6
    91 0001:000298d9    92 0001:000298db    93 0001:000298dd    94 0001:000298df
    95 0001:000298e2    96 0001:000298e4    97 0001:000298e7    98 0001:000298ea
    99 0001:000298ec   103 0001:000298f0   104 0001:000298f2   111 0001:000298f4
   112 0001:000298f6   113 0001:000298f8   114 0001:000298fb   118 0001:000298fc
   119 0001:00029902   121 0001:00029904   122 0001:00029906   123 0001:00029909
   124 0001:0002990b   125 0001:0002990d   126 0001:00029910   127 0001:00029912
   129 0001:00029914   130 0001:0002991a   135 0001:0002991c   136 0001:0002991f
   137 0001:00029922   138 0001:00029924   139 0001:00029926   140 0001:00029928
   141 0001:0002992a   142 0001:0002992d   143 0001:0002992f   144 0001:00029931
   145 0001:00029933   146 0001:00029936

Line numbers for D:\Program Files\Microsoft Visual Studio .NET 2003\Vc7\lib\LIBCMTD.lib(F:\VS70Builds\3077\vc\crtbld\crt\src\intel\strchr.asm) segment .text

    54 0001:00043ad0    54 0001:00043ad0    55 0001:00043ad3    56 0001:00043ad4
    60 0001:00043ae0    64 0001:00043ae0    65 0001:00043ae2    69 0001:00043ae6
    70 0001:00043ae7    71 0001:00043ae9    72 0001:00043aec    73 0001:00043af0
    74 0001:00043af6    77 0001:00043af8    78 0001:00043afa    79 0001:00043afd
    80 0001:00043aff    81 0001:00043b01    82 0001:00043b03    83 0001:00043b05
    84 0001:00043b0b    87 0001:00043b0d    88 0001:00043b0f    89 0001:00043b10
    90 0001:00043b12    91 0001:00043b15    92 0001:00043b16    97 0001:00043b18
    98 0001:00043b1a   100 0001:00043b1f   101 0001:00043b21   103 0001:00043b23
   104 0001:00043b25   106 0001:00043b27   107 0001:00043b29   109 0001:00043b2c
   110 0001:00043b2f   112 0001:00043b31   113 0001:00043b33   115 0001:00043b36
   116 0001:00043b3c   120 0001:00043b3e   121 0001:00043b43   123 0001:00043b45
   124 0001:00043b4a   126 0001:00043b4c   127 0001:00043b52   130 0001:00043b54
   131 0001:00043b55   133 0001:00043b56   134 0001:00043b57   135 0001:00043b59
   138 0001:00043b5a   139 0001:00043b5d   140 0001:00043b5f   141 0001:00043b61
   142 0001:00043b63   143 0001:00043b65   144 0001:00043b67   145 0001:00043b69
   146 0001:00043b6b   147 0001:00043b6d   148 0001:00043b70   149 0001:00043b72
   150 0001:00043b74   151 0001:00043b76   152 0001:00043b78   153 0001:00043b7a
   154 0001:00043b7c   155 0001:00043b7e   156 0001:00043b80   159 0001:00043b82
   160 0001:00043b83   161 0001:00043b84   162 0001:00043b87   163 0001:00043b88
   166 0001:00043b89   167 0001:00043b8c   168 0001:00043b8d   169 0001:00043b8e
   170 0001:00043b8f   173 0001:00043b90   174 0001:00043b93   175 0001:00043b94
   176 0001:00043b95   177 0001:00043b96   180 0001:00043b97   181 0001:00043b9a
   182 0001:00043b9b   183 0001:00043b9c   184 0001:00043b9d

Line numbers for D:\Program Files\Microsoft Visual Studio .NET 2003\Vc7\lib\LIBCMTD.lib(F:\VS70Builds\3077\vc\crtbld\crt\src\intel\strcat.asm) segment .text

    89 0001:00031e60    88 0001:00031e60    90 0001:00031e61    91 0001:00031e65
    97 0001:00031e70   101 0001:00031e70   102 0001:00031e74   103 0001:00031e75
   104 0001:00031e7b   107 0001:00031e7d   108 0001:00031e7f   109 0001:00031e82
   110 0001:00031e84   111 0001:00031e86   112 0001:00031e8c   117 0001:00031e90
   118 0001:00031e92   119 0001:00031e97   120 0001:00031e99   121 0001:00031e9c
   122 0001:00031e9e   123 0001:00031ea1   124 0001:00031ea6   126 0001:00031ea8
   127 0001:00031eab   128 0001:00031ead   129 0001:00031eaf   130 0001:00031eb1
   131 0001:00031eb3   132 0001:00031eb8   133 0001:00031eba   134 0001:00031ebf
   135 0001:00031ec1   139 0001:00031ec3   140 0001:00031ec6   142 0001:00031ec8
   143 0001:00031ecb   145 0001:00031ecd   146 0001:00031ed0   148 0001:00031ed2
   153 0001:00031ed5   154 0001:00031ed9   155 0001:00031edf   158 0001:00031ee1
   159 0001:00031ee3   160 0001:00031ee6   161 0001:00031ee8   162 0001:00031eea
   163 0001:00031eec   164 0001:00031eef   165 0001:00031ef5   166 0001:00031ef7
   169 0001:00031ef9   170 0001:00031efb   172 0001:00031efe   173 0001:00031f03
   175 0001:00031f05   176 0001:00031f07   178 0001:00031f0a   179 0001:00031f0c
   181 0001:00031f0e   182 0001:00031f11   184 0001:00031f16   187 0001:00031f18
   188 0001:00031f1a   189 0001:00031f1c   190 0001:00031f1e   191 0001:00031f20
   192 0001:00031f26   193 0001:00031f28   194 0001:00031f2e   195 0001:00031f30
   198 0001:00031f32   199 0001:00031f34   200 0001:00031f38   201 0001:00031f39
   203 0001:00031f3a   204 0001:00031f3d   205 0001:00031f41   206 0001:00031f45
   207 0001:00031f46   209 0001:00031f47   210 0001:00031f4a   211 0001:00031f4e
   212 0001:00031f4f   214 0001:00031f50   215 0001:00031f52   216 0001:00031f56
   217 0001:00031f57

Line numbers for D:\Program Files\Microsoft Visual Studio .NET 2003\Vc7\lib\LIBCMTD.lib(F:\VS70Builds\3077\vc\crtbld\crt\src\intel\memset.asm) segment .text

    60 0001:00020990    56 0001:00020990    61 0001:00020994    63 0001:00020998
    64 0001:0002099a    66 0001:0002099c    67 0001:0002099e    72 0001:000209a2
    73 0001:000209a3    75 0001:000209a5    76 0001:000209a8    78 0001:000209aa
    79 0001:000209ac    80 0001:000209af    82 0001:000209b1    84 0001:000209b3
    85 0001:000209b5    86 0001:000209b8    87 0001:000209bb    91 0001:000209bd
    92 0001:000209bf    94 0001:000209c2    96 0001:000209c4    98 0001:000209c6
   100 0001:000209c9   103 0001:000209cb   104 0001:000209cd   105 0001:000209d0
   106 0001:000209d3   108 0001:000209d5   110 0001:000209d7   111 0001:000209d9
   115 0001:000209db   116 0001:000209dd   118 0001:000209e0   119 0001:000209e3
   123 0001:000209e5   124 0001:000209e9   126 0001:000209ea   129 0001:000209eb
   131 0001:000209ef

Line numbers for D:\Program Files\Microsoft Visual Studio .NET 2003\Vc7\lib\LIBCMTD.lib(F:\VS70Builds\3077\vc\crtbld\crt\src\Intel\MEMCPY.ASM) segment .text

   109 0001:00022400   109 0001:00022400   121 0001:00022403   122 0001:00022404
   124 0001:00022405   125 0001:00022408   127 0001:0002240b   137 0001:0002240e
   139 0001:00022410   140 0001:00022412   142 0001:00022414   143 0001:00022416
   145 0001:00022418   146 0001:0002241a   162 0001:00022420   163 0001:00022426
   165 0001:00022428   166 0001:0002242b   168 0001:0002242e   169 0001:00022431
   171 0001:00022433   173 0001:00022435   191 0001:0002243c   192 0001:0002243e
   194 0001:00022443   195 0001:00022446   197 0001:00022448   198 0001:0002244b
   200 0001:0002244d   204 0001:00022454   208 0001:0002245c   215 0001:00022470
   216 0001:00022472   218 0001:00022474   219 0001:00022476   221 0001:00022479
   222 0001:0002247c   224 0001:0002247f   225 0001:00022482   227 0001:00022485
   228 0001:00022488   230 0001:0002248b   231 0001:0002248e   233 0001:00022490
   235 0001:00022492   239 0001:0002249c   240 0001:0002249e   242 0001:000224a0
   243 0001:000224a2   245 0001:000224a5   246 0001:000224a8   248 0001:000224ab
   249 0001:000224ae   251 0001:000224b1   252 0001:000224b4   254 0001:000224b6
   256 0001:000224b8   260 0001:000224c0   261 0001:000224c2   263 0001:000224c4
   264 0001:000224c6   266 0001:000224c9   267 0001:000224cc   269 0001:000224cf
   270 0001:000224d2   272 0001:000224d4   274 0001:000224d6   281 0001:00022500
   283 0001:00022504   285 0001:00022508   287 0001:0002250c   289 0001:00022510
   291 0001:00022514   293 0001:00022518   295 0001:0002251c   297 0001:00022520
   299 0001:00022524   301 0001:00022528   303 0001:0002252c   305 0001:00022530
   307 0001:00022534   309 0001:00022538   311 0001:0002253f   312 0001:00022541
   314 0001:00022543   323 0001:0002255c   324 0001:0002255f   325 0001:00022560
   327 0001:00022561   331 0001:00022564   333 0001:00022566   334 0001:00022568
   335 0001:0002256b   336 0001:0002256c   337 0001:0002256d   341 0001:00022570
   343 0001:00022572   344 0001:00022574   345 0001:00022577   346 0001:0002257a
   347 0001:0002257d   348 0001:0002257e   349 0001:0002257f   353 0001:00022584
   355 0001:00022586   356 0001:00022588   357 0001:0002258b   358 0001:0002258e
   359 0001:00022591   360 0001:00022594   361 0001:00022597   362 0001:00022598
   363 0001:00022599   374 0001:0002259c   375 0001:000225a0   380 0001:000225a4
   381 0001:000225aa   383 0001:000225ac   384 0001:000225af   386 0001:000225b2
   387 0001:000225b5   389 0001:000225b7   390 0001:000225b8   391 0001:000225ba
   393 0001:000225bb   397 0001:000225c4   400 0001:000225c6   405 0001:000225d0
   406 0001:000225d2   408 0001:000225d7   409 0001:000225da   411 0001:000225dc
   412 0001:000225df   414 0001:000225e1   418 0001:000225e8   425 0001:000225fc
   426 0001:000225ff   428 0001:00022601   429 0001:00022604   431 0001:00022607
   432 0001:0002260a   434 0001:0002260d   435 0001:00022610   437 0001:00022612
   438 0001:00022613   439 0001:00022615   441 0001:00022616   445 0001:00022620
   446 0001:00022623   448 0001:00022625   449 0001:00022628   451 0001:0002262b
   452 0001:0002262e   454 0001:00022631   455 0001:00022634   457 0001:00022637
   458 0001:0002263a   460 0001:0002263c   461 0001:0002263d   462 0001:0002263f
   464 0001:00022640   468 0001:00022648   469 0001:0002264b   471 0001:0002264d
   472 0001:00022650   474 0001:00022653   475 0001:00022656   477 0001:00022659
   478 0001:0002265c   480 0001:0002265f   481 0001:00022662   483 0001:00022665
   484 0001:00022668   486 0001:0002266e   487 0001:0002266f   488 0001:00022671
   490 0001:00022672   499 0001:0002269c   501 0001:000226a0   503 0001:000226a4
   505 0001:000226a8   507 0001:000226ac   509 0001:000226b0   511 0001:000226b4
   513 0001:000226b8   515 0001:000226bc   517 0001:000226c0   519 0001:000226c4
   521 0001:000226c8   523 0001:000226cc   525 0001:000226d0   527 0001:000226d4
   529 0001:000226db   530 0001:000226dd   532 0001:000226df   541 0001:000226f8
   543 0001:000226fb   544 0001:000226fc   545 0001:000226fd   549 0001:00022700
   551 0001:00022703   552 0001:00022706   553 0001:00022709   554 0001:0002270a
   555 0001:0002270b   559 0001:00022710   561 0001:00022713   562 0001:00022716
   563 0001:00022719   564 0001:0002271c   565 0001:0002271f   566 0001:00022720
   567 0001:00022721   571 0001:00022724   573 0001:00022727   574 0001:0002272a
   575 0001:0002272d   576 0001:00022730   577 0001:00022733   578 0001:00022736
   579 0001:00022739   580 0001:0002273a   581 0001:0002273b

Line numbers for D:\Program Files\Microsoft Visual Studio .NET 2003\Vc7\lib\LIBCMTD.lib(F:\VS70Builds\3077\vc\crtbld\crt\src\intel\memcmp.asm) segment .text

    64 0001:00026b70    60 0001:00026b70    65 0001:00026b74    66 0001:00026b76
    68 0001:00026b78    69 0001:00026b7c    70 0001:00026b7d    71 0001:00026b7e
    72 0001:00026b80    75 0001:00026b84    76 0001:00026b86    77 0001:00026b89
    84 0001:00026b8b    85 0001:00026b90    87 0001:00026b92    88 0001:00026b94
    89 0001:00026b96    90 0001:00026b98    91 0001:00026b9b    92 0001:00026b9e
    93 0001:00026ba1    96 0001:00026ba3    97 0001:00026ba5    98 0001:00026ba7
    99 0001:00026ba9   101 0001:00026bab   102 0001:00026bae   103 0001:00026bb1
   104 0001:00026bb3   106 0001:00026bb5   107 0001:00026bb8   109 0001:00026bbb
   110 0001:00026bbe   112 0001:00026bc0   113 0001:00026bc1   115 0001:00026bc2
   119 0001:00026bc3   120 0001:00026bc5   122 0001:00026bc8   123 0001:00026bcb
   125 0001:00026bcd   127 0001:00026bcf   130 0001:00026bd1   131 0001:00026bd4
   132 0001:00026bd7   133 0001:00026bd9   134 0001:00026bdb   135 0001:00026bdd
   136 0001:00026bdf   137 0001:00026be2   138 0001:00026be5   139 0001:00026be7
   140 0001:00026be9   144 0001:00026beb   147 0001:00026bf0   148 0001:00026bf2
   149 0001:00026bf3   150 0001:00026bf6   151 0001:00026bf7   157 0001:00026bf8
   159 0001:00026bfa   160 0001:00026bfc   161 0001:00026bfe   162 0001:00026c00
   163 0001:00026c02   164 0001:00026c04   165 0001:00026c07   166 0001:00026c09
   167 0001:00026c0b   168 0001:00026c0d   169 0001:00026c10   170 0001:00026c12
   171 0001:00026c18   172 0001:00026c1e   173 0001:00026c20   174 0001:00026c22
   176 0001:00026c25   177 0001:00026c26   178 0001:00026c27

Line numbers for D:\Program Files\Microsoft Visual Studio .NET 2003\Vc7\lib\LIBCMTD.lib(F:\VS70Builds\3077\vc\crtbld\crt\src\intel\memcpy.asm) segment .text

   109 0001:00021120   109 0001:00021120   121 0001:00021123   122 0001:00021124
   124 0001:00021125   125 0001:00021128   127 0001:0002112b   137 0001:0002112e
   139 0001:00021130   140 0001:00021132   142 0001:00021134   143 0001:00021136
   145 0001:00021138   146 0001:0002113a   162 0001:00021140   163 0001:00021146
   165 0001:00021148   166 0001:0002114b   168 0001:0002114e   169 0001:00021151
   171 0001:00021153   173 0001:00021155   191 0001:0002115c   192 0001:0002115e
   194 0001:00021163   195 0001:00021166   197 0001:00021168   198 0001:0002116b
   200 0001:0002116d   204 0001:00021174   208 0001:0002117c   215 0001:00021190
   216 0001:00021192   218 0001:00021194   219 0001:00021196   221 0001:00021199
   222 0001:0002119c   224 0001:0002119f   225 0001:000211a2   227 0001:000211a5
   228 0001:000211a8   230 0001:000211ab   231 0001:000211ae   233 0001:000211b0
   235 0001:000211b2   239 0001:000211bc   240 0001:000211be   242 0001:000211c0
   243 0001:000211c2   245 0001:000211c5   246 0001:000211c8   248 0001:000211cb
   249 0001:000211ce   251 0001:000211d1   252 0001:000211d4   254 0001:000211d6
   256 0001:000211d8   260 0001:000211e0   261 0001:000211e2   263 0001:000211e4
   264 0001:000211e6   266 0001:000211e9   267 0001:000211ec   269 0001:000211ef
   270 0001:000211f2   272 0001:000211f4   274 0001:000211f6   281 0001:00021220
   283 0001:00021224   285 0001:00021228   287 0001:0002122c   289 0001:00021230
   291 0001:00021234   293 0001:00021238   295 0001:0002123c   297 0001:00021240
   299 0001:00021244   301 0001:00021248   303 0001:0002124c   305 0001:00021250
   307 0001:00021254   309 0001:00021258   311 0001:0002125f   312 0001:00021261
   314 0001:00021263   323 0001:0002127c   324 0001:0002127f   325 0001:00021280
   327 0001:00021281   331 0001:00021284   333 0001:00021286   334 0001:00021288
   335 0001:0002128b   336 0001:0002128c   337 0001:0002128d   341 0001:00021290
   343 0001:00021292   344 0001:00021294   345 0001:00021297   346 0001:0002129a
   347 0001:0002129d   348 0001:0002129e   349 0001:0002129f   353 0001:000212a4
   355 0001:000212a6   356 0001:000212a8   357 0001:000212ab   358 0001:000212ae
   359 0001:000212b1   360 0001:000212b4   361 0001:000212b7   362 0001:000212b8
   363 0001:000212b9   374 0001:000212bc   375 0001:000212c0   380 0001:000212c4
   381 0001:000212ca   383 0001:000212cc   384 0001:000212cf   386 0001:000212d2
   387 0001:000212d5   389 0001:000212d7   390 0001:000212d8   391 0001:000212da
   393 0001:000212db   397 0001:000212e4   400 0001:000212e6   405 0001:000212f0
   406 0001:000212f2   408 0001:000212f7   409 0001:000212fa   411 0001:000212fc
   412 0001:000212ff   414 0001:00021301   418 0001:00021308   425 0001:0002131c
   426 0001:0002131f   428 0001:00021321   429 0001:00021324   431 0001:00021327
   432 0001:0002132a   434 0001:0002132d   435 0001:00021330   437 0001:00021332
   438 0001:00021333   439 0001:00021335   441 0001:00021336   445 0001:00021340
   446 0001:00021343   448 0001:00021345   449 0001:00021348   451 0001:0002134b
   452 0001:0002134e   454 0001:00021351   455 0001:00021354   457 0001:00021357
   458 0001:0002135a   460 0001:0002135c   461 0001:0002135d   462 0001:0002135f
   464 0001:00021360   468 0001:00021368   469 0001:0002136b   471 0001:0002136d
   472 0001:00021370   474 0001:00021373   475 0001:00021376   477 0001:00021379
   478 0001:0002137c   480 0001:0002137f   481 0001:00021382   483 0001:00021385
   484 0001:00021388   486 0001:0002138e   487 0001:0002138f   488 0001:00021391
   490 0001:00021392   499 0001:000213bc   501 0001:000213c0   503 0001:000213c4
   505 0001:000213c8   507 0001:000213cc   509 0001:000213d0   511 0001:000213d4
   513 0001:000213d8   515 0001:000213dc   517 0001:000213e0   519 0001:000213e4
   521 0001:000213e8   523 0001:000213ec   525 0001:000213f0   527 0001:000213f4
   529 0001:000213fb   530 0001:000213fd   532 0001:000213ff   541 0001:00021418
   543 0001:0002141b   544 0001:0002141c   545 0001:0002141d   549 0001:00021420
   551 0001:00021423   552 0001:00021426   553 0001:00021429   554 0001:0002142a
   555 0001:0002142b   559 0001:00021430   561 0001:00021433   562 0001:00021436
   563 0001:00021439   564 0001:0002143c   565 0001:0002143f   566 0001:00021440
   567 0001:00021441   571 0001:00021444   573 0001:00021447   574 0001:0002144a
   575 0001:0002144d   576 0001:00021450   577 0001:00021453   578 0001:00021456
   579 0001:00021459   580 0001:0002145a   581 0001:0002145b

Line numbers for D:\Program Files\Microsoft Visual Studio .NET 2003\Vc7\lib\LIBCMTD.lib(f:\vs70builds\3077\vc\crtbld\crt\src\vsprintf.c) segment .text

    85 0001:00038450    87 0001:00038456    90 0001:0003845c    96 0001:00038480
    98 0001:00038489    99 0001:00038493   101 0001:000384a4   102 0001:000384bb
   103 0001:000384c1   105 0001:0003850b   106 0001:0003850e

Line numbers for D:\Program Files\Microsoft Visual Studio .NET 2003\Vc7\lib\LIBCMTD.lib(f:\vs70builds\3077\vc\crtbld\crt\src\stream.c) segment .text

    45 0001:0002c9b0    46 0001:0002c9d3    51 0001:0002c9da    52 0001:0002c9e4
    59 0001:0002c9eb    61 0001:0002ca0c    65 0001:0002ca1e    73 0001:0002ca39
    74 0001:0002ca45    75 0001:0002ca58    77 0001:0002ca5d    79 0001:0002ca76
    80 0001:0002ca8d    81 0001:0002caa5    84 0001:0002caaa    85 0001:0002cab9
    88 0001:0002cabe    93 0001:0002cac3    97 0001:0002caf1   103 0001:0002cb11
   104 0001:0002cb27   105 0001:0002cb36   108 0001:0002cb38   110 0001:0002cb4e
   113 0001:0002cb5d   115 0001:0002cb5f   120 0001:0002cb64   121 0001:0002cb6a
   122 0001:0002cb7e   123 0001:0002cb9b   129 0001:0002cbb3   133 0001:0002cbbe
   134 0001:0002cbc1

Line numbers for D:\Program Files\Microsoft Visual Studio .NET 2003\Vc7\lib\LIBCMTD.lib(f:\vs70builds\3077\vc\crtbld\crt\src\sprintf.c) segment .text

    85 0001:000217a0    87 0001:000217a6    91 0001:000217ac    93 0001:000217b2
    94 0001:000217d6    97 0001:000217fa   101 0001:00021804   102 0001:0002180e
   104 0001:0002181f   106 0001:00021836   107 0001:0002183c   109 0001:00021887
   110 0001:0002188a   137 0001:00021890   139 0001:00021896   143 0001:0002189c
   145 0001:000218a2   147 0001:000218c9   148 0001:000218d3   149 0001:000218dd
   151 0001:000218f0   152 0001:00021907   153 0001:0002190a

Line numbers for D:\Program Files\Microsoft Visual Studio .NET 2003\Vc7\lib\LIBCMTD.lib(f:\vs70builds\3077\vc\crtbld\crt\src\sprintf.c) segment .text

    85 0001:00038360    87 0001:00038366    91 0001:0003836c    93 0001:00038372
    94 0001:00038396    99 0001:000383ba   101 0001:000383c3   102 0001:000383cd
   104 0001:000383de   106 0001:000383f5   107 0001:000383fb   109 0001:00038446
   110 0001:00038449

Line numbers for D:\Program Files\Microsoft Visual Studio .NET 2003\Vc7\lib\LIBCMTD.lib(f:\vs70builds\3077\vc\crtbld\crt\src\setvbuf.c) segment .text

    50 0001:00032c70    52 0001:00032c93    54 0001:00032c9a    61 0001:00032cbe
    62 0001:00032cdf    68 0001:00032ce7    73 0001:00032cf0    79 0001:00032cf6
    80 0001:00032d02    86 0001:00032d09    87 0001:00032d15    96 0001:00032d21
   101 0001:00032d33   102 0001:00032d3b   103 0001:00032d4a   104 0001:00032d53
   118 0001:00032d5a   119 0001:00032d62   125 0001:00032d80   127 0001:00032d8d
   128 0001:00032d94   130 0001:00032d96   136 0001:00032da8   137 0001:00032daa
   143 0001:00032dbc   144 0001:00032dc5   145 0001:00032dd6   151 0001:00032dee
   155 0001:00032dfb   156 0001:00032dfe

Line numbers for D:\Program Files\Microsoft Visual Studio .NET 2003\Vc7\lib\LIBCMTD.lib(f:\vs70builds\3077\vc\crtbld\crt\src\output.c) segment .text

   346 0001:00029ba0   377 0001:00029bb1   378 0001:00029bb8   379 0001:00029bc2
   380 0001:00029bcc   383 0001:00029bd3   384 0001:00029c03   385 0001:00029c4a
   388 0001:00029c67   398 0001:00029c8d   399 0001:00029c94   400 0001:00029cac
   401 0001:00029cc6   402 0001:00029cda   405 0001:00029d06   406 0001:00029d20
   410 0001:00029d25   411 0001:00029d3e   412 0001:00029d45   413 0001:00029d4c
   414 0001:00029d53   418 0001:00029d58   420 0001:00029d91   421 0001:00029d9a
   423 0001:00029d9c   424 0001:00029da5   426 0001:00029da7   427 0001:00029db0
   429 0001:00029db2   430 0001:00029dbe   432 0001:00029dc0   435 0001:00029dc9
   439 0001:00029dce   441 0001:00029dda   442 0001:00029de9   444 0001:00029def
   445 0001:00029df8   448 0001:00029e00   450 0001:00029e02   452 0001:00029e16
   457 0001:00029e1b   458 0001:00029e22   462 0001:00029e27   464 0001:00029e33
   465 0001:00029e42   466 0001:00029e48   468 0001:00029e4f   470 0001:00029e51
   472 0001:00029e65   476 0001:00029e6a   478 0001:00029ea7   479 0001:00029eb0
   503 0001:00029eb5   505 0001:00029ecc   506 0001:00029ed5   508 0001:00029ee1
   510 0001:00029efd   511 0001:00029f06   513 0001:00029f12   518 0001:00029f14
   526 0001:00029f56   527 0001:00029f58   528 0001:00029f62   530 0001:00029f67
   533 0001:00029f69   534 0001:00029f72   538 0001:00029f74   542 0001:00029f80
   554 0001:00029f85   557 0001:00029fc2   561 0001:00029fcc   589 0001:00029fd8
   590 0001:00029fe3   592 0001:00029ff6   595 0001:0002a010   596 0001:0002a016
   597 0001:0002a01d   601 0001:0002a01f   603 0001:0002a032   604 0001:0002a03e
   607 0001:0002a045   610 0001:0002a04e   623 0001:0002a053   624 0001:0002a065
   626 0001:0002a07a   627 0001:0002a083   628 0001:0002a092   629 0001:0002a094
   630 0001:0002a09f   631 0001:0002a0ab   632 0001:0002a0bc   633 0001:0002a0c3
   634 0001:0002a0c5   635 0001:0002a0cc   636 0001:0002a0d8   640 0001:0002a0e4
   644 0001:0002a0e9   645 0001:0002a0f3   667 0001:0002a0ff   668 0001:0002a126
   694 0001:0002a135   695 0001:0002a140   696 0001:0002a146   697 0001:0002a14e
   698 0001:0002a155   699 0001:0002a15e   700 0001:0002a184   701 0001:0002a195
   703 0001:0002a1a3   704 0001:0002a1a5   705 0001:0002a1ab   706 0001:0002a1b4
   707 0001:0002a1bd   708 0001:0002a1e3   709 0001:0002a1f4   714 0001:0002a200
   723 0001:0002a205   733 0001:0002a217   734 0001:0002a21f   735 0001:0002a22f
   737 0001:0002a231   739 0001:0002a23f   741 0001:0002a246   746 0001:0002a24b
   747 0001:0002a252   754 0001:0002a262   755 0001:0002a26b   758 0001:0002a274
   759 0001:0002a27a   760 0001:0002a281   761 0001:0002a295   762 0001:0002a29c
   763 0001:0002a2a7   765 0001:0002a2ae   768 0001:0002a2b7   769 0001:0002a2d8
   770 0001:0002a2de   771 0001:0002a2e4   773 0001:0002a2e6   787 0001:0002a2ed
   789 0001:0002a30b   793 0001:0002a32f   794 0001:0002a340   797 0001:0002a34d
   798 0001:0002a364   802 0001:0002a371   803 0001:0002a37c   804 0001:0002a388
   807 0001:0002a391   809 0001:0002a3a0   814 0001:0002a3a5   815 0001:0002a3ae
   816 0001:0002a3b5   819 0001:0002a3b7   820 0001:0002a3be   827 0001:0002a3c0
   837 0001:0002a3c7   838 0001:0002a3d1   842 0001:0002a3d3   846 0001:0002a3dd
   847 0001:0002a3e4   849 0001:0002a3ee   850 0001:0002a3f2   851 0001:0002a3fe
   853 0001:0002a405   857 0001:0002a407   858 0001:0002a40e   860 0001:0002a419
   883 0001:0002a424   884 0001:0002a42f   885 0001:0002a447   895 0001:0002a44c
   896 0001:0002a454   897 0001:0002a45c   898 0001:0002a478   899 0001:0002a47a
   900 0001:0002a496   903 0001:0002a498   904 0001:0002a4a0   905 0001:0002a4b9
   906 0001:0002a4bb   910 0001:0002a4d5   911 0001:0002a4f1   912 0001:0002a510
   913 0001:0002a51c   914 0001:0002a51e   918 0001:0002a536   924 0001:0002a541
   930 0001:0002a55c   931 0001:0002a562   932 0001:0002a569   933 0001:0002a56b
   934 0001:0002a574   935 0001:0002a57d   939 0001:0002a584   940 0001:0002a592
   945 0001:0002a599   947 0001:0002a59f   948 0001:0002a5bd   949 0001:0002a5df
   950 0001:0002a604   952 0001:0002a60d   954 0001:0002a61f   955 0001:0002a633
   957 0001:0002a638   958 0001:0002a641   962 0001:0002a64a   963 0001:0002a665
   964 0001:0002a674   975 0001:0002a67d   978 0001:0002a687   979 0001:0002a68f
   981 0001:0002a69a   982 0001:0002a69e   984 0001:0002a6a5   986 0001:0002a6af
   987 0001:0002a6b3   989 0001:0002a6ba   991 0001:0002a6c4   992 0001:0002a6c8
   998 0001:0002a6cf  1002 0001:0002a6de  1004 0001:0002a6e6  1008 0001:0002a702
  1010 0001:0002a71d  1012 0001:0002a72d  1017 0001:0002a749  1022 0001:0002a75d
  1023 0001:0002a766  1024 0001:0002a76f  1025 0001:0002a788  1026 0001:0002a7c4
  1027 0001:0002a7cd  1028 0001:0002a7cf  1029 0001:0002a7f0  1030 0001:0002a7f5
  1031 0001:0002a7f7  1052 0001:0002a812  1054 0001:0002a81a  1060 0001:0002a836
  1061 0001:0002a83c  1062 0001:0002a84a  1067 0001:0002a851  1069 0001:0002a856
  1070 0001:0002a85c  1126 0001:0002a970  1127 0001:0002a974  1129 0001:0002a988
  1130 0001:0002a995  1135 0001:0002a997  1137 0001:0002a9ef  1138 0001:0002a9f8
  1139 0001:0002a9fa  1140 0001:0002aa07  1191 0001:0002aa10  1192 0001:0002aa13
  1193 0001:0002aa23  1194 0001:0002aa37  1195 0001:0002aa3f  1196 0001:0002aa41
  1197 0001:0002aa43  1251 0001:0002aa50  1252 0001:0002aa54  1254 0001:0002aa68
  1255 0001:0002aa75  1257 0001:0002aa77  1258 0001:0002aa87  1259 0001:0002aaac
  1260 0001:0002aab4  1261 0001:0002aab6  1262 0001:0002aab8  1285 0001:0002aac0
  1286 0001:0002aac3  1287 0001:0002aad8  1318 0001:0002aae0  1319 0001:0002aae3
  1320 0001:0002aafb  1345 0001:0002ab00  1346 0001:0002ab03  1347 0001:0002ab19

Line numbers for D:\Program Files\Microsoft Visual Studio .NET 2003\Vc7\lib\LIBCMTD.lib(f:\vs70builds\3077\vc\crtbld\crt\src\fwrite.c) segment .text

    69 0001:00022160    72 0001:00022183    74 0001:0002218f    76 0001:00022196
    79 0001:000221bf    82 0001:000221cc    83 0001:000221cf    97 0001:000221e0
   107 0001:000221e6   108 0001:000221ec   109 0001:000221fc   110 0001:00022202
   112 0001:00022209   114 0001:00022217   115 0001:00022220   117 0001:00022222
   120 0001:00022229   122 0001:00022233   124 0001:0002224a   125 0001:0002226c
   128 0001:00022282   129 0001:0002228b   130 0001:0002229a   131 0001:000222a7
   133 0001:000222b0   139 0001:000222c1   140 0001:000222ce   143 0001:000222de
   149 0001:000222ee   151 0001:00022312   152 0001:0002232c   154 0001:00022332
   155 0001:00022341   160 0001:00022351   161 0001:0002235a   163 0001:00022363
   165 0001:0002236b   166 0001:0002237a   169 0001:00022387   172 0001:00022389
   173 0001:00022392   175 0001:000223a7   179 0001:000223b4   180 0001:000223bd
   183 0001:000223c6   185 0001:000223e7   188 0001:000223ec   189 0001:000223ef

Line numbers for D:\Program Files\Microsoft Visual Studio .NET 2003\Vc7\lib\LIBCMTD.lib(f:\vs70builds\3077\vc\crtbld\crt\src\fread.c) segment .text

    72 0001:00021cd0    75 0001:00021cf3    76 0001:00021cff    78 0001:00021d06
    81 0001:00021d2f    84 0001:00021d3c    85 0001:00021d3f    99 0001:00021d50
   109 0001:00021d56   111 0001:00021d5c   112 0001:00021d72   114 0001:00021d79
   116 0001:00021d87   117 0001:00021d90   119 0001:00021d92   122 0001:00021d99
   125 0001:00021da3   127 0001:00021dba   128 0001:00021ddc   131 0001:00021df2
   132 0001:00021dfb   133 0001:00021e0a   134 0001:00021e17   136 0001:00021e20
   144 0001:00021e31   146 0001:00021e55   147 0001:00021e6f   149 0001:00021e75
   150 0001:00021e84   152 0001:00021e94   154 0001:00021e9a   155 0001:00021ea9
   159 0001:00021eb6   160 0001:00021ebf   162 0001:00021ec8   165 0001:00021eca
   167 0001:00021edf   171 0001:00021eec   172 0001:00021efd   175 0001:00021f06
   177 0001:00021f0f   180 0001:00021f14   181 0001:00021f17

Line numbers for D:\Program Files\Microsoft Visual Studio .NET 2003\Vc7\lib\LIBCMTD.lib(f:\vs70builds\3077\vc\crtbld\crt\src\fprintf.c) segment .text

    48 0001:00026170    54 0001:00026193    56 0001:00026199    57 0001:000261bd
    60 0001:000261e1    63 0001:000261e7    64 0001:000261f3    67 0001:000261fa
    68 0001:00026209    69 0001:00026220    74 0001:0002623e    78 0001:0002624b
    79 0001:0002624e

Line numbers for D:\Program Files\Microsoft Visual Studio .NET 2003\Vc7\lib\LIBCMTD.lib(f:\vs70builds\3077\vc\crtbld\crt\src\fopen.c) segment .text

    50 0001:00021f20    54 0001:00021f43    55 0001:00021f67    56 0001:00021f8f
    57 0001:00021fb3    62 0001:00021fdb    63 0001:00021fe9    64 0001:00021ff4
    68 0001:00021ff8    75 0001:00021fff    81 0001:00022028    85 0001:00022035
    86 0001:00022038   115 0001:00022050   116 0001:00022053   117 0001:00022065

Line numbers for D:\Program Files\Microsoft Visual Studio .NET 2003\Vc7\lib\LIBCMTD.lib(f:\vs70builds\3077\vc\crtbld\crt\src\fflush.c) segment .text

    58 0001:0002bb10    63 0001:0002bb33    64 0001:0002bb39    66 0001:0002bb45
    68 0001:0002bb51    69 0001:0002bb58    72 0001:0002bb75    75 0001:0002bb82
    76 0001:0002bb85    99 0001:0002bba0   115 0001:0002bba3   117 0001:0002bbb3
   121 0001:0002bbb8   122 0001:0002bbc6   124 0001:0002bbdb   125 0001:0002bbdd
   151 0001:0002bbe0   153 0001:0002bbe6   157 0001:0002bbed   161 0001:0002bbf3
   163 0001:0002bc23   167 0001:0002bc42   168 0001:0002bc50   170 0001:0002bc5f
   171 0001:0002bc61   172 0001:0002bc70   176 0001:0002bc77   177 0001:0002bc82
   179 0001:0002bc8c   180 0001:0002bc8f   202 0001:0002bca0   203 0001:0002bca3
   204 0001:0002bcad   237 0001:0002bcb0   239 0001:0002bcd3   240 0001:0002bcda
   243 0001:0002bce1   244 0001:0002bceb   247 0001:0002bcf2   249 0001:0002bd13
   258 0001:0002bd40   260 0001:0002bd58   266 0001:0002bd5f   269 0001:0002bd75
   275 0001:0002bd7b   279 0001:0002bd95   281 0001:0002bd9e   282 0001:0002bda0
   288 0001:0002bdb9   289 0001:0002bdd3   296 0001:0002bde8   300 0001:0002be02
   305 0001:0002be15   309 0001:0002be20   310 0001:0002be26   312 0001:0002be2b
   313 0001:0002be2e

Line numbers for D:\Program Files\Microsoft Visual Studio .NET 2003\Vc7\lib\LIBCMTD.lib(f:\vs70builds\3077\vc\crtbld\crt\src\fclose.c) segment .text

    45 0001:00021b60    46 0001:00021b83    48 0001:00021b8a    51 0001:00021bae
    52 0001:00021bb9    55 0001:00021bc3    56 0001:00021bc5    57 0001:00021bd1
    58 0001:00021bd8    61 0001:00021bf5    65 0001:00021c02    66 0001:00021c05
    87 0001:00021c20    89 0001:00021c26    92 0001:00021c2d   113 0001:00021c33
   115 0001:00021c57   124 0001:00021c64   125 0001:00021c73   127 0001:00021c7f
   128 0001:00021c92   130 0001:00021c99   139 0001:00021ca4   140 0001:00021cb5
   145 0001:00021cbf   146 0001:00021cc9   147 0001:00021ccc

Line numbers for D:\Program Files\Microsoft Visual Studio .NET 2003\Vc7\lib\LIBCMTD.lib(f:\vs70builds\3077\vc\crtbld\crt\src\closeall.c) segment .text

    43 0001:00033420    44 0001:00033443    48 0001:0003344a    49 0001:00033454
    52 0001:0003345b    54 0001:0003347c    59 0001:0003348a    60 0001:000334ba
    65 0001:000334c3    68 0001:000334c9    70 0001:000334df    71 0001:000334f6
    74 0001:00033506    79 0001:00033519    83 0001:00033524    84 0001:00033527

Line numbers for D:\Program Files\Microsoft Visual Studio .NET 2003\Vc7\lib\LIBCMTD.lib(f:\vs70builds\3077\vc\crtbld\crt\src\_sftbuf.c) segment .text

    61 0001:00032e10    65 0001:00032e16    68 0001:00032e3a    71 0001:00032e40
    72 0001:00032e53    75 0001:00032e5a    76 0001:00032e63    77 0001:00032e6a
    78 0001:00032e75    79 0001:00032e7c    80 0001:00032e7e    84 0001:00032e85
    88 0001:00032e94    89 0001:00032ea1    93 0001:00032ea8    95 0001:00032ee2
    96 0001:00032ef9    98 0001:00032f0d   100 0001:00032f0f   101 0001:00032f2a
   104 0001:00032f3e   106 0001:00032f50   107 0001:00032f55   140 0001:00032f60
   143 0001:00032f64   146 0001:00032f91   148 0001:00032f97   150 0001:00032f9d
   153 0001:00032faa   154 0001:00032fb6   155 0001:00032fc7   156 0001:00032fd1
   180 0001:00032fe4

Line numbers for D:\Program Files\Microsoft Visual Studio .NET 2003\Vc7\lib\LIBCMTD.lib(f:\vs70builds\3077\vc\crtbld\crt\src\_open.c) segment .text

    59 0001:0002c560    61 0001:0002c566    62 0001:0002c56e    63 0001:0002c575
    68 0001:0002c57c    69 0001:0002c5a0    70 0001:0002c5c4    78 0001:0002c5e8
    80 0001:0002c604    81 0001:0002c60b    82 0001:0002c614    84 0001:0002c616
    85 0001:0002c61d    86 0001:0002c626    88 0001:0002c628    89 0001:0002c62f
    90 0001:0002c638    92 0001:0002c63a   102 0001:0002c641   104 0001:0002c648
   105 0001:0002c669   108 0001:0002c696   109 0001:0002c69e   110 0001:0002c6a5
   111 0001:0002c6a7   112 0001:0002c6b0   113 0001:0002c6b9   114 0001:0002c6c5
   116 0001:0002c6ce   119 0001:0002c6d3   120 0001:0002c6de   121 0001:0002c6e5
   122 0001:0002c6e7   123 0001:0002c6f3   126 0001:0002c6f8   127 0001:0002c702
   128 0001:0002c709   129 0001:0002c70b   130 0001:0002c717   133 0001:0002c71c
   134 0001:0002c722   135 0001:0002c729   136 0001:0002c72b   137 0001:0002c732
   139 0001:0002c73e   142 0001:0002c743   143 0001:0002c749   144 0001:0002c750
   145 0001:0002c752   146 0001:0002c759   148 0001:0002c764   151 0001:0002c769
   152 0001:0002c76f   153 0001:0002c776   154 0001:0002c778   155 0001:0002c77f
   157 0001:0002c788   160 0001:0002c78a   161 0001:0002c790   162 0001:0002c797
   163 0001:0002c799   164 0001:0002c7a0   166 0001:0002c7a9   169 0001:0002c7ab
   170 0001:0002c7b5   171 0001:0002c7bc   172 0001:0002c7be   173 0001:0002c7ca
   176 0001:0002c7cc   177 0001:0002c7d4   178 0001:0002c7db   179 0001:0002c7dd
   180 0001:0002c7e6   183 0001:0002c7e8   185 0001:0002c7ef   190 0001:0002c7f4
   191 0001:0002c816   195 0001:0002c81a   198 0001:0002c829   200 0001:0002c82f
   201 0001:0002c838   202 0001:0002c842   204 0001:0002c85f   206 0001:0002c868
   207 0001:0002c86b

Line numbers for D:\Program Files\Microsoft Visual Studio .NET 2003\Vc7\lib\LIBCMTD.lib(f:\vs70builds\3077\vc\crtbld\crt\src\_getbuf.c) segment .text

    43 0001:00038070    46 0001:00038074    50 0001:00038098    54 0001:000380a7
    58 0001:000380ad    61 0001:000380d2    62 0001:000380e1    65 0001:000380eb
    69 0001:000380ed    70 0001:000380fc    71 0001:00038108    75 0001:00038112
    76 0001:0003811d    79 0001:00038127

Line numbers for D:\Program Files\Microsoft Visual Studio .NET 2003\Vc7\lib\LIBCMTD.lib(f:\vs70builds\3077\vc\crtbld\crt\src\_freebuf.c) segment .text

    47 0001:0002ba80    48 0001:0002ba83    50 0001:0002baa7    52 0001:0002bac0
    54 0001:0002bad1    55 0001:0002bae3    56 0001:0002baf6    58 0001:0002bb00

Line numbers for D:\Program Files\Microsoft Visual Studio .NET 2003\Vc7\lib\LIBCMTD.lib(f:\vs70builds\3077\vc\crtbld\crt\src\_flsbuf.c) segment .text

    95 0001:00029940   102 0001:00029946   105 0001:0002996a   106 0001:00029970
   108 0001:00029979   109 0001:00029992   110 0001:000299a1   121 0001:000299a9
   122 0001:000299b4   123 0001:000299be   124 0001:000299c9   125 0001:000299d4
   127 0001:000299e3   128 0001:000299e5   129 0001:000299f4   133 0001:000299fc
   134 0001:00029a0b   135 0001:00029a1a   138 0001:00029a31   148 0001:00029a3f
   150 0001:00029a61   155 0001:00029a6d   157 0001:00029a7f   159 0001:00029aad
   160 0001:00029abb   161 0001:00029ac9   163 0001:00029ad8   164 0001:00029ade
   165 0001:00029af8   166 0001:00029afa   167 0001:00029b2e   170 0001:00029b3e
   177 0001:00029b49   178 0001:00029b4b   180 0001:00029b52   192 0001:00029b69
   193 0001:00029b71   194 0001:00029b80   198 0001:00029b85   203 0001:00029b8d

Line numbers for D:\Program Files\Microsoft Visual Studio .NET 2003\Vc7\lib\LIBCMTD.lib(f:\vs70builds\3077\vc\crtbld\crt\src\_file.c) segment .text

    53 0001:00026260    54 0001:00026263    55 0001:00026268   117 0001:00026270
   126 0001:00026274   127 0001:0002627d   128 0001:00026287   129 0001:00026292
   138 0001:0002629c   139 0001:000262c6   141 0001:000262d0   142 0001:000262fb
   149 0001:00026305   150 0001:0002631d   152 0001:00026336   154 0001:0002634e
   156 0001:00026386   158 0001:00026396   160 0001:00026398   161 0001:0002639a
   189 0001:000263a0   191 0001:000263a3   194 0001:000263a8   195 0001:000263b3
   196 0001:000263b8   219 0001:000263c0   224 0001:000263c3   228 0001:000263d5
   229 0001:000263ec   235 0001:000263ee   236 0001:000263fb   258 0001:00026400
   263 0001:00026403   267 0001:00026409   268 0001:00026418   274 0001:0002641a
   275 0001:00026427   296 0001:00026430   301 0001:00026433   305 0001:00026445
   306 0001:0002645c   312 0001:0002645e   313 0001:0002646b   335 0001:00026470
   340 0001:00026473   344 0001:00026479   345 0001:00026488   351 0001:0002648a
   352 0001:00026497

Line numbers for D:\Program Files\Microsoft Visual Studio .NET 2003\Vc7\lib\LIBCMTD.lib(f:\vs70builds\3077\vc\crtbld\crt\src\_filbuf.c) segment .text

    98 0001:0002be40   102 0001:0002be46   105 0001:0002be6a   107 0001:0002be70
   108 0001:0002be88   110 0001:0002be90   111 0001:0002be9b   112 0001:0002beaa
   115 0001:0002beb2   119 0001:0002bec1   120 0001:0002bece   121 0001:0002beda
   122 0001:0002bedc   124 0001:0002bee7   127 0001:0002bf0a   131 0001:0002bf1c
   132 0001:0002bf38   133 0001:0002bf42   138 0001:0002bf4a   139 0001:0002bf9c
   146 0001:0002bfae   148 0001:0002bfd3   151 0001:0002bfdd   152 0001:0002bfec
   158 0001:0002c00c

Line numbers for D:\Program Files\Microsoft Visual Studio .NET 2003\Vc7\lib\LIBCMTD.lib(f:\vs70builds\3077\vc\crtbld\crt\src\intel\fp8.c) segment .text

    18 0001:000273a0    19 0001:000273a3    20 0001:000273b5

Line numbers for D:\Program Files\Microsoft Visual Studio .NET 2003\Vc7\lib\LIBCMTD.lib(f:\vs70builds\3077\vc\crtbld\crt\src\crt0.c) segment .text

   135 0001:00026c30   150 0001:00026c56   155 0001:00026c6c   156 0001:00026c75
   158 0001:00026c7f   159 0001:00026c8b   160 0001:00026c96   166 0001:00026ca2
   167 0001:00026cb4   168 0001:00026cbd   169 0001:00026ccf   174 0001:00026ce2
   177 0001:00026cea   181 0001:00026cf8   184 0001:00026d02   185 0001:00026d0b
   192 0001:00026d15   200 0001:00026d1a   202 0001:00026d21   203 0001:00026d2a
   218 0001:00026d34   221 0001:00026d3f   223 0001:00026d49   224 0001:00026d52
   225 0001:00026d5c   226 0001:00026d65   229 0001:00026d6f   230 0001:00026d7c
   231 0001:00026d82   235 0001:00026d8e   236 0001:00026d95   242 0001:00026d9f
   251 0001:00026da7   264 0001:00026dda   265 0001:00026de0   267 0001:00026de9
   270 0001:00026df7   276 0001:00026e15   278 0001:00026e1b   279 0001:00026e21
   281 0001:00026e2a   285 0001:00026e36   286 0001:00026e39   312 0001:00026e50
   314 0001:00026e53   318 0001:00026e5c   320 0001:00026e61   321 0001:00026e6d
   322 0001:00026e7b   344 0001:00026e80   346 0001:00026e83   350 0001:00026e8c
   352 0001:00026e91   353 0001:00026e9d   354 0001:00026eaa   377 0001:00026eb0
   383 0001:00026eb6   384 0001:00026ec1   385 0001:00026ecf   388 0001:00026ed6
   389 0001:00026ee2   390 0001:00026eed   392 0001:00026ef1   393 0001:00026efa
   397 0001:00026f17   398 0001:00026f20   401 0001:00026f24   404 0001:00026f37
   406 0001:00026f3d   407 0001:00026f46   410 0001:00026f4a   414 0001:00026f5b
   415 0001:00026f5d

Line numbers for D:\Program Files\Microsoft Visual Studio .NET 2003\Vc7\lib\LIBCMTD.lib(f:\vs70builds\3077\vc\crtbld\crt\src\wincmdln.c) segment .text

    53 0001:00034c20    55 0001:00034c26    61 0001:00034c2d    62 0001:00034c36
    72 0001:00034c3b    76 0001:00034c5b    80 0001:00034c76    82 0001:00034c8d
    83 0001:00034ca0    84 0001:00034ca6    86 0001:00034caf    87 0001:00034cb8
    92 0001:00034cba    93 0001:00034ccf    95 0001:00034cda    96 0001:00034cdd

Line numbers for D:\Program Files\Microsoft Visual Studio .NET 2003\Vc7\lib\LIBCMTD.lib(f:\vs70builds\3077\vc\crtbld\crt\src\tidtable.c) segment .text

    77 0001:00028ec0    78 0001:00028ec3    79 0001:00028ec9   108 0001:00028ed0
   117 0001:00028ed6   118 0001:00028edf   119 0001:00028ee4   126 0001:00028eeb
   127 0001:00028ef9   129 0001:00028f03   132 0001:00028f17   135 0001:00028f2b
   138 0001:00028f3f   139 0001:00028f53   140 0001:00028f5c   142 0001:00028f66
   144 0001:00028f72   146 0001:00028f7e   153 0001:00028f88   154 0001:00028fa1
   155 0001:00028fa6   164 0001:00028faa   166 0001:00028fe3   167 0001:00028fe8
   174 0001:00028fec   176 0001:00028ff8   177 0001:00029003   180 0001:0002900d
   181 0001:00029012   210 0001:00029020   218 0001:00029023   219 0001:0002902c
   220 0001:00029038   227 0001:00029042   229 0001:00029047   255 0001:00029050
   256 0001:00029053   257 0001:0002905d   266 0001:00029067   289 0001:00029070
   294 0001:00029076   295 0001:0002907f   301 0001:00029094   307 0001:000290cd
   309 0001:000290d9   310 0001:000290e4   312 0001:000290ee   313 0001:000290f0
   316 0001:000290fa   319 0001:00029104   320 0001:00029107   348 0001:00029110
   358 0001:00029133   359 0001:00029139   360 0001:00029143   361 0001:0002914c
   363 0001:0002915d   364 0001:00029166   366 0001:00029177   367 0001:00029180
   369 0001:00029191   370 0001:0002919a   372 0001:000291ab   373 0001:000291b4
   375 0001:000291c5   376 0001:000291ce   378 0001:000291df   379 0001:000291eb
   381 0001:000291fc   382 0001:00029206   385 0001:0002920d   386 0001:0002923c
   389 0001:00029258   392 0001:00029263   394 0001:0002926d   395 0001:00029274
   397 0001:00029287   399 0001:00029294   400 0001:0002929d   402 0001:000292b0
   403 0001:000292b9   405 0001:000292cc   406 0001:000292d5   408 0001:000292e8
   409 0001:000292f1   411 0001:00029304   415 0001:0002931f   416 0001:0002933b
   420 0001:00029355   423 0001:00029360   426 0001:0002936e   450 0001:00029390
   457 0001:00029393   464 0001:0002939c   465 0001:000293a2   467 0001:000293b1
   473 0001:000293ba   477 0001:000293c9   502 0001:000293d0   503 0001:000293d3
   504 0001:000293d9   509 0001:000293e0   510 0001:000293e3   511 0001:000293e9

Line numbers for D:\Program Files\Microsoft Visual Studio .NET 2003\Vc7\lib\LIBCMTD.lib(f:\vs70builds\3077\vc\crtbld\crt\src\stdenvp.c) segment .text

    73 0001:00034cf0    81 0001:00034cf6    82 0001:00034cff    85 0001:00034d04
    90 0001:00034d0b    98 0001:00034d13    99 0001:00034d19   108 0001:00034d21
   110 0001:00034d2b   111 0001:00034d36   112 0001:00034d3f   113 0001:00034d55
   117 0001:00034d57   118 0001:00034d88   124 0001:00034d90   127 0001:00034db1
   129 0001:00034dc3   131 0001:00034dce   133 0001:00034df3   134 0001:00034e04
   135 0001:00034e0e   137 0001:00034e13   138 0001:00034e25   140 0001:00034e2e
   146 0001:00034e33   147 0001:00034e43   151 0001:00034e4d   158 0001:00034e56
   161 0001:00034e60   162 0001:00034e62

Line numbers for D:\Program Files\Microsoft Visual Studio .NET 2003\Vc7\lib\LIBCMTD.lib(f:\vs70builds\3077\vc\crtbld\crt\src\stdargv.c) segment .text

    87 0001:00034e70    96 0001:00034e76    97 0001:00034e7f   102 0001:00034e84
   103 0001:00034e8b   107 0001:00034e9d   119 0001:00034ea7   126 0001:00034ed5
   130 0001:00034eed   131 0001:00034f0e   132 0001:00034f14   139 0001:00034f19
   143 0001:00034f3b   147 0001:00034f46   162 0001:00034f4f   163 0001:00034f51
   208 0001:00034f60   215 0001:00034f66   216 0001:00034f6f   219 0001:00034f78
   220 0001:00034f7e   221 0001:00034f84   240 0001:00034f95   242 0001:00034f9c
   244 0001:00034fa7   245 0001:00034fb3   246 0001:00034fc4   248 0001:00034fc6
   249 0001:00034fd3   250 0001:00034fd9   252 0001:00034fec   254 0001:00034ffd
   255 0001:0003500d   256 0001:0003501a   257 0001:00035020   258 0001:00035033
   262 0001:0003503c   264 0001:00035064   265 0001:0003506c   266 0001:00035075
   267 0001:00035077   268 0001:0003507d   271 0001:00035084   276 0001:0003508b
   277 0001:00035095   278 0001:000350ab   281 0001:000350b6   282 0001:000350c0
   285 0001:000350c5   286 0001:000350cb   287 0001:000350dc   301 0001:000350e9
   305 0001:000350f0   306 0001:000350f7   308 0001:00035102   309 0001:0003510b
   310 0001:00035114   311 0001:00035116   314 0001:00035121   315 0001:00035131
   316 0001:00035137   317 0001:00035143   318 0001:0003514c   319 0001:0003514e
   320 0001:00035155   321 0001:00035157   323 0001:0003515e   325 0001:0003516a
   329 0001:00035172   330 0001:00035182   331 0001:00035188   332 0001:00035197
   333 0001:000351a4   336 0001:000351a6   337 0001:000351cc   341 0001:000351d1
   342 0001:000351db   343 0001:000351e1   344 0001:000351f3   345 0001:0003520f
   347 0001:0003521c   348 0001:0003522f   349 0001:00035231   350 0001:00035243
   351 0001:0003524c   354 0001:00035259   356 0001:00035266   365 0001:0003526f
   369 0001:00035274   370 0001:0003527a   371 0001:00035289   372 0001:00035296
   375 0001:0003529b   376 0001:000352a1   377 0001:000352b3   378 0001:000352c0

Line numbers for D:\Program Files\Microsoft Visual Studio .NET 2003\Vc7\lib\LIBCMTD.lib(f:\vs70builds\3077\vc\crtbld\crt\src\mlock.c) segment .text

   122 0001:000294f0   124 0001:000294f6   129 0001:000294fd   130 0001:00029515
   131 0001:00029522   133 0001:00029541   135 0001:0002955d   136 0001:0002956b
   139 0001:0002956f   142 0001:00029571   143 0001:00029576   173 0001:00029580
   179 0001:00029586   181 0001:0002959e   183 0001:000295b8   185 0001:000295c5
   191 0001:000295cf   192 0001:000295dd   194 0001:000295eb   200 0001:000295ed
   202 0001:00029605   204 0001:0002961f   206 0001:0002962c   208 0001:00029636
   209 0001:00029638   244 0001:00029640   248 0001:00029663   249 0001:00029670
   251 0001:0002967a   252 0001:00029699   253 0001:000296a4   256 0001:000296ab
   257 0001:000296b5   259 0001:000296bc   260 0001:000296c9   261 0001:000296de
   262 0001:000296ec   263 0001:0002970c   265 0001:00029711   267 0001:0002971e
   268 0001:00029720   272 0001:0002973c   275 0001:00029747   276 0001:0002974c
   304 0001:00029760   309 0001:00029763   311 0001:00029770   312 0001:00029780
   319 0001:0002978a   320 0001:0002979b   342 0001:000297a0   346 0001:000297a3
   347 0001:000297b4   374 0001:000297c0   375 0001:000297c3   376 0001:000297cf
   377 0001:000297dc

Line numbers for D:\Program Files\Microsoft Visual Studio .NET 2003\Vc7\lib\LIBCMTD.lib(f:\vs70builds\3077\vc\crtbld\crt\src\crt0msg.c) segment .text

   137 0001:00035630   140 0001:00035633   142 0001:0003564e   143 0001:0003565b
   144 0001:00035664   145 0001:0003566a   147 0001:00035677   171 0001:00035680
   175 0001:00035692   176 0001:000356aa   177 0001:000356b9   179 0001:000356bb
   192 0001:000356d0   194 0001:000356e2   195 0001:00035702   200 0001:00035703
   206 0001:0003571e   208 0001:00035752   215 0001:00035764   216 0001:00035768
   217 0001:00035780   219 0001:00035794   221 0001:0003579d   223 0001:000357b1
   224 0001:000357ca   231 0001:000357dd   233 0001:0003581c   234 0001:0003582d
   235 0001:0003583d   236 0001:0003584e   240 0001:00035865   245 0001:0003587b
   268 0001:00035890   271 0001:00035894   272 0001:000358ac   273 0001:000358bb
   275 0001:000358bd   276 0001:000358ce   278 0001:000358da   279 0001:000358dc

Line numbers for D:\Program Files\Microsoft Visual Studio .NET 2003\Vc7\lib\LIBCMTD.lib(f:\vs70builds\3077\vc\crtbld\crt\src\crt0fp.c) segment .text

    46 0001:00037280    47 0001:00037283    48 0001:0003728d

Line numbers for D:\Program Files\Microsoft Visual Studio .NET 2003\Vc7\lib\LIBCMTD.lib(f:\vs70builds\3077\vc\crtbld\crt\src\crt0dat.c) segment .text

   181 0001:0002b5f0   198 0001:0002b5f4   199 0001:0002b5fd   205 0001:0002b60a
   206 0001:0002b61f   207 0001:0002b625   210 0001:0002b62a   215 0001:0002b637
   217 0001:0002b649   218 0001:0002b64b   302 0001:0002b650   303 0001:0002b653
   304 0001:0002b663   310 0001:0002b670   311 0001:0002b673   312 0001:0002b683
   317 0001:0002b690   318 0001:0002b693   319 0001:0002b6a1   324 0001:0002b6b0
   325 0001:0002b6b3   326 0001:0002b6c1   335 0001:0002b6d0   341 0001:0002b6f3
   342 0001:0002b6f8   345 0001:0002b6ff   346 0001:0002b708   347 0001:0002b719
   350 0001:0002b723   352 0001:0002b72c   368 0001:0002b732   369 0001:0002b73b
   374 0001:0002b757   375 0001:0002b762   376 0001:0002b76a   381 0001:0002b76c
   387 0001:0002b77e   392 0001:0002b790   394 0001:0002b7a8   395 0001:0002b7b2
   404 0001:0002b7c5   405 0001:0002b7cb   408 0001:0002b7d1   409 0001:0002b7d7
   412 0001:0002b7d9   414 0001:0002b7e3   415 0001:0002b7ef   444 0001:0002b800
   448 0001:0002b806   449 0001:0002b814   450 0001:0002b81a   451 0001:0002b82c
   452 0001:0002b832   463 0001:0002b839   464 0001:0002b843   514 0001:0002b850
   515 0001:0002b853   516 0001:0002b85d   540 0001:0002b860   541 0001:0002b863
   542 0001:0002b86d   586 0001:0002b870   593 0001:0002b873   598 0001:0002b87b
   599 0001:0002b883   600 0001:0002b888   601 0001:0002b891   602 0001:0002b893
   635 0001:0002b8a0   636 0001:0002b8a4   644 0001:0002b8ab   649 0001:0002b8b9
   650 0001:0002b8c1   651 0001:0002b8c9   652 0001:0002b8d2   654 0001:0002b8d4
   655 0001:0002b8d7

Line numbers for D:\Program Files\Microsoft Visual Studio .NET 2003\Vc7\lib\LIBCMTD.lib(F:\VS70Builds\3077\vc\crtbld\crt\src\intel\chkstk.asm) segment .text

    69 0001:000355f0    65 0001:000355f0    70 0001:000355f5    72 0001:000355f7
    73 0001:000355f9    74 0001:000355fb    75 0001:000355fe    76 0001:00035600
    77 0001:00035601    78 0001:00035603    79 0001:00035604    82 0001:00035605
    83 0001:00035606    88 0001:0003560a    89 0001:00035610    91 0001:00035615
    93 0001:00035617    94 0001:0003561c    97 0001:0003561e    98 0001:00035620
   100 0001:00035622   102 0001:00035624   104 0001:00035626   105 0001:00035628
   107 0001:0003562b   109 0001:0003562c

Line numbers for D:\Program Files\Microsoft Visual Studio .NET 2003\Vc7\lib\LIBCMTD.lib(f:\vs70builds\3077\vc\crtbld\crt\src\wtombenv.c) segment .text

    43 0001:00042e60    44 0001:00042e66    45 0001:00042e6d    52 0001:00042e75
    57 0001:00042e81    58 0001:00042ea4    61 0001:00042eac    62 0001:00042eca
    65 0001:00042ecf    67 0001:00042ef1    68 0001:00042eff    72 0001:00042f04
    74 0001:00042f16    76 0001:00042f1c    77 0001:00042f2a    81 0001:00042f31
    82 0001:00042f3a    84 0001:00042f3f    85 0001:00042f41

Line numbers for D:\Program Files\Microsoft Visual Studio .NET 2003\Vc7\lib\LIBCMTD.lib(f:\vs70builds\3077\vc\crtbld\crt\src\winxfltr.c) segment .text

   160 0001:000349d0   161 0001:000349d3   162 0001:000349dc   164 0001:000349ee
   166 0001:000349f0   219 0001:00034a00   227 0001:00034a06   236 0001:00034a0e
   245 0001:00034a33   252 0001:00034a42   257 0001:00034a4b   258 0001:00034a55
   264 0001:00034a5f   268 0001:00034a68   277 0001:00034a70   283 0001:00034a79
   284 0001:00034a82   293 0001:00034a8b   301 0001:00034a98   305 0001:00034abc
   309 0001:00034ad0   316 0001:00034ad2   335 0001:00034adb   337 0001:00034ae6
   339 0001:00034af0   341 0001:00034b00   343 0001:00034b0a   345 0001:00034b17
   347 0001:00034b21   349 0001:00034b2e   351 0001:00034b38   353 0001:00034b45
   355 0001:00034b4f   357 0001:00034b5c   359 0001:00034b66   361 0001:00034b73
   370 0001:00034b7d   375 0001:00034b8c   377 0001:00034b95   382 0001:00034b97
   383 0001:00034ba1   389 0001:00034bae   391 0001:00034bb7   393 0001:00034bba
   432 0001:00034bc0   434 0001:00034bc4   445 0001:00034bca   462 0001:00034bf0
   463 0001:00034c0b   465 0001:00034c0f   466 0001:00034c12

Line numbers for D:\Program Files\Microsoft Visual Studio .NET 2003\Vc7\lib\LIBCMTD.lib(f:\vs70builds\3077\vc\crtbld\crt\src\winsig.c) segment .text

   216 0001:00031f80   227 0001:00031fa3   228 0001:00031faf   241 0001:00031fb4
   244 0001:00031fd0   245 0001:00031fda   253 0001:00031fe1   255 0001:00031ff6
   256 0001:00032008   257 0001:00032012   258 0001:00032014   259 0001:00032031
   262 0001:00032036   265 0001:0003205c   266 0001:00032065   267 0001:0003206d
   270 0001:0003206f   271 0001:00032078   272 0001:00032081   275 0001:00032083
   276 0001:0003208b   277 0001:00032094   280 0001:00032096   281 0001:0003209f
   283 0001:000320a7   288 0001:000320b5   291 0001:000320c0   306 0001:000320c5
   307 0001:000320d7   314 0001:000320dc   320 0001:000320e4   324 0001:000320f0
   330 0001:0003211a   331 0001:00032134   336 0001:00032136   347 0001:00032138
   351 0001:00032154   363 0001:00032156   370 0001:0003215f   375 0001:0003216a
   382 0001:00032173   386 0001:00032190   387 0001:00032192   390 0001:00032194
   393 0001:00032199   394 0001:000321a4   395 0001:000321a7    79 0001:000321f0
    85 0001:00032213    86 0001:0003221d    94 0001:00032224    95 0001:0003222a
    96 0001:00032239    98 0001:00032240    99 0001:00032242   100 0001:00032251
   104 0001:00032258   108 0001:00032264   112 0001:0003227b   116 0001:00032286
   120 0001:0003228c   122 0001:00032290   129 0001:00032296   136 0001:000322a0
   137 0001:000322a5   424 0001:000322c0   432 0001:000322e3   436 0001:000322ea
   439 0001:00032314   441 0001:00032323   443 0001:0003232c   446 0001:00032331
   448 0001:00032340   450 0001:00032349   453 0001:0003234b   455 0001:0003235a
   457 0001:00032363   460 0001:00032365   462 0001:00032374   464 0001:0003237d
   470 0001:0003237f   472 0001:00032387   477 0001:000323a8   483 0001:000323aa
   489 0001:000323b2   490 0001:000323b8   495 0001:000323bf   500 0001:000323c5
   508 0001:000323cc   509 0001:000323d2   511 0001:000323dc   525 0001:000323e3
   527 0001:000323f5   528 0001:000323fe   538 0001:00032408   540 0001:0003240e
   541 0001:00032417   553 0001:00032421   560 0001:00032427   564 0001:0003244b
   568 0001:0003245f   569 0001:00032461   570 0001:00032463   575 0001:0003247a
   576 0001:00032480   580 0001:0003248b   587 0001:00032491   591 0001:000324a0
   592 0001:000324a2   599 0001:000324ac   601 0001:000324be   609 0001:000324c7
   611 0001:000324cd   617 0001:000324d6   618 0001:000324d8   645 0001:00032520
   646 0001:00032524   664 0001:0003252a   678 0001:00032551   682 0001:0003256d
   687 0001:00032572   688 0001:00032574   709 0001:00032580   710 0001:00032583
   711 0001:0003258b   731 0001:00032590   732 0001:00032593   733 0001:0003259b

Line numbers for D:\Program Files\Microsoft Visual Studio .NET 2003\Vc7\lib\LIBCMTD.lib(f:\vs70builds\3077\vc\crtbld\crt\src\w_loc.c) segment .text

    57 0001:00042970    65 0001:00042996    67 0001:0004299f    68 0001:000429b1
    70 0001:000429bb    71 0001:000429c8    76 0001:000429d2    78 0001:000429db
    83 0001:000429f6    85 0001:00042a0c    88 0001:00042a13    94 0001:00042a1a
    95 0001:00042a20    98 0001:00042a29    99 0001:00042a44   102 0001:00042a4b
   103 0001:00042a52   105 0001:00042a75   106 0001:00042a7e   107 0001:00042a83
   110 0001:00042a91   112 0001:00042a97   113 0001:00042ab5   114 0001:00042ab9
   118 0001:00042ac2   119 0001:00042adc   121 0001:00042ade   129 0001:00042ae4
   131 0001:00042afd   138 0001:00042aff   142 0001:00042b1c   143 0001:00042b22
   145 0001:00042b30   149 0001:00042b35   150 0001:00042b37

Line numbers for D:\Program Files\Microsoft Visual Studio .NET 2003\Vc7\lib\LIBCMTD.lib(f:\vs70builds\3077\vc\crtbld\crt\src\convrtcp.c) segment .text

    39 0001:00041ac0    42 0001:00041ace    44 0001:00041ad2    45 0001:00041aeb
    46 0001:00041af2    47 0001:00041af4    48 0001:00041b03    49 0001:00041b06
    79 0001:00041b20    81 0001:00041b4e    82 0001:00041b55    84 0001:00041b5c
    85 0001:00041b64    87 0001:00041b6b    91 0001:00041b77    93 0001:00041b89
    94 0001:00041ba1    95 0001:00041ba7    98 0001:00041bae   100 0001:00041bb4
   101 0001:00041bba   102 0001:00041bc0   104 0001:00041bc2   112 0001:00041bd4
   113 0001:00041bfb   116 0001:00041c02   117 0001:00041c09   118 0001:00041c25
   120 0001:00041c42   121 0001:00041c4b   122 0001:00041c50   125 0001:00041c5e
   126 0001:00041c64   127 0001:00041c84   128 0001:00041c8b   137 0001:00041c94
   139 0001:00041cb8   148 0001:00041cbe   149 0001:00041ce2   150 0001:00041ce8
   159 0001:00041ced   161 0001:00041d18   170 0001:00041d3b   172 0001:00041d64
   173 0001:00041d72   174 0001:00041d79   175 0001:00041d7b   176 0001:00041d81
   183 0001:00041d89   184 0001:00041d8f   185 0001:00041d9d   186 0001:00041da0

Line numbers for D:\Program Files\Microsoft Visual Studio .NET 2003\Vc7\lib\LIBCMTD.lib(f:\vs70builds\3077\vc\crtbld\crt\src\setlocal.c) segment .text

   243 0001:00030a30   244 0001:00030a33   245 0001:00030a38   255 0001:00030a40
   256 0001:00030a43   257 0001:00030a48   305 0001:00030a50   311 0001:00030a53
   315 0001:00030a81   317 0001:00030aa3   318 0001:00030ab4   323 0001:00030ac3
   325 0001:00030ae5   326 0001:00030af6   329 0001:00030b05   330 0001:00030b16
   338 0001:00030b27   340 0001:00030b49   341 0001:00030b5a   349 0001:00030b71
   351 0001:00030b97   352 0001:00030ba6   358 0001:00030bb7   359 0001:00030bc5
   381 0001:00030bd0   384 0001:00030bf3   385 0001:00030bfd   387 0001:00030c04
   391 0001:00030c1a   394 0001:00030c25   395 0001:00030c28   398 0001:00030c40
   400 0001:00030c46   402 0001:00030c4e   408 0001:00030c66   410 0001:00030c70
   412 0001:00030c7d   413 0001:00030c86   415 0001:00030c99   416 0001:00030ca2
   418 0001:00030cb5   419 0001:00030cbe   421 0001:00030cd1   422 0001:00030cda
   424 0001:00030ced   431 0001:00030d08   432 0001:00030d13   434 0001:00030d25
   435 0001:00030d31   437 0001:00030d4a   438 0001:00030d56   440 0001:00030d6f
   441 0001:00030d7b   443 0001:00030d94   444 0001:00030da0   446 0001:00030db9
   455 0001:00030dda   456 0001:00030df1   459 0001:00030dfd   460 0001:00030e03
   530 0001:00030e10   537 0001:00030e33   538 0001:00030e3f   540 0001:00030e46
   542 0001:00030e50   544 0001:00030e57   545 0001:00030e5d   547 0001:00030e84
   548 0001:00030ea3   550 0001:00030eaa   552 0001:00030ed1   553 0001:00030eda
   554 0001:00030ee5   556 0001:00030ef1   557 0001:00030f09   559 0001:00030f1f
   560 0001:00030f2b   562 0001:00030f37   563 0001:00030f42   564 0001:00030f4e
   565 0001:00030f5a   566 0001:00030f65   568 0001:00030f71   569 0001:00030f7d
   570 0001:00030f88   572 0001:00030f94   573 0001:00030fa0   576 0001:00030fab
   577 0001:00030fc2   579 0001:00030fd1   581 0001:00030fd9   584 0001:00030fde
   585 0001:00030fea   589 0001:00031006   592 0001:00031011   593 0001:00031014
   599 0001:00031030   608 0001:00031041   611 0001:00031047   613 0001:00031080
   616 0001:00031085   617 0001:0003108f   619 0001:00031099   621 0001:000310a3
   625 0001:000310d2   629 0001:000310db   631 0001:000310f5   632 0001:00031120
   635 0001:00031127   638 0001:0003114b   640 0001:00031195   642 0001:00031197
   644 0001:00031199   645 0001:000311d9   647 0001:000311e0   649 0001:000311e9
   650 0001:00031206   653 0001:00031214   654 0001:0003122e   656 0001:0003123d
   657 0001:0003125c   659 0001:0003126b   661 0001:0003127c   663 0001:000312a5
   666 0001:000312aa   668 0001:000312d2   670 0001:000312f6   672 0001:000312ff
   674 0001:00031322   676 0001:0003133c   678 0001:0003134b   680 0001:0003134d
   683 0001:00031357   684 0001:00031359   686 0001:00031368   687 0001:0003136d
   689 0001:00031376   691 0001:0003137e   692 0001:0003138f   694 0001:00031399
   695 0001:0003139b   698 0001:000313c4   699 0001:000313c6   704 0001:000313ce
   706 0001:000313d1   713 0001:000313e0   729 0001:000313f1   731 0001:0003141a
   733 0001:00031421   735 0001:00031441   738 0001:00031452   740 0001:00031488
   743 0001:0003148f   744 0001:000314a1   745 0001:000314b1   746 0001:000314cf
   749 0001:000314db   750 0001:000314fd   751 0001:0003150e   760 0001:0003152c
   762 0001:00031536   763 0001:00031541   768 0001:00031559   770 0001:00031581
   775 0001:00031596   777 0001:0003159f   778 0001:000315bf   780 0001:000315df
   784 0001:000315e1   785 0001:00031601   786 0001:00031621   788 0001:00031639
   789 0001:0003163e   797 0001:0003164b   801 0001:00031676   804 0001:0003169a
   805 0001:000316bc   806 0001:000316be   808 0001:000316db   810 0001:000316e5
   812 0001:000316e7   815 0001:000316f1   817 0001:000316f3   819 0001:000316fd
   821 0001:00031709   824 0001:00031715   826 0001:0003171b   829 0001:00031726
   832 0001:00031736   833 0001:00031748   834 0001:00031759   835 0001:00031769
   837 0001:00031775   843 0001:00031779   844 0001:00031785   846 0001:00031796
   848 0001:000317a2   855 0001:000317b0   857 0001:000317b6   862 0001:000317bd
   863 0001:000317ed   865 0001:000317f4   866 0001:000317fc   868 0001:0003180e
   869 0001:0003183d   871 0001:00031843   872 0001:00031857   873 0001:00031880
   875 0001:00031887   877 0001:00031889   878 0001:0003188f   881 0001:00031896
   882 0001:000318a6   883 0001:000318b0   886 0001:000318b7   887 0001:000318bc
   897 0001:000318c0   903 0001:000318d1   904 0001:000318d7   908 0001:000318de
   910 0001:000318f4   911 0001:000318fa   912 0001:00031901   914 0001:00031907
   915 0001:0003190f   916 0001:00031918   918 0001:00031921   920 0001:00031927
   922 0001:00031930   927 0001:00031938   931 0001:0003197d   933 0001:00031987
   934 0001:0003199e   937 0001:000319a5   938 0001:000319c4   942 0001:000319cb
   944 0001:000319d8   946 0001:000319ec   948 0001:00031a09   950 0001:00031a12
   953 0001:00031a14   957 0001:00031a1e   959 0001:00031a25   963 0001:00031a3e
   964 0001:00031a44   965 0001:00031a57   966 0001:00031a5d   968 0001:00031a70
   969 0001:00031a81   970 0001:00031a86   975 0001:00031aa0   976 0001:00031aa3
   977 0001:00031aa5   985 0001:00031ab0   989 0001:00031ab6   991 0001:00031abc
   993 0001:00031ad6   994 0001:00031af2   995 0001:00031af4   996 0001:00031afb
  1003 0001:00031b00  1008 0001:00031b06  1010 0001:00031b19  1011 0001:00031b23
  1014 0001:00031b2a  1016 0001:00031b40  1018 0001:00031b5b  1019 0001:00031b65
  1022 0001:00031b6c  1024 0001:00031b7e  1025 0001:00031b98  1027 0001:00031ba0
  1029 0001:00031bab  1030 0001:00031bc0  1032 0001:00031bd4  1033 0001:00031beb
  1035 0001:00031c02  1036 0001:00031c21  1038 0001:00031c3b  1039 0001:00031c3d
  1041 0001:00031c42  1046 0001:00031c4b  1049 0001:00031c4d  1050 0001:00031c55
  1051 0001:00031c57  1052 0001:00031c64  1053 0001:00031c69  1054 0001:00031c6b
  1061 0001:00031c70  1062 0001:00031c73  1063 0001:00031c83  1064 0001:00031c8e
  1065 0001:00031ca8  1066 0001:00031cb6  1069 0001:00031cd3

Line numbers for D:\Program Files\Microsoft Visual Studio .NET 2003\Vc7\lib\LIBCMTD.lib(f:\vs70builds\3077\vc\crtbld\crt\src\setenv.c) segment .text

    74 0001:00043510    79 0001:00043517    81 0001:0004351e    87 0001:00043525
    90 0001:0004352b    91 0001:0004354d    93 0001:00043555   100 0001:0004355d
   101 0001:00043582   107 0001:0004358a   118 0001:00043599   119 0001:000435a7
   123 0001:000435ba   141 0001:000435c7   143 0001:000435d6   144 0001:000435df
   147 0001:000435e7   149 0001:000435ec   150 0001:000435f2   154 0001:000435f9
   156 0001:00043602   157 0001:00043626   158 0001:0004362e   161 0001:0004363a
   163 0001:00043643   164 0001:00043667   165 0001:0004366f   181 0001:0004367b
   187 0001:00043683   190 0001:00043699   196 0001:000436af   198 0001:000436c3
   201 0001:000436c9   202 0001:000436e0   203 0001:000436f3   209 0001:000436f5
   210 0001:00043720   212 0001:00043728   214 0001:0004372a   217 0001:00043736
   220 0001:0004373f   224 0001:00043744   229 0001:0004374a   230 0001:00043750
   233 0001:00043758   234 0001:00043787   236 0001:0004378f   237 0001:0004379b
   240 0001:000437a9   242 0001:000437b2   244 0001:000437ba   249 0001:000437bc
   252 0001:000437ca   254 0001:000437d3   265 0001:000437da   267 0001:00043811
   268 0001:00043821   269 0001:0004382d   316 0001:0004383c   317 0001:00043858
   319 0001:0004385f   322 0001:0004386d   324 0001:00043873   327 0001:00043881
   328 0001:00043884   359 0001:00043890   362 0001:00043894   366 0001:000438af
   371 0001:000438c9   372 0001:000438ea   377 0001:000438f8   379 0001:000438fa
   380 0001:00043908   400 0001:00043910   401 0001:00043916   402 0001:0004391d
   406 0001:00043923   407 0001:00043929   410 0001:00043930   411 0001:00043942
   415 0001:0004394d   416 0001:0004397b   419 0001:00043985   420 0001:0004398b
   424 0001:00043993   425 0001:000439c6   426 0001:000439da   427 0001:000439e3
   428 0001:000439ec   433 0001:000439ee   435 0001:000439f7   436 0001:000439fa

Line numbers for D:\Program Files\Microsoft Visual Studio .NET 2003\Vc7\lib\LIBCMTD.lib(f:\vs70builds\3077\vc\crtbld\crt\src\rand.c) segment .text

    40 0001:00022110    43 0001:00022113    48 0001:0002211e    70 0001:00022120
    73 0001:00022124    76 0001:0002212c    81 0001:00022152

Line numbers for D:\Program Files\Microsoft Visual Studio .NET 2003\Vc7\lib\LIBCMTD.lib(f:\vs70builds\3077\vc\crtbld\crt\src\purevirt.c) segment .text

    43 0001:00021750    44 0001:00021753    46 0001:0002175c    53 0001:00021762
    54 0001:0002176c    78 0001:00021770    79 0001:00021774    81 0001:0002177b
    82 0001:00021783    84 0001:0002178c    85 0001:0002178f

Line numbers for D:\Program Files\Microsoft Visual Studio .NET 2003\Vc7\lib\LIBCMTD.lib(f:\vs70builds\3077\vc\crtbld\crt\src\onexit.c) segment .text

    89 0001:00021910    93 0001:00021933    95 0001:00021938    96 0001:0002193f
    99 0001:0002195c   102 0001:00021962   103 0001:00021965   109 0001:00021980
   119 0001:00021986   125 0001:000219b1   131 0001:000219f1   135 0001:00021a1b
   141 0001:00021a1f   142 0001:00021a39   149 0001:00021a42   151 0001:00021a5c
   152 0001:00021a5f   157 0001:00021a70   158 0001:00021a73   159 0001:00021a86
   197 0001:00021a90   198 0001:00021a93   203 0001:00021aba   205 0001:00021ac1
   206 0001:00021acc   208 0001:00021ad8   209 0001:00021ada

Line numbers for D:\Program Files\Microsoft Visual Studio .NET 2003\Vc7\lib\LIBCMTD.lib(f:\vs70builds\3077\vc\crtbld\crt\src\lconv.c) segment .text

    68 0001:0003afc0    71 0001:0003afc3    72 0001:0003afc8

Line numbers for D:\Program Files\Microsoft Visual Studio .NET 2003\Vc7\lib\LIBCMTD.lib(f:\vs70builds\3077\vc\crtbld\crt\src\inittime.c) segment .text

    61 0001:0003afd0    65 0001:0003afd4    69 0001:0003afdd    70 0001:0003affe
    72 0001:0003b005    74 0001:0003b015    75 0001:0003b021    76 0001:0003b02f
    79 0001:0003b036    84 0001:0003b03e    85 0001:0003b047    88 0001:0003b04b
    93 0001:0003b055    94 0001:0003b05f    96 0001:0003b061   105 0001:0003b070
   106 0001:0003b076   111 0001:0003b07d   112 0001:0003b087   114 0001:0003b091
   115 0001:0003b097   119 0001:0003b09f   120 0001:0003b0bc   121 0001:0003b0d9
   122 0001:0003b0f6   123 0001:0003b113   124 0001:0003b130   125 0001:0003b14d
   127 0001:0003b167   128 0001:0003b184   129 0001:0003b1a1   130 0001:0003b1be
   131 0001:0003b1db   132 0001:0003b1f8   133 0001:0003b215   135 0001:0003b232
   136 0001:0003b24f   137 0001:0003b26c   138 0001:0003b289   139 0001:0003b2a6
   140 0001:0003b2c3   141 0001:0003b2e0   142 0001:0003b2fd   143 0001:0003b31a
   144 0001:0003b337   145 0001:0003b354   146 0001:0003b371   148 0001:0003b38e
   149 0001:0003b3ab   150 0001:0003b3c8   151 0001:0003b3e5   152 0001:0003b402
   153 0001:0003b41f   154 0001:0003b43c   155 0001:0003b45b   156 0001:0003b47b
   157 0001:0003b49b   158 0001:0003b4ba   159 0001:0003b4da   161 0001:0003b4fa
   162 0001:0003b519   167 0001:0003b539   168 0001:0003b559   170 0001:0003b578
   172 0001:0003b59b   174 0001:0003b5be   176 0001:0003b5ca   177 0001:0003b5cd
   186 0001:0003b5e0   187 0001:0003b5e3   188 0001:0003b5e9   190 0001:0003b5ee
   191 0001:0003b5ff   192 0001:0003b610   193 0001:0003b621   194 0001:0003b632
   195 0001:0003b643   196 0001:0003b654   198 0001:0003b664   199 0001:0003b675
   200 0001:0003b686   201 0001:0003b697   202 0001:0003b6a8   203 0001:0003b6b9
   204 0001:0003b6ca   206 0001:0003b6db   207 0001:0003b6ec   208 0001:0003b6fd
   209 0001:0003b70e   210 0001:0003b71f   211 0001:0003b730   212 0001:0003b741
   213 0001:0003b752   214 0001:0003b763   215 0001:0003b774   216 0001:0003b785
   217 0001:0003b796   219 0001:0003b7a7   220 0001:0003b7b8   221 0001:0003b7c9
   222 0001:0003b7da   223 0001:0003b7eb   224 0001:0003b7fc   225 0001:0003b80d
   226 0001:0003b821   227 0001:0003b835   228 0001:0003b849   229 0001:0003b85d
   230 0001:0003b871   232 0001:0003b885   233 0001:0003b899   235 0001:0003b8ad
   236 0001:0003b8c1   237 0001:0003b8d5   239 0001:0003b8e9

Line numbers for D:\Program Files\Microsoft Visual Studio .NET 2003\Vc7\lib\LIBCMTD.lib(f:\vs70builds\3077\vc\crtbld\crt\src\initnum.c) segment .text

    95 0001:0003b8f0    97 0001:0003b8f8   104 0001:0003b8ff   110 0001:0003b915
   111 0001:0003b933   116 0001:0003b93d   122 0001:0003b94d   124 0001:0003b969
   125 0001:0003b977   127 0001:0003b981   130 0001:0003b98a   136 0001:0003b997
   138 0001:0003b9bb   139 0001:0003b9c9   140 0001:0003b9d7   142 0001:0003b9e1
   149 0001:0003b9ed   152 0001:0003b9f7   154 0001:0003ba11   156 0001:0003ba2e
   158 0001:0003ba4b   160 0001:0003ba4d   161 0001:0003ba59   163 0001:0003ba67
   165 0001:0003ba75   168 0001:0003ba7d   170 0001:0003ba8c   178 0001:0003ba8e
   180 0001:0003ba98   181 0001:0003baa2   182 0001:0003baae   195 0001:0003baba
   197 0001:0003bade   198 0001:0003baef   200 0001:0003baff   212 0001:0003bb08
   215 0001:0003bb1b   226 0001:0003bb1d   228 0001:0003bb41   229 0001:0003bb52
   234 0001:0003bb63   235 0001:0003bb6d   246 0001:0003bb77   247 0001:0003bb81
   254 0001:0003bb8b   255 0001:0003bb9a   257 0001:0003bba4   259 0001:0003bba6
    43 0001:0003bbb0    51 0001:0003bbb4    54 0001:0003bbbe    56 0001:0003bbd4
    57 0001:0003bbe2    61 0001:0003bbeb    63 0001:0003bbf8    66 0001:0003bbfe
    67 0001:0003bc09    71 0001:0003bc1c    72 0001:0003bc1e    73 0001:0003bc27
    74 0001:0003bc29   268 0001:0003bc30   269 0001:0003bc33   270 0001:0003bc39
   274 0001:0003bc3e   278 0001:0003bc5a   282 0001:0003bc6a   286 0001:0003bc89
   290 0001:0003bc9a   294 0001:0003bcb8   295 0001:0003bcc9

Line numbers for D:\Program Files\Microsoft Visual Studio .NET 2003\Vc7\lib\LIBCMTD.lib(f:\vs70builds\3077\vc\crtbld\crt\src\initmon.c) segment .text

    81 0001:0003bcd0    90 0001:0003bcd8    96 0001:0003bcee    97 0001:0003bd0c
   103 0001:0003bd16   105 0001:0003bd32   106 0001:0003bd40   108 0001:0003bd4a
   111 0001:0003bd53   117 0001:0003bd60   119 0001:0003bd81   120 0001:0003bd8f
   121 0001:0003bd9d   123 0001:0003bda7   130 0001:0003bdb3   132 0001:0003bdbd
   135 0001:0003bdc4   137 0001:0003bde1   139 0001:0003bdfe   141 0001:0003be1b
   143 0001:0003be38   146 0001:0003be55   148 0001:0003be72   151 0001:0003be8f
   153 0001:0003beac   155 0001:0003bec9   157 0001:0003bee6   159 0001:0003bf03
   161 0001:0003bf20   163 0001:0003bf3d   165 0001:0003bf5a   167 0001:0003bf77
   168 0001:0003bf79   169 0001:0003bf85   171 0001:0003bf93   173 0001:0003bfa1
   176 0001:0003bfab   178 0001:0003bfba   188 0001:0003bfbc   193 0001:0003bfcb
   200 0001:0003bfd5   201 0001:0003bfe1   202 0001:0003bfef   204 0001:0003bffd
   206 0001:0003c006   211 0001:0003c00e   214 0001:0003c017   222 0001:0003c019
   223 0001:0003c023   228 0001:0003c02d   229 0001:0003c037   233 0001:0003c041
   234 0001:0003c043   239 0001:0003c050   247 0001:0003c054   250 0001:0003c05e
   252 0001:0003c074   253 0001:0003c082   257 0001:0003c08b   259 0001:0003c098
   262 0001:0003c09e   263 0001:0003c0a9   267 0001:0003c0bc   268 0001:0003c0be
   269 0001:0003c0c7   270 0001:0003c0c9   280 0001:0003c0d0   281 0001:0003c0d3
   282 0001:0003c0d9   286 0001:0003c0de   290 0001:0003c0fd   294 0001:0003c10e
   298 0001:0003c12d   302 0001:0003c13e   306 0001:0003c15c   310 0001:0003c16d
   314 0001:0003c18c   318 0001:0003c19d   322 0001:0003c1bc   326 0001:0003c1cd
   330 0001:0003c1eb   334 0001:0003c1fc   338 0001:0003c21b   339 0001:0003c22c

Line numbers for D:\Program Files\Microsoft Visual Studio .NET 2003\Vc7\lib\LIBCMTD.lib(f:\vs70builds\3077\vc\crtbld\crt\src\inithelp.c) segment .text

    66 0001:00041860    67 0001:00041871    69 0001:0004187b    71 0001:00041881
    72 0001:0004188a    73 0001:00041894    77 0001:0004189e    79 0001:000418ce
    80 0001:000418d9    85 0001:000418de    86 0001:00041903    89 0001:00041908
    90 0001:00041929    92 0001:0004192e    95 0001:00041938    96 0001:00041964
    99 0001:00041966   100 0001:0004198b   102 0001:0004198d   104 0001:000419a6
   105 0001:000419af   107 0001:000419bd   110 0001:000419c4   111 0001:000419cd
   112 0001:000419db   114 0001:000419e3   119 0001:000419ed   120 0001:000419f7
   122 0001:00041a00   123 0001:00041a22   125 0001:00041a2a   128 0001:00041a33
   130 0001:00041a57   131 0001:00041a7e   132 0001:00041a9d   133 0001:00041a9f
   134 0001:00041aa1   135 0001:00041aa3   137 0001:00041aa7   138 0001:00041aaa

Line numbers for D:\Program Files\Microsoft Visual Studio .NET 2003\Vc7\lib\LIBCMTD.lib(f:\vs70builds\3077\vc\crtbld\crt\src\initctyp.c) segment .text

    71 0001:0003c230    80 0001:0003c23e    89 0001:0003c245    91 0001:0003c252
    96 0001:0003c25b    97 0001:0003c27b   102 0001:0003c280   107 0001:0003c296
   109 0001:0003c2af   112 0001:0003c2c8   116 0001:0003c2da   119 0001:0003c2df
   123 0001:0003c2e8   124 0001:0003c309   126 0001:0003c31c   127 0001:0003c331
   129 0001:0003c336   130 0001:0003c33c   132 0001:0003c341   135 0001:0003c34a
   137 0001:0003c353   139 0001:0003c379   140 0001:0003c399   141 0001:0003c3a4
   151 0001:0003c3a6   152 0001:0003c3cd   153 0001:0003c3d2   158 0001:0003c3de
   160 0001:0003c3e7   162 0001:0003c40d   163 0001:0003c42d   164 0001:0003c43f
   169 0001:0003c441   172 0001:0003c45c   175 0001:0003c46b   183 0001:0003c474
   186 0001:0003c481   187 0001:0003c48f   191 0001:0003c493   193 0001:0003c4a1
   194 0001:0003c4af   195 0001:0003c4bd   200 0001:0003c4c4   208 0001:0003c4ce
   211 0001:0003c4d8   213 0001:0003c4e2   215 0001:0003c4e4   223 0001:0003c4f0
   224 0001:0003c4f3   225 0001:0003c4f8   229 0001:0003c500   231 0001:0003c504
   233 0001:0003c50f   234 0001:0003c51a   236 0001:0003c522   240 0001:0003c528
   244 0001:0003c530   246 0001:0003c534   248 0001:0003c53f   249 0001:0003c54a
   251 0001:0003c552   255 0001:0003c558   259 0001:0003c560   261 0001:0003c564
   263 0001:0003c56f   264 0001:0003c57a   266 0001:0003c582   270 0001:0003c588

Line numbers for D:\Program Files\Microsoft Visual Studio .NET 2003\Vc7\lib\LIBCMTD.lib(f:\vs70builds\3077\vc\crtbld\crt\src\initcrit.c) segment .text

    88 0001:00037d80    92 0001:00037da6    98 0001:00037daf   105 0001:00037db8
   107 0001:00037dc2   108 0001:00037dc4   109 0001:00037dd2   112 0001:00037dd8
   114 0001:00037dec   119 0001:00037df5   122 0001:00037dff   127 0001:00037e01
   132 0001:00037e0b   138 0001:00037e12   140 0001:00037e2c   147 0001:00037e3f
   148 0001:00037e48   150 0001:00037e50   153 0001:00037e5e   154 0001:00037e61
    55 0001:00037e80    56 0001:00037e83    57 0001:00037e8d    58 0001:00037e92

Line numbers for D:\Program Files\Microsoft Visual Studio .NET 2003\Vc7\lib\LIBCMTD.lib(f:\vs70builds\3077\vc\crtbld\crt\src\initcoll.c) segment .text

    41 0001:0003c590    42 0001:0003c593    43 0001:0003c595

Line numbers for D:\Program Files\Microsoft Visual Studio .NET 2003\Vc7\lib\LIBCMTD.lib(f:\vs70builds\3077\vc\crtbld\crt\src\getqloc.c) segment .text

   258 0001:0003c910   263 0001:0003c916   266 0001:0003c91f   269 0001:0003c942
   272 0001:0003c948   274 0001:0003c94d   276 0001:0003c952   279 0001:0003c95b
   280 0001:0003c966   283 0001:0003c975   285 0001:0003c989   287 0001:0003c993
   289 0001:0003c9a8   292 0001:0003c9be   294 0001:0003c9c3   297 0001:0003c9c5
   300 0001:0003c9ca   305 0001:0003c9d3   307 0001:0003c9eb   309 0001:0003ca01
   311 0001:0003ca06   313 0001:0003ca08   318 0001:0003ca0d   320 0001:0003ca0f
   323 0001:0003ca24   325 0001:0003ca29   328 0001:0003ca2b   334 0001:0003ca30
   335 0001:0003ca39   338 0001:0003ca40   341 0001:0003ca55   342 0001:0003ca6a
   345 0001:0003ca71   346 0001:0003ca84   349 0001:0003ca8b   351 0001:0003ca91
   352 0001:0003ca9d   353 0001:0003caab   357 0001:0003cab6   361 0001:0003cabc
   362 0001:0003cac9   363 0001:0003cada   364 0001:0003cadc   365 0001:0003caf7
   367 0001:0003cafb   368 0001:0003cb1a   369 0001:0003cb1e   371 0001:0003cb35
   372 0001:0003cb3a   396 0001:0003cb40   398 0001:0003cb46   399 0001:0003cb4d
   402 0001:0003cb54   404 0001:0003cb62   405 0001:0003cb70   407 0001:0003cb8b
   408 0001:0003cb91   409 0001:0003cba0   410 0001:0003cba8   411 0001:0003cbb1
   412 0001:0003cbb3   413 0001:0003cbbc   415 0001:0003cbbe   416 0001:0003cbc7
   442 0001:0003cbd0   444 0001:0003cbd4   445 0001:0003cbef   446 0001:0003cc0b
   447 0001:0003cc15   449 0001:0003cc41   454 0001:0003cc4e   455 0001:0003cc74
   456 0001:0003cc7e   487 0001:0003cc90   488 0001:0003cca1   494 0001:0003ccb3
   497 0001:0003cce1   498 0001:0003cceb   500 0001:0003ccf5   505 0001:0003cd10
   508 0001:0003cd3e   509 0001:0003cd48   511 0001:0003cd52   514 0001:0003cd69
   515 0001:0003cd7b   519 0001:0003cd92   522 0001:0003cda6   525 0001:0003cdcc
   526 0001:0003cdd9   529 0001:0003cde5   530 0001:0003cdfc   534 0001:0003ce07
   537 0001:0003ce14   540 0001:0003ce27   541 0001:0003ce34   548 0001:0003ce40
   553 0001:0003ce58   556 0001:0003ce86   557 0001:0003ce90   560 0001:0003ce9a
   563 0001:0003ceb5   565 0001:0003cec7   569 0001:0003ced0   570 0001:0003cedf
   571 0001:0003cee8   575 0001:0003cef4   578 0001:0003cf19   582 0001:0003cf2e
   583 0001:0003cf40   584 0001:0003cf49   587 0001:0003cf55   591 0001:0003cf57
   592 0001:0003cf66   593 0001:0003cf6f   596 0001:0003cf7b   597 0001:0003cf7d
   600 0001:0003cfad   604 0001:0003cfc2   605 0001:0003cfd1   606 0001:0003cfda
   613 0001:0003cfe6   614 0001:0003cff3   638 0001:0003d010   640 0001:0003d014
   641 0001:0003d02f   643 0001:0003d055   647 0001:0003d062   648 0001:0003d06c
   649 0001:0003d076   671 0001:0003d080   672 0001:0003d091   678 0001:0003d0a3
   681 0001:0003d0d1   682 0001:0003d0db   685 0001:0003d0e5   689 0001:0003d0fc
   692 0001:0003d11a   693 0001:0003d132   696 0001:0003d13f   697 0001:0003d141
   700 0001:0003d170   703 0001:0003d185   704 0001:0003d19b   708 0001:0003d1aa
   709 0001:0003d1b7   732 0001:0003d1d0   733 0001:0003d1d3   735 0001:0003d1ee
   739 0001:0003d1fb   740 0001:0003d206   741 0001:0003d210   763 0001:0003d220
   764 0001:0003d231   770 0001:0003d243   773 0001:0003d271   774 0001:0003d27b
   776 0001:0003d282   779 0001:0003d299   782 0001:0003d2ac   783 0001:0003d2c4
   786 0001:0003d2d1   787 0001:0003d2de   806 0001:0003d2f0   807 0001:0003d2f3
   808 0001:0003d302   809 0001:0003d319   829 0001:0003d320   832 0001:0003d32e
   836 0001:0003d353   837 0001:0003d36f   838 0001:0003d373   840 0001:0003d379
   844 0001:0003d390   845 0001:0003d3a9   846 0001:0003d3ad   850 0001:0003d3b3
   851 0001:0003d3bf   871 0001:0003d3d0   872 0001:0003d3d6   875 0001:0003d3de
   877 0001:0003d3f6   878 0001:0003d409   879 0001:0003d40d   880 0001:0003d40f
   881 0001:0003d414   903 0001:0003d420   906 0001:0003d432   909 0001:0003d44d
   910 0001:0003d466   912 0001:0003d46a   916 0001:0003d47b   917 0001:0003d4a4
   919 0001:0003d4a8   920 0001:0003d4ad   945 0001:0003d4c0   947 0001:0003d4c6
   948 0001:0003d4cd   949 0001:0003d4d4   952 0001:0003d4db   954 0001:0003d4e7
   955 0001:0003d4f5   958 0001:0003d50a   961 0001:0003d554   962 0001:0003d563
   964 0001:0003d565   965 0001:0003d574   967 0001:0003d576   968 0001:0003d585
   970 0001:0003d587   971 0001:0003d596   973 0001:0003d598   974 0001:0003d5a7
   976 0001:0003d5a9   977 0001:0003d5b8   979 0001:0003d5ba   983 0001:0003d5c8
   985 0001:0003d5d4   989 0001:0003d5d6   990 0001:0003d5ed   991 0001:0003d5f7
   994 0001:0003d5fe   995 0001:0003d60f   996 0001:0003d618   997 0001:0003d61a
   998 0001:0003d623  1000 0001:0003d628  1001 0001:0003d63e  1020 0001:0003d650
  1022 0001:0003d656  1024 0001:0003d65d  1026 0001:0003d676  1027 0001:0003d688
  1028 0001:0003d692  1029 0001:0003d6a6  1030 0001:0003d6b0  1031 0001:0003d6c1
  1033 0001:0003d6c3  1034 0001:0003d6c6  1053 0001:0003d6d0  1054 0001:0003d6d6
  1057 0001:0003d6dd  1058 0001:0003d6ee  1060 0001:0003d712  1061 0001:0003d71b
  1062 0001:0003d72c  1064 0001:0003d72e  1065 0001:0003d731

Line numbers for D:\Program Files\Microsoft Visual Studio .NET 2003\Vc7\lib\LIBCMTD.lib(f:\vs70builds\3077\vc\crtbld\crt\src\getenv.c) segment .text

    58 0001:00042830    61 0001:00042853    63 0001:0004285d    67 0001:00042864
    71 0001:00042881    74 0001:0004288c    76 0001:0004288f    99 0001:000428a0
   100 0001:000428a6   107 0001:000428ae   108 0001:000428b7   130 0001:000428be
   133 0001:000428cd   134 0001:000428d6   137 0001:000428dd   142 0001:000428e6
   144 0001:000428f2   152 0001:00042901   155 0001:00042909   156 0001:00042947
   159 0001:00042955   160 0001:0004295e   163 0001:00042960   164 0001:00042962

Line numbers for D:\Program Files\Microsoft Visual Studio .NET 2003\Vc7\lib\LIBCMTD.lib(f:\vs70builds\3077\vc\crtbld\crt\src\dbgrpt.c) segment .text

    91 0001:0002ab20    92 0001:0002ab23    93 0001:0002ab29   115 0001:0002ab30
   118 0001:0002ab34   119 0001:0002ab40   121 0001:0002ab45   122 0001:0002ab4b
   125 0001:0002ab57   126 0001:0002ab5f   128 0001:0002ab64   130 0001:0002ab71
   132 0001:0002ab7e   133 0001:0002ab81   155 0001:0002ab90   158 0001:0002ab94
   159 0001:0002aba0   161 0001:0002aba7   162 0001:0002abad   164 0001:0002abb9
   166 0001:0002abc6   167 0001:0002abcc   168 0001:0002abde   169 0001:0002abe6
   170 0001:0002abf8   171 0001:0002abfa   173 0001:0002ac07   174 0001:0002ac0a
   195 0001:0002ac10   196 0001:0002ac14   197 0001:0002ac1c   198 0001:0002ac25
   199 0001:0002ac28   225 0001:0002ac30   231 0001:0002ac53   233 0001:0002ac65
   234 0001:0002ac70   238 0001:0002ac78   239 0001:0002ac86   240 0001:0002ac8e
   241 0001:0002ac98   246 0001:0002ac9f   247 0001:0002acb8   248 0001:0002acc3
   250 0001:0002acc5   253 0001:0002acd1   255 0001:0002acd7   257 0001:0002acf5
   258 0001:0002acfe   259 0001:0002ad0b   260 0001:0002ad13   261 0001:0002ad21
   262 0001:0002ad23   263 0001:0002ad2e   266 0001:0002ad3c   268 0001:0002ad3e
   269 0001:0002ad45   272 0001:0002ad50   275 0001:0002ad55   278 0001:0002ad5b
   279 0001:0002ad73   281 0001:0002ad7e   282 0001:0002ad87   283 0001:0002ad94
   284 0001:0002ada2   285 0001:0002adab   286 0001:0002adb7   287 0001:0002adc2
   290 0001:0002adcb   293 0001:0002adcd   294 0001:0002ade6   296 0001:0002adec
   297 0001:0002adf3   299 0001:0002adfe   301 0001:0002ae00   302 0001:0002ae09
   303 0001:0002ae15   304 0001:0002ae1e   305 0001:0002ae29   306 0001:0002ae3a
   307 0001:0002ae43   315 0001:0002ae5a   319 0001:0002ae65   320 0001:0002ae68
   381 0001:0002ae80   384 0001:0002aeb5   385 0001:0002aece   386 0001:0002aee7
   390 0001:0002af00   392 0001:0002af06   393 0001:0002af12   402 0001:0002af1a
   408 0001:0002af37   410 0001:0002af40   414 0001:0002af51   415 0001:0002af7a
   420 0001:0002af82   422 0001:0002af9f   424 0001:0002afac   426 0001:0002afb7
   427 0001:0002afbc   434 0001:0002afc4   435 0001:0002afea   437 0001:0002affe
   438 0001:0002b004   440 0001:0002b036   442 0001:0002b04c   444 0001:0002b052
   445 0001:0002b061   446 0001:0002b075   449 0001:0002b089   452 0001:0002b08f
   453 0001:0002b0bb   455 0001:0002b0cf   456 0001:0002b0d1   459 0001:0002b0e7
   464 0001:0002b0f4   465 0001:0002b0fe   469 0001:0002b105   471 0001:0002b12b
   473 0001:0002b14a   474 0001:0002b150   475 0001:0002b172   477 0001:0002b17d
   482 0001:0002b18d   488 0001:0002b198   490 0001:0002b1a1   492 0001:0002b1bd
   493 0001:0002b1c3   494 0001:0002b1ce   498 0001:0002b1d6   500 0001:0002b1e5
   503 0001:0002b1f2   507 0001:0002b223   509 0001:0002b232   512 0001:0002b23f
   516 0001:0002b24e   517 0001:0002b2a0   518 0001:0002b2a6   519 0001:0002b2b1
   522 0001:0002b2b6   523 0001:0002b2bc   525 0001:0002b2c7   526 0001:0002b2c9
   563 0001:0002b2f0   570 0001:0002b305   573 0001:0002b330   574 0001:0002b337
   575 0001:0002b34f   577 0001:0002b363   579 0001:0002b36c   581 0001:0002b37d
   582 0001:0002b393   586 0001:0002b3a6   588 0001:0002b3ac   590 0001:0002b3c3
   591 0001:0002b3d9   611 0001:0002b3ec   612 0001:0002b584   617 0001:0002b598
   620 0001:0002b5b7   623 0001:0002b5c0   628 0001:0002b5ca   632 0001:0002b5d1
   633 0001:0002b5da   636 0001:0002b5e1   637 0001:0002b5e3

Line numbers for D:\Program Files\Microsoft Visual Studio .NET 2003\Vc7\lib\LIBCMTD.lib(f:\vs70builds\3077\vc\crtbld\crt\src\dbghook.c) segment .text

    46 0001:0002e870    47 0001:0002e873    48 0001:0002e878

Line numbers for D:\Program Files\Microsoft Visual Studio .NET 2003\Vc7\lib\LIBCMTD.lib(f:\vs70builds\3077\vc\crtbld\crt\src\dbgheap.c) segment .text

   138 0001:00022fc0   139 0001:00022fc4   143 0001:00022fdf   144 0001:00022fe2
   175 0001:00022ff0   176 0001:00022ff4   178 0001:00023015   179 0001:00023018
   208 0001:00023020   209 0001:00023023   210 0001:00023039   246 0001:00023040
   254 0001:00023063   255 0001:0002306d   260 0001:00023074   267 0001:0002309d
   271 0001:000230a8   272 0001:000230b4   275 0001:000230b9   276 0001:000230c9
   279 0001:000230cd   280 0001:000230cf   304 0001:000230e0   305 0001:000230e3
   306 0001:000230f5   336 0001:00023100   339 0001:00023106   343 0001:0002310d
   344 0001:00023116   346 0001:00023126   347 0001:00023150   349 0001:0002315a
   350 0001:0002315c   352 0001:0002316b   355 0001:00023173   356 0001:00023187
   359 0001:00023188   361 0001:000231ad   363 0001:000231b3   364 0001:000231d6
   365 0001:000231d8   367 0001:000231f8   372 0001:000231ff   373 0001:00023217
   378 0001:0002321e   380 0001:0002322f   381 0001:0002324e   384 0001:00023255
   386 0001:0002327d   389 0001:0002329d   397 0001:000232a6   399 0001:000232b5
   402 0001:000232bb   406 0001:000232c2   408 0001:000232cf   410 0001:000232d5
   411 0001:000232de   412 0001:000232e8   413 0001:000232f2   414 0001:000232fc
   415 0001:00023305   416 0001:0002330f   418 0001:00023319   420 0001:0002331e
   421 0001:0002332b   423 0001:0002333a   424 0001:00023348   426 0001:00023352
   427 0001:0002335b   428 0001:00023367   429 0001:00023369   431 0001:00023371
   432 0001:0002337c   433 0001:00023386   434 0001:0002338f   435 0001:00023398
   436 0001:000233a1   437 0001:000233aa   440 0001:000233b3   444 0001:000233bc
   445 0001:000233d5   448 0001:000233f2   452 0001:0002340d   453 0001:00023413
   480 0001:00023420   481 0001:00023424   485 0001:0002343d   486 0001:00023440
   521 0001:00023450   526 0001:00023456   532 0001:00023460   539 0001:0002347b
   541 0001:00023481   542 0001:00023487   543 0001:00023490   544 0001:00023498
   549 0001:000234a9   550 0001:000234ac   823 0001:000234b0   824 0001:000234b4
   829 0001:000234cd   830 0001:000234d0   868 0001:000234e0   872 0001:00023503
   873 0001:0002350d   883 0001:00023514   888 0001:00023543   895 0001:0002354e
   896 0001:00023551   583 0001:00023570   585 0001:00023576   593 0001:0002357d
   595 0001:00023583   602 0001:000235a0   604 0001:000235ac   605 0001:000235bc
   609 0001:000235c3   610 0001:000235cc   612 0001:000235dc   613 0001:00023606
   615 0001:00023610   616 0001:00023612   618 0001:00023621   620 0001:00023629
   621 0001:0002363d   624 0001:0002363e   626 0001:00023665   628 0001:0002366b
   629 0001:0002368e   630 0001:00023690   632 0001:000236b0   637 0001:000236b7
   640 0001:000236bd   641 0001:000236dc   646 0001:000236e3   648 0001:00023704
   649 0001:00023724   651 0001:00023726   653 0001:00023745   654 0001:00023764
   663 0001:0002376b   666 0001:0002379c   668 0001:000237a5   669 0001:000237ae
   671 0001:000237b5   673 0001:000237bb   675 0001:000237f1   678 0001:000237f3
   679 0001:00023811   691 0001:00023818   694 0001:0002381e   697 0001:0002383a
   700 0001:00023841   702 0001:00023843   705 0001:0002385f   710 0001:00023866
   712 0001:00023875   715 0001:0002387b   716 0001:0002388d   718 0001:0002389c
   719 0001:000238ae   721 0001:000238bd   722 0001:000238ca   728 0001:000238d6
   731 0001:000238df   733 0001:000238ea   736 0001:0002390e   738 0001:00023927
   740 0001:0002392d   741 0001:00023936   742 0001:0002393f   745 0001:00023948
   747 0001:00023951   752 0001:00023986   753 0001:00023994   757 0001:0002399c
   760 0001:000239a4   762 0001:000239b2   764 0001:000239b4   765 0001:000239e0
   768 0001:000239ec   771 0001:000239f5   773 0001:00023a02   775 0001:00023a04
   776 0001:00023a30   780 0001:00023a3b   781 0001:00023a44   782 0001:00023a50
   783 0001:00023a52   785 0001:00023a5b   786 0001:00023a65   789 0001:00023a6f
   791 0001:00023a78   792 0001:00023a7b   932 0001:00023a80   933 0001:00023a84
   936 0001:00023a9d   937 0001:00023aa0   977 0001:00023ab0   981 0001:00023ad3
   982 0001:00023add   992 0001:00023ae4   997 0001:00023b13  1004 0001:00023b1e
  1005 0001:00023b21  1024 0001:00023b40  1025 0001:00023b43  1026 0001:00023b51
  1033 0001:00023b60  1034 0001:00023b63  1035 0001:00023b71  1062 0001:00023b80
  1065 0001:00023ba3  1067 0001:00023bad  1070 0001:00023bb4  1075 0001:00023bd2
  1077 0001:00023bdd  1090 0001:00023bf0  1097 0001:00023bf4  1098 0001:00023bfd
  1100 0001:00023c0d  1101 0001:00023c37  1103 0001:00023c41  1104 0001:00023c43
  1106 0001:00023c52  1107 0001:00023c58  1110 0001:00023c5d  1112 0001:00023c63
  1114 0001:00023c81  1115 0001:00023ca0  1120 0001:00023ca5  1122 0001:00023cc4
  1124 0001:00023ce4  1132 0001:00023ce9  1135 0001:00023d1a  1138 0001:00023d23
  1141 0001:00023d78  1144 0001:00023d87  1148 0001:00023da2  1150 0001:00023dde
  1154 0001:00023e00  1159 0001:00023e3c  1161 0001:00023e45  1164 0001:00023e7b
  1165 0001:00023e99  1167 0001:00023ea5  1171 0001:00023eaa  1172 0001:00023eb9
  1175 0001:00023ec0  1178 0001:00023eec  1181 0001:00023efe  1184 0001:00023f0c
  1186 0001:00023f14  1188 0001:00023f22  1190 0001:00023f24  1191 0001:00023f4f
  1194 0001:00023f5a  1196 0001:00023f63  1198 0001:00023f70  1200 0001:00023f72
  1201 0001:00023f9d  1206 0001:00023fa7  1207 0001:00023fc5  1209 0001:00023fd1
  1211 0001:00023fd3  1214 0001:00023fdd  1217 0001:00023ffb  1239 0001:00024000
  1240 0001:00024003  1241 0001:00024011  1267 0001:00024020  1272 0001:00024043
  1273 0001:0002404c  1275 0001:0002405c  1276 0001:00024086  1278 0001:00024090
  1279 0001:00024092  1282 0001:000240a1  1283 0001:000240ab  1291 0001:000240b2
  1294 0001:000240e3  1297 0001:000240ec  1300 0001:00024141  1301 0001:00024150
  1307 0001:00024157  1312 0001:0002416e  1316 0001:00024179  1317 0001:0002417c
  1337 0001:00024190  1338 0001:00024194  1339 0001:0002419c  1340 0001:000241a5
  1341 0001:000241a8  1363 0001:000241b0  1367 0001:000241d3  1368 0001:000241dd
  1372 0001:000241e4  1375 0001:000241f4  1378 0001:000241fd  1380 0001:00024250
  1386 0001:00024267  1391 0001:00024272  1417 0001:00024290  1418 0001:00024294
  1419 0001:0002429c  1420 0001:000242a5  1421 0001:000242a8  1451 0001:000242b0
  1452 0001:000242b4  1453 0001:000242bb  1455 0001:000242cb  1460 0001:000242e2
  1462 0001:000242e9  1463 0001:000242eb  1464 0001:000242ee  1485 0001:00024300
  1490 0001:00024323  1491 0001:0002432d  1494 0001:00024337  1495 0001:00024341
  1500 0001:00024348  1501 0001:00024350  1503 0001:00024364  1506 0001:00024387
  1507 0001:000243a7  1509 0001:000243ac  1510 0001:000243cc  1512 0001:000243ce
  1513 0001:000243ee  1515 0001:000243f0  1516 0001:00024410  1518 0001:00024412
  1521 0001:00024432  1523 0001:00024439  1525 0001:0002443e  1529 0001:00024445
  1531 0001:00024461  1534 0001:00024468  1535 0001:0002449c  1536 0001:000244b2
  1537 0001:000244b4  1541 0001:000244bb  1544 0001:000244d6  1545 0001:00024503
  1549 0001:0002450a  1552 0001:0002452d  1553 0001:0002455a  1558 0001:00024561
  1561 0001:0002458b  1562 0001:000245ad  1565 0001:000245b4  1569 0001:000245ba
  1571 0001:000245c3  1574 0001:000245f0  1576 0001:0002461d  1578 0001:00024624
  1584 0001:00024637  1588 0001:00024642  1589 0001:00024645  1608 0001:00024670
  1612 0001:00024693  1613 0001:0002469d  1616 0001:000246a4  1618 0001:000246ac
  1620 0001:000246b2  1621 0001:000246ba  1622 0001:000246c4  1623 0001:000246c6
  1625 0001:000246d8  1626 0001:000246e2  1632 0001:000246f8  1635 0001:00024703
  1636 0001:00024706  1658 0001:00024720  1661 0001:00024743  1662 0001:0002474d
  1665 0001:0002474f  1666 0001:00024759  1669 0001:00024760  1671 0001:00024779
  1672 0001:0002478a  1673 0001:0002479b  1678 0001:000247ab  1681 0001:000247b6
  1705 0001:000247d0  1710 0001:000247d4  1711 0001:00024817  1732 0001:00024820
  1738 0001:00024824  1739 0001:0002482a  1741 0001:00024831  1742 0001:00024848
  1747 0001:0002484c  1750 0001:00024855  1752 0001:0002486d  1754 0001:00024882
  1755 0001:00024890  1757 0001:00024897  1782 0001:000248ae  1807 0001:000248c4
  1835 0001:000248d0  1839 0001:000248f3  1840 0001:00024903  1843 0001:0002490a
  1844 0001:00024914  1847 0001:0002491b  1853 0001:00024924  1855 0001:00024985
  1856 0001:0002498b  1857 0001:00024996  1858 0001:0002499c  1859 0001:000249a7
  1860 0001:000249ad  1862 0001:000249b8  1864 0001:000249bf  1865 0001:000249c1
  1870 0001:000249d6  1874 0001:000249e1  1875 0001:000249e4  1893 0001:00024a00
  1896 0001:00024a04  1897 0001:00024a14  1899 0001:00024a19  1900 0001:00024a22
  1901 0001:00024a28  1929 0001:00024a30  1930 0001:00024a34  1931 0001:00024a3c
  1932 0001:00024a45  1933 0001:00024a48  1953 0001:00024a50  1957 0001:00024a73
  1959 0001:00024a79  1960 0001:00024a99  1964 0001:00024a9e  1965 0001:00024aa8
  1968 0001:00024aaf  1969 0001:00024aba  1970 0001:00024ad2  1972 0001:00024af0
  1974 0001:00024b0d  1976 0001:00024b2b  1977 0001:00024b54  1979 0001:00024b7e
  1981 0001:00024b80  1983 0001:00024b9f  1985 0001:00024ba4  1986 0001:00024bb0
  1991 0001:00024bca  1994 0001:00024bd5  2018 0001:00024bf0  2020 0001:00024bf7
  2022 0001:00024bfe  2024 0001:00024c10  2025 0001:00024c30  2028 0001:00024c38
  2030 0001:00024c50  2031 0001:00024c6e  2037 0001:00024c8c  2038 0001:00024cc2
  2039 0001:00024cc9  2040 0001:00024cce  2041 0001:00024ce0  2042 0001:00024cf2
  2044 0001:00024cfb  2045 0001:00024cfe  2093 0001:00024d10  2095 0001:00024d33
  2101 0001:00024d3a  2103 0001:00024d45  2104 0001:00024d50  2106 0001:00024d58
  2107 0001:00024d62  2110 0001:00024d69  2112 0001:00024d89  2113 0001:00024d8f
  2116 0001:00024d97  2122 0001:00024dc0  2126 0001:00024df9  2127 0001:00024dfe
  2129 0001:00024e07  2130 0001:00024e1e  2131 0001:00024e40  2132 0001:00024e42
  2135 0001:00024e6b  2137 0001:00024e8d  2140 0001:00024e9e  2142 0001:00024ed7
  2143 0001:00024ee0  2144 0001:00024ef7  2146 0001:00024ef9  2151 0001:00024f09
  2154 0001:00024f17  2157 0001:00024f40  2162 0001:00024f50  2165 0001:00024f62
  2168 0001:00024f9b  2174 0001:00024fab  2178 0001:00024fbe  2182 0001:00024fc9
  2183 0001:00024fe9  2055 0001:00025000  2061 0001:0002500e  2063 0001:00025047
  2065 0001:00025053  2069 0001:000250b0  2070 0001:000250cd  2071 0001:000250d2
  2073 0001:000250da  2074 0001:000250fd  2204 0001:00025110  2208 0001:00025116
  2214 0001:00025122  2217 0001:0002513f  2219 0001:0002515f  2220 0001:00025169
  2223 0001:00025170  2224 0001:00025172  2243 0001:00025180  2246 0001:00025184
  2247 0001:0002518a  2249 0001:0002518f  2252 0001:000251a7  2253 0001:000251e3
  2255 0001:000251e5  2256 0001:00025207  2257 0001:00025229  2281 0001:00025230
  2282 0001:00025233  2283 0001:00025249  2314 0001:00025250  2315 0001:00025253
  2316 0001:0002526d  2348 0001:00025270  2349 0001:00025273  2350 0001:0002528d
  2389 0001:00025290  2390 0001:00025293  2391 0001:000252b1  2419 0001:000252c0
  2420 0001:000252c3  2421 0001:000252db  2457 0001:000252e0  2461 0001:000252e6
  2463 0001:000252f1  2464 0001:00025316  2465 0001:00025321  2468 0001:00025328
  2470 0001:00025336  2471 0001:0002535b  2472 0001:00025366  2475 0001:0002536d
  2477 0001:0002538b  2479 0001:00025396  2480 0001:000253bf  2482 0001:000253c3
  2483 0001:000253e0  2484 0001:000253ec  2485 0001:00025405  2486 0001:0002540d
  2487 0001:00025410  2520 0001:00025420  2521 0001:00025423  2522 0001:0002543f
  2565 0001:00025450  2569 0001:00025456  2571 0001:0002545c  2573 0001:0002547d
  2575 0001:00025483  2576 0001:0002548f  2579 0001:00025496  2581 0001:000254a2
  2583 0001:000254be  2584 0001:000254dd  2587 0001:000254e4  2589 0001:00025500
  2592 0001:0002551f  2594 0001:0002552a  2595 0001:0002554f  2596 0001:0002555a
  2598 0001:00025561  2600 0001:0002556f  2601 0001:00025594  2602 0001:0002559f
  2605 0001:000255a6  2607 0001:000255c1  2609 0001:000255df  2611 0001:000255ea
  2612 0001:00025613  2614 0001:0002561a  2615 0001:00025637  2616 0001:00025643
  2617 0001:0002565c  2619 0001:00025664  2620 0001:0002568e  2622 0001:0002569e
  2623 0001:000256a1  2644 0001:000256b0  2645 0001:000256b3  2646 0001:000256bf
  2667 0001:000256d0  2670 0001:000256d4  2671 0001:000256da  2673 0001:000256df
  2675 0001:000256eb  2677 0001:00025707  2678 0001:00025726  2681 0001:00025728
  2683 0001:00025744  2685 0001:00025763  2686 0001:00025773

Line numbers for D:\Program Files\Microsoft Visual Studio .NET 2003\Vc7\lib\LIBCMTD.lib(f:\vs70builds\3077\vc\crtbld\crt\src\ctype.c) segment .text

    22 0001:00038250    23 0001:00038253    24 0001:00038258    27 0001:00038260
    28 0001:00038263    29 0001:00038268

Line numbers for D:\Program Files\Microsoft Visual Studio .NET 2003\Vc7\lib\LIBCMTD.lib(f:\vs70builds\3077\vc\crtbld\crt\src\crtmbox.c) segment .text

    36 0001:000325a0    49 0001:000325a6    50 0001:000325ad    55 0001:000325b4
    57 0001:000325c1    61 0001:000325cf    62 0001:000325f2    65 0001:000325f9
    68 0001:0003260d    70 0001:00032621    73 0001:0003262a    75 0001:0003263e
    77 0001:00032647    91 0001:0003265b    96 0001:00032664    98 0001:00032695
   102 0001:0003269c   104 0001:000326a2   105 0001:000326ab   106 0001:000326b6
   107 0001:000326b8   109 0001:000326c4   111 0001:000326c6   112 0001:000326cf
   114 0001:000326d8   115 0001:000326e7   118 0001:000326f4   119 0001:0003270a

Line numbers for D:\Program Files\Microsoft Visual Studio .NET 2003\Vc7\lib\LIBCMTD.lib(f:\vs70builds\3077\vc\crtbld\crt\src\assert.c) segment .text

   111 0001:00025b70   118 0001:00025b83   125 0001:00025b9e   131 0001:00025baa
   133 0001:00025bbd   134 0001:00025bdb   136 0001:00025be8   145 0001:00025bed
   146 0001:00025c01   151 0001:00025c17   153 0001:00025c2b   154 0001:00025c32
   155 0001:00025c4a   157 0001:00025c5e   160 0001:00025c6a   162 0001:00025c81
   163 0001:00025ca0   166 0001:00025cb7   167 0001:00025ccd   172 0001:00025ce3
   175 0001:00025cf7   179 0001:00025d0f   180 0001:00025d18   184 0001:00025d22
   189 0001:00025d95   193 0001:00025dd3   194 0001:00025df9   195 0001:00025e0f
   197 0001:00025e31   202 0001:00025e5d   203 0001:00025e6b   204 0001:00025e91
   205 0001:00025ea7   207 0001:00025ec9   212 0001:00025ece   213 0001:00025eff
   214 0001:00025f15   215 0001:00025f4a   216 0001:00025f60   220 0001:00025fa3
   222 0001:00025fa5   224 0001:00025fb8   229 0001:00025fce   230 0001:00025fe2
   231 0001:00026007   236 0001:0002601d   244 0001:00026031   252 0001:0002605d
   253 0001:0002608c   255 0001:000260a2   256 0001:000260a4   258 0001:000260b7
   264 0001:000260cd   265 0001:000260e1   270 0001:000260f7   278 0001:0002610b
   281 0001:0002612a   284 0001:00026133   289 0001:0002613d   293 0001:00026144
   295 0001:0002614d   297 0001:0002614e   301 0001:00026150   302 0001:00026159
   305 0001:0002615b   306 0001:00026160

Line numbers for D:\Program Files\Microsoft Visual Studio .NET 2003\Vc7\lib\LIBCMTD.lib(f:\vs70builds\3077\vc\crtbld\crt\src\abort.c) segment .text

    43 0001:00031f60    44 0001:00031f63    48 0001:00031f6d    54 0001:00031f77
    55 0001:00031f7e

Line numbers for D:\Program Files\Microsoft Visual Studio .NET 2003\Vc7\lib\LIBCMTD.lib(f:\vs70builds\3077\vc\crtbld\crt\src\a_str.c) segment .text

    64 0001:0003c670    73 0001:0003c696    77 0001:0003c69f    78 0001:0003c6b6
    80 0001:0003c6c0    81 0001:0003c6cd    86 0001:0003c6d7    88 0001:0003c6ed
    92 0001:0003c6f4    93 0001:0003c6fa    94 0001:0003c703    95 0001:0003c709
    97 0001:0003c712    98 0001:0003c727   102 0001:0003c72e   104 0001:0003c736
   105 0001:0003c755   106 0001:0003c75b   107 0001:0003c762   110 0001:0003c768
   111 0001:0003c785   112 0001:0003c78b   113 0001:0003c799   118 0001:0003c7a1
   123 0001:0003c7ae   124 0001:0003c7b5   140 0001:0003c7bc   141 0001:0003c7c2
   152 0001:0003c7cb   153 0001:0003c7fb   156 0001:0003c802   157 0001:0003c809
   158 0001:0003c825   160 0001:0003c842   161 0001:0003c84b   162 0001:0003c850
   165 0001:0003c85e   167 0001:0003c864   168 0001:0003c887   169 0001:0003c88b
   178 0001:0003c894   183 0001:0003c8b9   185 0001:0003c8d2   186 0001:0003c8d8
   188 0001:0003c8e6   191 0001:0003c8eb   192 0001:0003c8ed

Line numbers for D:\Program Files\Microsoft Visual Studio .NET 2003\Vc7\lib\LIBCMTD.lib(f:\vs70builds\3077\vc\crtbld\crt\src\a_map.c) segment .text

    96 0001:0003f0e0   105 0001:0003f106   106 0001:0003f10f   107 0001:0003f12b
   108 0001:0003f135   109 0001:0003f142   116 0001:0003f14c   117 0001:0003f152
   121 0001:0003f165   122 0001:0003f17b   123 0001:0003f182   125 0001:0003f189
   129 0001:0003f190   130 0001:0003f196   131 0001:0003f19f   132 0001:0003f1a5
   134 0001:0003f1ad   135 0001:0003f1c2   141 0001:0003f1c9   143 0001:0003f1d5
   144 0001:0003f1f4   145 0001:0003f1fa   146 0001:0003f201   152 0001:0003f207
   154 0001:0003f22a   157 0001:0003f22f   158 0001:0003f236   159 0001:0003f250
   160 0001:0003f26b   161 0001:0003f274   162 0001:0003f279   165 0001:0003f287
   166 0001:0003f28d   168 0001:0003f2ae   169 0001:0003f2b5   171 0001:0003f2b7
   172 0001:0003f2c9   179 0001:0003f2d2   181 0001:0003f2f9   182 0001:0003f300
   188 0001:0003f302   189 0001:0003f326   190 0001:0003f32d   191 0001:0003f32f
   194 0001:0003f336   195 0001:0003f33c   196 0001:0003f34a   199 0001:0003f34c
   201 0001:0003f36d   202 0001:0003f373   203 0001:0003f381   208 0001:0003f389
   210 0001:0003f396   215 0001:0003f39d   216 0001:0003f3a4   232 0001:0003f3ab
   233 0001:0003f3b1   244 0001:0003f3b9   245 0001:0003f3e9   248 0001:0003f3f0
   249 0001:0003f3f7   251 0001:0003f41c   252 0001:0003f425   253 0001:0003f42a
   256 0001:0003f438   258 0001:0003f43e   259 0001:0003f461   260 0001:0003f468
   269 0001:0003f471   270 0001:0003f491   278 0001:0003f496   279 0001:0003f4b9
   281 0001:0003f4be   284 0001:0003f4c9   286 0001:0003f4cf   287 0001:0003f4d7
   295 0001:0003f4dc   296 0001:0003f4fe   299 0001:0003f503   302 0001:0003f508
   305 0001:0003f50e   306 0001:0003f515   308 0001:0003f53a   309 0001:0003f543
   310 0001:0003f548   313 0001:0003f556   315 0001:0003f55c   316 0001:0003f57f
   317 0001:0003f581   326 0001:0003f58a   327 0001:0003f5ac   329 0001:0003f5ae
   339 0001:0003f5b4   340 0001:0003f5d9   342 0001:0003f5db   352 0001:0003f5dd
   358 0001:0003f600   359 0001:0003f606   361 0001:0003f614   362 0001:0003f61a
   364 0001:0003f628   367 0001:0003f62d   368 0001:0003f62f    46 0001:0003f650
    47 0001:0003f656    48 0001:0003f65c    50 0001:0003f662    51 0001:0003f67c
    53 0001:0003f687    54 0001:0003f690

Line numbers for D:\Program Files\Microsoft Visual Studio .NET 2003\Vc7\lib\LIBCMTD.lib(f:\vs70builds\3077\vc\crtbld\crt\src\a_loc.c) segment .text

    57 0001:00042b50    65 0001:00042b76    67 0001:00042b7f    68 0001:00042b91
    70 0001:00042b9b    71 0001:00042ba8    76 0001:00042bb2    78 0001:00042bc4
    83 0001:00042bdf    85 0001:00042bec    88 0001:00042bf3    94 0001:00042bfa
    95 0001:00042c00    98 0001:00042c09    99 0001:00042c24   102 0001:00042c2b
   103 0001:00042c32   105 0001:00042c57   106 0001:00042c60   107 0001:00042c65
   110 0001:00042c73   112 0001:00042c79   113 0001:00042c99   114 0001:00042ca0
   118 0001:00042ca9   119 0001:00042cc3   122 0001:00042cc5   132 0001:00042ccb
   134 0001:00042ce8   143 0001:00042cea   147 0001:00042d0b   148 0001:00042d11
   150 0001:00042d1f   153 0001:00042d24   154 0001:00042d26

Line numbers for D:\Program Files\Microsoft Visual Studio .NET 2003\Vc7\lib\LIBCMTD.lib(f:\vs70builds\3077\vc\crtbld\crt\src\a_env.c) segment .text

    43 0001:000352d0    45 0001:000352d6    47 0001:000352dd    57 0001:000352e4
    59 0001:000352ed    60 0001:000352fc    62 0001:00035306    63 0001:00035313
    68 0001:0003531d    71 0001:0003532a    72 0001:00035330    73 0001:0003533f
    76 0001:00035346    77 0001:0003534c    78 0001:00035356    79 0001:00035369
    80 0001:00035372    83 0001:00035374    93 0001:00035382    97 0001:0003539f
    99 0001:000353c3   100 0001:000353cd   111 0001:000353d4   113 0001:000353f6
   114 0001:00035404   117 0001:0003540b   118 0001:00035415   123 0001:0003541d
   125 0001:00035433   126 0001:00035439   127 0001:00035448   131 0001:0003544f
   133 0001:00035455   134 0001:0003545f   135 0001:00035472   136 0001:0003547b
   138 0001:0003547d   140 0001:00035489   141 0001:000354aa   142 0001:000354b4
   145 0001:000354b8   147 0001:000354cc   149 0001:000354d6   152 0001:000354db
   153 0001:000354dd

Line numbers for D:\Program Files\Microsoft Visual Studio .NET 2003\Vc7\lib\LIBCMTD.lib(f:\vs70builds\3077\vc\crtbld\crt\src\a_cmp.c) segment .text

    94 0001:00042f50   103 0001:00042f7e   105 0001:00042f87   106 0001:00042fa3
   108 0001:00042fad   109 0001:00042fba   117 0001:00042fc4   118 0001:00042fca
   119 0001:00042fdd   120 0001:00042fe3   124 0001:00042ff6   126 0001:0004300c
   127 0001:00043013   131 0001:0004301a   132 0001:00043020   133 0001:00043029
   134 0001:0004302f   136 0001:00043038   137 0001:0004304d   142 0001:00043054
   149 0001:0004305c   150 0001:0004307b   151 0001:00043081   157 0001:00043088
   158 0001:000430a7   160 0001:000430ad   161 0001:000430bb   163 0001:000430c2
   164 0001:000430c8   172 0001:000430ce   173 0001:000430ef   175 0001:000430f5
   176 0001:00043103   178 0001:00043111   183 0001:00043119   189 0001:00043126
   190 0001:0004312d   191 0001:00043134   197 0001:0004313b   198 0001:00043141
   204 0001:00043149   210 0001:00043159   211 0001:00043161   214 0001:0004316b
   215 0001:00043171   218 0001:0004317b   219 0001:00043181   227 0001:0004318b
   228 0001:0004319d   230 0001:000431a4   233 0001:000431dd   235 0001:000431e3
   236 0001:000431e9   240 0001:000431f3   242 0001:00043219   243 0001:0004323a
   245 0001:00043244   249 0001:00043250   251 0001:00043256   252 0001:0004325c
   256 0001:00043266   258 0001:0004328c   259 0001:000432ad   261 0001:000432b7
   276 0001:000432c3   277 0001:000432e4   280 0001:000432eb   281 0001:000432f2
   283 0001:00043317   284 0001:00043320   285 0001:00043325   288 0001:00043333
   290 0001:00043339   291 0001:0004335c   292 0001:00043363   301 0001:0004336c
   302 0001:0004338c   311 0001:00043391   312 0001:000433b2   315 0001:000433b7
   316 0001:000433be   318 0001:000433e3   319 0001:000433ec   320 0001:000433f1
   323 0001:000433ff   325 0001:00043405   326 0001:00043428   327 0001:0004342a
   336 0001:00043433   342 0001:00043453   344 0001:00043474   345 0001:0004347a
   348 0001:00043488   349 0001:0004348e   351 0001:0004349c   354 0001:000434a1
   355 0001:000434a3    49 0001:000434c0    50 0001:000434c6    51 0001:000434cc
    53 0001:000434d2    54 0001:000434ec    56 0001:000434f7    57 0001:00043500

Line numbers for D:\Program Files\Microsoft Visual Studio .NET 2003\Vc7\lib\LIBCMTD.lib(f:\vs70builds\3077\vc\crtbld\crt\src\secfail.c) segment .text

    75 0001:00027010    77 0001:00027041    78 0001:0002704a    79 0001:00027051
    81 0001:0002706b    89 0001:0002707b    97 0001:00027080   103 0001:00027092
   104 0001:0002709c   105 0001:000270a3   106 0001:000270aa   112 0001:000270ac
   113 0001:000270b6   114 0001:000270bd   121 0001:000270c4   123 0001:000270e3
   124 0001:000270e7   125 0001:000270ff   127 0001:00027113   130 0001:0002711c
   132 0001:00027133   133 0001:0002714c   138 0001:0002715f   140 0001:0002718f
   141 0001:000271a2   142 0001:000271b3   143 0001:000271c4   144 0001:000271d4
   145 0001:000271e5   150 0001:000271f5   153 0001:0002720b   154 0001:00027212
   174 0001:00027240   177 0001:00027244   178 0001:0002724c   180 0001:00027255
   181 0001:00027258   185 0001:00027260   186 0001:00027263   187 0001:0002726f
   192 0001:00027280   193 0001:00027283   194 0001:0002728f

Line numbers for D:\Program Files\Microsoft Visual Studio .NET 2003\Vc7\lib\LIBCMTD.lib(f:\vs70builds\3077\vc\crtbld\crt\src\seccinit.c) segment .text

    49 0001:00026f70    58 0001:00026f76    59 0001:00026f8b    67 0001:00026f8d
    69 0001:00026f97    70 0001:00026f9d    75 0001:00026fa6    76 0001:00026fb2
    77 0001:00026fbe    79 0001:00026fca    81 0001:00026fd4    82 0001:00026fdd
    93 0001:00026fe6    94 0001:00027000

Line numbers for D:\Program Files\Microsoft Visual Studio .NET 2003\Vc7\lib\LIBCMTD.lib(f:\vs70builds\3077\vc\crtbld\crt\src\secchk.c) segment .text

   103 0001:000209f0   100 0001:000209f0   104 0001:000209f6   105 0001:000209f8
   107 0001:000209f9   114 0001:00020a00   116 0001:00020a26   117 0001:00020a2d
   119 0001:00020a42   123 0001:00020a52   124 0001:00020a5a

Line numbers for D:\Program Files\Microsoft Visual Studio .NET 2003\Vc7\lib\LIBCMTD.lib(f:\vs70builds\3077\vc\crtbld\crt\src\mbsnbico.c) segment .text

    48 0001:00042df0    51 0001:00042df6    53 0001:00042e01    54 0001:00042e0c
    57 0001:00042e14    58 0001:00042e1a    71 0001:00042e1e    75 0001:00042e4f
    77 0001:00042e56    79 0001:00042e5c

Line numbers for D:\Program Files\Microsoft Visual Studio .NET 2003\Vc7\lib\LIBCMTD.lib(f:\vs70builds\3077\vc\crtbld\crt\src\mbschr.c) segment .text

    48 0001:00043a00    51 0001:00043a06    53 0001:00043a11    54 0001:00043a1c
    56 0001:00043a24    60 0001:00043a2d    62 0001:00043a42    65 0001:00043a60
    70 0001:00043a71    71 0001:00043a84    72 0001:00043a88    73 0001:00043a9c
    75 0001:00043aa4    76 0001:00043aaf    77 0001:00043ab1    79 0001:00043ab3
    80 0001:00043abc    82 0001:00043ac1    83 0001:00043ac3

Line numbers for D:\Program Files\Microsoft Visual Studio .NET 2003\Vc7\lib\LIBCMTD.lib(f:\vs70builds\3077\vc\crtbld\crt\src\mbctype.c) segment .text

   432 0001:00037320   435 0001:00037343   437 0001:0003734d   439 0001:00037354
   441 0001:0003735c   447 0001:00037370   452 0001:0003738b   459 0001:00037399
   460 0001:000373ad   465 0001:000373c8   468 0001:000373d3   469 0001:000373d6
   502 0001:000373f0   504 0001:00037413   508 0001:0003741a   510 0001:00037424
   512 0001:0003742b   514 0001:0003743a   521 0001:00037449   523 0001:00037460
   530 0001:0003747c   535 0001:0003749f   536 0001:000374a8   537 0001:000374b4
   538 0001:000374bf   539 0001:000374cb   540 0001:000374e3   541 0001:000374fb
   542 0001:00037516   543 0001:0003752a   544 0001:00037545   549 0001:0003755c
   555 0001:00037564   560 0001:00037575   562 0001:00037583   567 0001:00037585
   571 0001:0003759a   580 0001:000375a5   581 0001:000375a8   223 0001:000375c0
   224 0001:000375c3   228 0001:000375cd   230 0001:000375d3   231 0001:000375dd
   234 0001:000375e5   236 0001:000375eb   237 0001:000375f5   241 0001:000375fd
   243 0001:00037603   244 0001:0003760d   247 0001:00037614   248 0001:00037617
   584 0001:00037620   604 0001:0003762e   606 0001:00037634   607 0001:00037639
   608 0001:0003763e   614 0001:00037645   617 0001:00037661   620 0001:00037676
   621 0001:00037691   624 0001:0003769d   629 0001:000376b5   632 0001:000376e8
   633 0001:00037708   634 0001:00037729   635 0001:0003772b   637 0001:00037730
   639 0001:00037738   640 0001:00037742   641 0001:00037756   642 0001:0003776e
   645 0001:0003778c   646 0001:00037791   648 0001:00037798   652 0001:0003779d
   656 0001:000377b4   657 0001:000377cf   659 0001:000377db   660 0001:000377e4
   662 0001:000377ee   665 0001:000377f8   667 0001:0003781e   668 0001:0003783e
   669 0001:00037856   672 0001:00037858   673 0001:00037873   676 0001:0003788b
   679 0001:0003789e   681 0001:000378a8   683 0001:000378aa   685 0001:000378b4
   686 0001:000378cc   688 0001:000378db   690 0001:000378e0   695 0001:000378e4
   697 0001:000378ed   698 0001:000378f2   699 0001:000378f7   703 0001:000378fb
   704 0001:000378fe   268 0001:00037910   269 0001:00037914   273 0001:0003793d
   276 0001:00037944   279 0001:0003794b   282 0001:00037952   286 0001:00037959
   287 0001:0003795b   304 0001:00037990   308 0001:00037994   309 0001:000379af
   312 0001:000379bb   315 0001:000379c5   317 0001:000379cf   319 0001:000379d9
   320 0001:000379f1   321 0001:00037a00   337 0001:00037a10   347 0001:00037a21
   350 0001:00037a3e   351 0001:00037a65   354 0001:00037a7a   355 0001:00037a81
   356 0001:00037aab   357 0001:00037add   362 0001:00037aef   367 0001:00037b1b
   372 0001:00037b50   377 0001:00037b85   378 0001:00037bb0   380 0001:00037bc3
   381 0001:00037bdf   383 0001:00037bf8   385 0001:00037c0d   386 0001:00037c29
   388 0001:00037c42   389 0001:00037c44   391 0001:00037c56   395 0001:00037c5b
   396 0001:00037c86   398 0001:00037c98   399 0001:00037cb4   401 0001:00037cc9
   403 0001:00037cdd   404 0001:00037cf9   406 0001:00037d0e   407 0001:00037d10
   409 0001:00037d22   721 0001:00037d30   722 0001:00037d33   723 0001:00037d3c
   725 0001:00037d43   726 0001:00037d45   743 0001:00037d50   753 0001:00037d53
   754 0001:00037d5c   755 0001:00037d66   760 0001:00037d70   761 0001:00037d72

Line numbers for D:\Program Files\Microsoft Visual Studio .NET 2003\Vc7\lib\LIBCMTD.lib(f:\vs70builds\3077\vc\crtbld\crt\src\ismbbyte.c) segment .text

    77 0001:0003ef00    78 0001:0003ef03    79 0001:0003ef13    82 0001:0003ef20
    83 0001:0003ef23    84 0001:0003ef33    87 0001:0003ef40    88 0001:0003ef43
    89 0001:0003ef53    95 0001:0003ef60    96 0001:0003ef63    97 0001:0003ef76
   100 0001:0003ef80   101 0001:0003ef83   102 0001:0003ef96   105 0001:0003efa0
   106 0001:0003efa3   107 0001:0003efb6   110 0001:0003efc0   111 0001:0003efc3
   112 0001:0003efd6   115 0001:0003efe0   116 0001:0003efe3   117 0001:0003eff3
   123 0001:0003f000   124 0001:0003f003   125 0001:0003f013   128 0001:0003f020
   129 0001:0003f023   130 0001:0003f033   136 0001:0003f040   137 0001:0003f044
   138 0001:0003f077   149 0001:0003f080   150 0001:0003f086   154 0001:0003f08d
   155 0001:0003f0d7

Line numbers for D:\Program Files\Microsoft Visual Studio .NET 2003\Vc7\lib\LIBCMTD.lib(f:\vs70builds\3077\vc\crtbld\crt\src\write.c) segment .text

    62 0001:0002cbe0    67 0001:0002cc03    70 0001:0002cc2e    71 0001:0002cc39
    72 0001:0002cc44    75 0001:0002cc4c    77 0001:0002cc58    78 0001:0002cc5f
    79 0001:0002cc7f    80 0001:0002cc96    81 0001:0002cc98    82 0001:0002cca3
    83 0001:0002ccae    87 0001:0002ccc3    90 0001:0002ccd0    91 0001:0002ccd3
    99 0001:0002ccf0   137 0001:0002cd01   139 0001:0002cd17   140 0001:0002cd1d
   143 0001:0002cd24   147 0001:0002cd44   155 0001:0002cd56   158 0001:0002cd7c
   159 0001:0002cd85   161 0001:0002cd8f   162 0001:0002cda1   166 0001:0002cdad
   167 0001:0002cdd5   168 0001:0002cdf2   169 0001:0002cdfe   170 0001:0002ce0d
   172 0001:0002ce25   173 0001:0002ce42   180 0001:0002ce47   182 0001:0002ce8a
   183 0001:0002ce9c   184 0001:0002ceb2   186 0001:0002ceb4   187 0001:0002ceb6
   188 0001:0002cec2   190 0001:0002cec4   192 0001:0002cec9   198 0001:0002cecb
   200 0001:0002cf00   201 0001:0002cf0a   203 0001:0002cf16   204 0001:0002cf18
   207 0001:0002cf24   211 0001:0002cf31   213 0001:0002cf3a   216 0001:0002cf43
   217 0001:0002cf4e   219 0001:0002cf5b   220 0001:0002cf5d   221 0001:0002cf6c
   223 0001:0002cf71   224 0001:0002cf9c   226 0001:0002cfa0   227 0001:0002cfab
   228 0001:0002cfb6   233 0001:0002cfbb   234 0001:0002cfc7

Line numbers for D:\Program Files\Microsoft Visual Studio .NET 2003\Vc7\lib\LIBCMTD.lib(f:\vs70builds\3077\vc\crtbld\crt\src\setmode.c) segment .text

    47 0001:00042660    50 0001:00042683    52 0001:000426ae    53 0001:000426b9
    57 0001:000426be    59 0001:000426ca    60 0001:000426d1    62 0001:000426f1
    63 0001:00042704    64 0001:00042706    65 0001:00042711    70 0001:00042726
    74 0001:00042733    75 0001:00042736    99 0001:00042750   120 0001:00042754
   122 0001:00042777   123 0001:00042780   124 0001:000427bb   125 0001:000427c6
   126 0001:00042800   127 0001:00042802   128 0001:0004280d   131 0001:00042812
   133 0001:00042823

Line numbers for D:\Program Files\Microsoft Visual Studio .NET 2003\Vc7\lib\LIBCMTD.lib(f:\vs70builds\3077\vc\crtbld\crt\src\read.c) segment .text

    58 0001:0002c010    63 0001:0002c033    66 0001:0002c05e    67 0001:0002c069
    68 0001:0002c074    71 0001:0002c07c    73 0001:0002c088    74 0001:0002c08f
    75 0001:0002c0af    76 0001:0002c0c6    77 0001:0002c0c8    78 0001:0002c0d3
    79 0001:0002c0de    83 0001:0002c0f3    86 0001:0002c100    87 0001:0002c103
    95 0001:0002c120   134 0001:0002c126   135 0001:0002c12d   137 0001:0002c133
   139 0001:0002c159   142 0001:0002c160   145 0001:0002c1a0   146 0001:0002c1c8
   147 0001:0002c1d1   148 0001:0002c1da   154 0001:0002c1f5   165 0001:0002c227
   167 0001:0002c236   168 0001:0002c241   169 0001:0002c24b   171 0001:0002c253
   172 0001:0002c259   175 0001:0002c260   176 0001:0002c26c   180 0001:0002c274
   182 0001:0002c27d   186 0001:0002c2a4   187 0001:0002c2b5   188 0001:0002c2ed
   189 0001:0002c2ef   192 0001:0002c327   193 0001:0002c333   194 0001:0002c342
   196 0001:0002c34d   197 0001:0002c36d   198 0001:0002c3a5   200 0001:0002c3aa
   201 0001:0002c3b5   202 0001:0002c3d1   204 0001:0002c3d6   205 0001:0002c3e5
   206 0001:0002c3f1   207 0001:0002c3fa   209 0001:0002c409   210 0001:0002c40b
   212 0001:0002c427   216 0001:0002c42c   218 0001:0002c435   220 0001:0002c43c
   221 0001:0002c46c   223 0001:0002c475   225 0001:0002c481   227 0001:0002c490
   239 0001:0002c495   241 0001:0002c4b5   242 0001:0002c4be   243 0001:0002c4cd
   244 0001:0002c4cf   245 0001:0002c4de   248 0001:0002c4fb   250 0001:0002c4fd
   253 0001:0002c50e   255 0001:0002c51d   257 0001:0002c51f   258 0001:0002c532
   259 0001:0002c53b   265 0001:0002c54a   269 0001:0002c54f   272 0001:0002c558
   273 0001:0002c55b

Line numbers for D:\Program Files\Microsoft Visual Studio .NET 2003\Vc7\lib\LIBCMTD.lib(f:\vs70builds\3077\vc\crtbld\crt\src\osfinfo.c) segment .text

    49 0001:00038520    50 0001:00038543    55 0001:0003854a    56 0001:00038558
    59 0001:00038560    60 0001:0003856a    69 0001:00038571    75 0001:0003858d
    81 0001:0003859e    83 0001:000385ce    88 0001:000385de    89 0001:000385e7
    90 0001:000385f1    91 0001:000385f8    92 0001:00038601    97 0001:0003862e
    99 0001:00038636   102 0001:00038653   106 0001:0003865e   112 0001:0003866b
   113 0001:00038677   114 0001:00038684   117 0001:00038689   118 0001:00038692
   119 0001:000386b2   121 0001:000386b4   126 0001:000386b9   127 0001:000386bf
   129 0001:000386c4   134 0001:000386c9   140 0001:000386eb   141 0001:000386f8
   143 0001:00038707   144 0001:00038727   145 0001:0003872e   146 0001:00038737
   148 0001:0003873e   150 0001:00038748   156 0001:0003874a   158 0001:00038753
   162 0001:00038763   167 0001:0003876a   169 0001:0003876c   172 0001:0003877f
   180 0001:0003878a   181 0001:0003878d   207 0001:000387a0   210 0001:000387a4
   211 0001:000387cf   212 0001:000387d8   214 0001:000387f2   215 0001:000387fe
   217 0001:00038800   218 0001:0003880c   220 0001:0003880e   225 0001:0003881a
   226 0001:00038836   228 0001:0003883a   229 0001:00038845   230 0001:00038850
   232 0001:00038853   257 0001:00038860   260 0001:00038864   262 0001:000388b3
   263 0001:000388bc   265 0001:000388d6   266 0001:000388e0   268 0001:000388e2
   269 0001:000388ec   271 0001:000388ee   276 0001:000388f8   277 0001:00038915
   279 0001:00038919   280 0001:00038924   281 0001:0003892f   283 0001:00038932
   306 0001:00038940   307 0001:00038943   308 0001:0003896e   310 0001:00038989
   311 0001:00038994   312 0001:0003899f   314 0001:000389a2   339 0001:000389b0
   346 0001:000389d3   348 0001:000389d7   349 0001:000389df   351 0001:000389e9
   352 0001:000389f4   354 0001:00038a00   355 0001:00038a0b   359 0001:00038a15
   360 0001:00038a22   362 0001:00038a28   363 0001:00038a37   367 0001:00038a3f
   368 0001:00038a45   369 0001:00038a4f   370 0001:00038a57   375 0001:00038a61
   376 0001:00038a6f   377 0001:00038a7a   378 0001:00038a85   380 0001:00038a8a
   386 0001:00038a91   388 0001:00038aa1   390 0001:00038aab   393 0001:00038ad6
   396 0001:00038ae3   397 0001:00038ae6   425 0001:00038b00   426 0001:00038b23
   431 0001:00038b3c   433 0001:00038b45   434 0001:00038b4f   436 0001:00038b56
   437 0001:00038b5f   441 0001:00038b8c   443 0001:00038b91   447 0001:00038bae
   451 0001:00038bb9   453 0001:00038bda   454 0001:00038bdf   475 0001:00038bf0
   476 0001:00038bf3   477 0001:00038c14

Line numbers for D:\Program Files\Microsoft Visual Studio .NET 2003\Vc7\lib\LIBCMTD.lib(f:\vs70builds\3077\vc\crtbld\crt\src\open.c) segment .text

    89 0001:00038d30    95 0001:00038d53    98 0001:00038d5a    99 0001:00038d60
   100 0001:00038d72   104 0001:00038d79   110 0001:00038d80   113 0001:00038daf
   114 0001:00038db5   117 0001:00038dc2   125 0001:00038dc5   163 0001:00038de0
   169 0001:00038e03   171 0001:00038e0a   172 0001:00038e10   173 0001:00038e22
   175 0001:00038e29   181 0001:00038e30   184 0001:00038e61   185 0001:00038e67
   188 0001:00038e74   189 0001:00038e77   199 0001:00038e90   218 0001:00038e96
   219 0001:00038e9d   221 0001:00038ea4   222 0001:00038eae   223 0001:00038eb5
   225 0001:00038eb9   226 0001:00038ebb   227 0001:00038ec2   231 0001:00038ec6
   232 0001:00038ed1   233 0001:00038edc   234 0001:00038ee8   235 0001:00038ef6
   240 0001:00038f03   243 0001:00038f1c   244 0001:00038f23   246 0001:00038f25
   247 0001:00038f2c   249 0001:00038f2e   250 0001:00038f35   252 0001:00038f37
   253 0001:00038f42   254 0001:00038f4d   260 0001:00038f55   263 0001:00038f7b
   264 0001:00038f82   267 0001:00038f84   268 0001:00038f8b   271 0001:00038f8d
   272 0001:00038f94   275 0001:00038f96   276 0001:00038f9d   279 0001:00038f9f
   280 0001:00038faa   281 0001:00038fb5   287 0001:00038fbd   290 0001:00039026
   291 0001:0003902d   294 0001:0003902f   295 0001:00039036   299 0001:00039038
   300 0001:0003903f   304 0001:00039041   305 0001:00039048   308 0001:0003904a
   309 0001:00039051   313 0001:00039053   314 0001:0003905e   315 0001:00039069
   321 0001:00039071   323 0001:00039078   333 0001:00039083   334 0001:00039094
   340 0001:0003909b   341 0001:000390a3   342 0001:000390af   343 0001:000390ba
   344 0001:000390c3   350 0001:000390cc   351 0001:000390d7   356 0001:000390e2
   357 0001:000390ea   358 0001:000390f6   359 0001:00039100   366 0001:0003910c
   367 0001:0003911a   368 0001:00039125   369 0001:00039130   373 0001:00039138
   374 0001:00039141   387 0001:00039149   394 0001:00039172   395 0001:00039181
   399 0001:00039189   400 0001:0003919c   401 0001:000391a6   402 0001:000391b5
   406 0001:000391bd   407 0001:000391c3   408 0001:000391cd   409 0001:000391d5
   414 0001:000391df   420 0001:000391ef   421 0001:000391f9   424 0001:00039216
   431 0001:0003923f   434 0001:00039258   435 0001:00039265   436 0001:00039271
   439 0001:00039279   443 0001:0003927b   444 0001:0003927f   447 0001:0003929e
   449 0001:000392b3   450 0001:000392bf   455 0001:000392c4   456 0001:000392dd
   457 0001:000392e9   465 0001:000392ee   466 0001:000392ff   468 0001:00039337
   469 0001:0003933a

Line numbers for D:\Program Files\Microsoft Visual Studio .NET 2003\Vc7\lib\LIBCMTD.lib(f:\vs70builds\3077\vc\crtbld\crt\src\lseeki64.c) segment .text

    74 0001:00039390    80 0001:000393b3    83 0001:000393de    84 0001:000393e9
    85 0001:000393f4    88 0001:000393ff    89 0001:0003940b    90 0001:00039412
    91 0001:00039432    92 0001:00039450    93 0001:00039452    94 0001:0003945d
    95 0001:00039468    99 0001:00039484   102 0001:00039491   103 0001:00039497
   125 0001:000394b0   155 0001:000394b6   163 0001:000394c2   165 0001:000394d7
   166 0001:000394e2   174 0001:000394ed   176 0001:0003951b   177 0001:00039527
   180 0001:0003952f   181 0001:00039567   182 0001:0003956d

Line numbers for D:\Program Files\Microsoft Visual Studio .NET 2003\Vc7\lib\LIBCMTD.lib(f:\vs70builds\3077\vc\crtbld\crt\src\lseek.c) segment .text

    62 0001:00037ea0    67 0001:00037ec3    70 0001:00037eee    71 0001:00037ef9
    72 0001:00037f04    75 0001:00037f0c    77 0001:00037f18    78 0001:00037f1f
    79 0001:00037f3f    80 0001:00037f56    81 0001:00037f58    82 0001:00037f63
    83 0001:00037f6e    87 0001:00037f83    90 0001:00037f90    91 0001:00037f93
    99 0001:00037fb0   134 0001:00037fb6   136 0001:00037fcb   137 0001:00037fd6
   140 0001:00037fde   141 0001:00037ffb   142 0001:00038004   143 0001:00038006
   145 0001:0003800d   147 0001:00038013   148 0001:0003801f   151 0001:00038024
   152 0001:0003805c   153 0001:0003805f

Line numbers for D:\Program Files\Microsoft Visual Studio .NET 2003\Vc7\lib\LIBCMTD.lib(f:\vs70builds\3077\vc\crtbld\crt\src\isatty.c) segment .text

    37 0001:00038130    39 0001:00038133    40 0001:0003813e    43 0001:00038142
    44 0001:00038160

Line numbers for D:\Program Files\Microsoft Visual Studio .NET 2003\Vc7\lib\LIBCMTD.lib(f:\vs70builds\3077\vc\crtbld\crt\src\ioinit.c) segment .text

   115 0001:00032ff0   131 0001:00032ff6   133 0001:00033018   136 0001:00033020
   137 0001:00033028   139 0001:00033032   140 0001:0003304e   141 0001:00033055
   142 0001:0003305e   144 0001:00033065   146 0001:0003306f   151 0001:00033071
   154 0001:0003307b   159 0001:00033091   165 0001:00033099   166 0001:000330a2
   172 0001:000330ab   178 0001:000330c9   184 0001:000330ea   190 0001:0003310c
   191 0001:00033115   197 0001:00033117   198 0001:00033124   200 0001:00033133
   201 0001:00033153   202 0001:0003315a   203 0001:00033163   205 0001:0003316a
   207 0001:00033174   208 0001:00033176   213 0001:0003317b   225 0001:000331ab
   227 0001:000331dd   228 0001:000331f6   229 0001:00033200   233 0001:0003320b
   234 0001:00033223   235 0001:0003322b   238 0001:0003323a   246 0001:0003323f
   248 0001:0003325b   250 0001:0003326a   254 0001:00033276   258 0001:0003327d
   263 0001:000332c6   269 0001:000332ce   270 0001:000332db   271 0001:000332eb
   272 0001:000332fb   277 0001:0003330b   278 0001:00033323   279 0001:00033328
   282 0001:00033337   288 0001:00033339   291 0001:00033349   296 0001:0003334b
   298 0001:0003335e   303 0001:00033363   305 0001:0003336f   306 0001:00033371
   331 0001:00033380   337 0001:00033386   339 0001:0003339e   346 0001:000333ab
   348 0001:000333d7   349 0001:000333e0   350 0001:000333ed   355 0001:000333ef
   356 0001:00033404   358 0001:00033412   359 0001:00033417

Line numbers for D:\Program Files\Microsoft Visual Studio .NET 2003\Vc7\lib\LIBCMTD.lib(f:\vs70builds\3077\vc\crtbld\crt\src\commit.c) segment .text

    39 0001:00038c20    44 0001:00038c43    46 0001:00038c6e    47 0001:00038c79
    51 0001:00038c81    52 0001:00038c8d    53 0001:00038c94    56 0001:00038cb4
    57 0001:00038ccb    59 0001:00038cd4    60 0001:00038cd6    64 0001:00038cdd
    65 0001:00038ce3    67 0001:00038ce5    73 0001:00038cef    74 0001:00038cfa
    80 0001:00038d0f    83 0001:00038d1c    84 0001:00038d1f

Line numbers for D:\Program Files\Microsoft Visual Studio .NET 2003\Vc7\lib\LIBCMTD.lib(f:\vs70builds\3077\vc\crtbld\crt\src\close.c) segment .text

    43 0001:0002b8e0    48 0001:0002b903    51 0001:0002b92e    52 0001:0002b939
    53 0001:0002b944    56 0001:0002b949    58 0001:0002b955    59 0001:0002b95c
    60 0001:0002b97c    61 0001:0002b98b    62 0001:0002b98d    63 0001:0002b998
    67 0001:0002b9ad    70 0001:0002b9ba    71 0001:0002b9bd    77 0001:0002b9d0
   115 0001:0002b9d5   118 0001:0002ba23   120 0001:0002ba2a   121 0001:0002ba2c
   123 0001:0002ba35   125 0001:0002ba41   127 0001:0002ba5c   129 0001:0002ba62
   130 0001:0002ba6e   133 0001:0002ba73   134 0001:0002ba75

Line numbers for D:\Program Files\Microsoft Visual Studio .NET 2003\Vc7\lib\LIBCMTD.lib(f:\vs70builds\3077\vc\crtbld\crt\src\chsize.c) segment .text

    53 0001:000408f0    57 0001:00040913    59 0001:0004093e    60 0001:00040949
    63 0001:0004094e    65 0001:0004095a    66 0001:00040961    67 0001:00040981
    68 0001:00040994    69 0001:00040996    70 0001:000409a1    74 0001:000409b6
    77 0001:000409c3    78 0001:000409c6    85 0001:000409e0    91 0001:000409f6
    93 0001:000409ff   121 0001:00040a06   125 0001:00040a2a   126 0001:00040a5c
   128 0001:00040a64   132 0001:00040a6d   136 0001:00040a77   137 0001:00040a8a
   142 0001:00040a9e   147 0001:00040ac5   150 0001:00040b03   151 0001:00040b0d
   153 0001:00040b18   154 0001:00040b1e   157 0001:00040b20   159 0001:00040b33
   163 0001:00040b43   169 0001:00040b4b   172 0001:00040b5d   174 0001:00040b80
   175 0001:00040b8b   186 0001:00040b9a   187 0001:00040bac   188 0001:00040baf

Line numbers for D:\Program Files\Microsoft Visual Studio .NET 2003\Vc7\lib\LIBCMTD.lib(F:\VS70Builds\3077\vc\crtbld\crt\src\intel\ullrem.asm) segment .text

    46 0001:000382e0    44 0001:000382e0    77 0001:000382e1    78 0001:000382e5
    79 0001:000382e7    80 0001:000382e9    81 0001:000382ed    82 0001:000382f1
    83 0001:000382f3    84 0001:000382f5    85 0001:000382f9    86 0001:000382fb
    87 0001:000382fd    88 0001:000382ff    95 0001:00038301    96 0001:00038303
    97 0001:00038307    98 0001:0003830b   100 0001:0003830f   101 0001:00038311
   102 0001:00038313   103 0001:00038315   104 0001:00038317   105 0001:00038319
   106 0001:0003831b   115 0001:0003831d   116 0001:0003831f   117 0001:00038323
   118 0001:00038324   119 0001:00038328   120 0001:0003832a   128 0001:0003832c
   129 0001:00038330   130 0001:00038332   131 0001:00038334   132 0001:00038338
   134 0001:0003833a   135 0001:0003833e   144 0001:00038342   145 0001:00038346
   146 0001:0003834a   147 0001:0003834c   148 0001:0003834e   157 0001:00038351
   159 0001:00038352

Line numbers for D:\Program Files\Microsoft Visual Studio .NET 2003\Vc7\lib\LIBCMTD.lib(F:\VS70Builds\3077\vc\crtbld\crt\src\intel\ulldiv.asm) segment .text

    46 0001:00038270    44 0001:00038270    47 0001:00038271    81 0001:00038272
    82 0001:00038276    83 0001:00038278    84 0001:0003827a    85 0001:0003827e
    86 0001:00038282    87 0001:00038284    88 0001:00038286    89 0001:00038288
    90 0001:0003828c    91 0001:0003828e    92 0001:00038290    99 0001:00038292
   100 0001:00038294   101 0001:00038298   102 0001:0003829c   104 0001:000382a0
   105 0001:000382a2   106 0001:000382a4   107 0001:000382a6   108 0001:000382a8
   109 0001:000382aa   110 0001:000382ac   111 0001:000382ae   120 0001:000382b0
   121 0001:000382b4   122 0001:000382b6   123 0001:000382ba   124 0001:000382bc
   125 0001:000382be   133 0001:000382c0   134 0001:000382c4   135 0001:000382c6
   136 0001:000382c8   137 0001:000382cc   139 0001:000382ce   141 0001:000382cf
   142 0001:000382d1   151 0001:000382d3   152 0001:000382d4   154 0001:000382d5

Line numbers for D:\Program Files\Microsoft Visual Studio .NET 2003\Vc7\lib\LIBCMTD.lib(F:\VS70Builds\3077\vc\crtbld\crt\src\intel\llmul.asm) segment .text

    62 0001:00042db0    47 0001:00042db0    63 0001:00042db4    64 0001:00042db8
    65 0001:00042dba    66 0001:00042dbe    68 0001:00042dc0    69 0001:00042dc4
    71 0001:00042dc6    74 0001:00042dc9    81 0001:00042dca    82 0001:00042dcc
    84 0001:00042dce    85 0001:00042dd2    86 0001:00042dd6    88 0001:00042dd8
    89 0001:00042ddc    90 0001:00042dde    92 0001:00042de0    94 0001:00042de1

Line numbers for D:\Program Files\Microsoft Visual Studio .NET 2003\Vc7\lib\LIBCMTD.lib(f:\vs70builds\3077\vc\crtbld\crt\src\handler.cpp) segment .text

    39 0001:0002e6b0    43 0001:0002e6b4    45 0001:0002e6be    46 0001:0002e6c6
    49 0001:0002e6cf    51 0001:0002e6d9    52 0001:0002e6dc    73 0001:0002e6e0
    74 0001:0002e6e3    75 0001:0002e6e8    94 0001:0002e6f0    96 0001:0002e6f4
    98 0001:0002e6fc    99 0001:0002e710   101 0001:0002e714   102 0001:0002e719

Line numbers for D:\Program Files\Microsoft Visual Studio .NET 2003\Vc7\lib\LIBCMTD.lib(f:\vs70builds\3077\vc\crtbld\crt\src\sbheap.c) segment .text

    58 0001:0002ee80    60 0001:0002ee83    61 0001:0002ee8c    68 0001:0002ee93
    69 0001:0002ee95    89 0001:0002eea0    91 0001:0002eea3    94 0001:0002eeac
    96 0001:0002eeb5    97 0001:0002eebd   100 0001:0002eec4   152 0001:0002eec8
   156 0001:0002eed7   158 0001:0002eef0   159 0001:0002eef9   160 0001:0002ef03
   166 0001:0002ef0a   167 0001:0002ef0c   188 0001:0002ef10   189 0001:0002ef13
   190 0001:0002ef34   192 0001:0002ef38   193 0001:0002ef41   194 0001:0002ef4d
   195 0001:0002ef57   196 0001:0002ef61   198 0001:0002ef6b   199 0001:0002ef70
   220 0001:0002ef80   221 0001:0002ef86   227 0001:0002ef97   228 0001:0002efa0
   230 0001:0002efa8   231 0001:0002efb4   232 0001:0002efbd   233 0001:0002efc2
   234 0001:0002efcb   235 0001:0002efcd   236 0001:0002efcf   258 0001:0002efe0
   263 0001:0002efe6   264 0001:0002eff2   272 0001:0002effb   273 0001:0002f032
   295 0001:0002f040   313 0001:0002f046   316 0001:0002f04f   317 0001:0002f05b
   318 0001:0002f064   321 0001:0002f07a   322 0001:0002f083   326 0001:0002f08e
   327 0001:0002f096   330 0001:0002f09b   331 0001:0002f0a4   334 0001:0002f0ac
   338 0001:0002f0b5   343 0001:0002f0c1   344 0001:0002f0cd   345 0001:0002f0d3
   348 0001:0002f0da   353 0001:0002f0ec   355 0001:0002f0f2   356 0001:0002f112
   357 0001:0002f134   359 0001:0002f14a   362 0001:0002f14c   363 0001:0002f175
   364 0001:0002f197   369 0001:0002f1b2   370 0001:0002f1c1   373 0001:0002f1d0
   377 0001:0002f1d9   378 0001:0002f1e5   379 0001:0002f1eb   382 0001:0002f1f2
   388 0001:0002f1fe   391 0001:0002f207   392 0001:0002f213   393 0001:0002f219
   397 0001:0002f220   398 0001:0002f229   399 0001:0002f235   400 0001:0002f23b
   403 0001:0002f242   407 0001:0002f24e   412 0001:0002f260   415 0001:0002f266
   416 0001:0002f286   417 0001:0002f2a9   419 0001:0002f2bf   422 0001:0002f2c1
   423 0001:0002f2ea   425 0001:0002f30c   430 0001:0002f327   431 0001:0002f336
   434 0001:0002f345   438 0001:0002f34b   442 0001:0002f35f   443 0001:0002f36b
   444 0001:0002f377   445 0001:0002f380   446 0001:0002f389   449 0001:0002f395
   453 0001:0002f3a7   455 0001:0002f3ad   456 0001:0002f3d0   457 0001:0002f3e4
   459 0001:0002f402   461 0001:0002f404   462 0001:0002f427   464 0001:0002f440
   470 0001:0002f467   472 0001:0002f46f   475 0001:0002f47b   478 0001:0002f494
   482 0001:0002f4a1   483 0001:0002f4b6   487 0001:0002f4ca   491 0001:0002f4e8
   492 0001:0002f502   493 0001:0002f52e   497 0001:0002f542   500 0001:0002f552
   503 0001:0002f569   509 0001:0002f581   510 0001:0002f5b4   513 0001:0002f5c3
   514 0001:0002f5ce   517 0001:0002f5d7   522 0001:0002f5e3   523 0001:0002f5eb
   525 0001:0002f5f4   546 0001:0002f600   547 0001:0002f607   564 0001:0002f618
   582 0001:0002f624   583 0001:0002f630   585 0001:0002f636   586 0001:0002f641
   588 0001:0002f648   590 0001:0002f64a   591 0001:0002f651   596 0001:0002f65f
   597 0001:0002f667   600 0001:0002f66f   601 0001:0002f684   602 0001:0002f686
   603 0001:0002f68f   606 0001:0002f691   608 0001:0002f69d   609 0001:0002f6a6
   612 0001:0002f6b1   613 0001:0002f6c6   614 0001:0002f6c8   615 0001:0002f6d1
   619 0001:0002f6d3   621 0001:0002f6e2   623 0001:0002f6ea   624 0001:0002f6f3
   625 0001:0002f6f5   626 0001:0002f6fe   629 0001:0002f700   631 0001:0002f708
   632 0001:0002f711   634 0001:0002f71c   635 0001:0002f725   636 0001:0002f727
   637 0001:0002f730   640 0001:0002f732   641 0001:0002f73d   642 0001:0002f74b
   647 0001:0002f752   648 0001:0002f771   651 0001:0002f778   653 0001:0002f781
   654 0001:0002f78a   659 0001:0002f792   663 0001:0002f7b9   665 0001:0002f7c0
   666 0001:0002f7e1   668 0001:0002f7ec   671 0001:0002f802   674 0001:0002f809
   676 0001:0002f81b   677 0001:0002f822   679 0001:0002f835   681 0001:0002f83b
   682 0001:0002f843   683 0001:0002f84c   684 0001:0002f84e   689 0001:0002f85b
   690 0001:0002f866   691 0001:0002f872   692 0001:0002f878   695 0001:0002f87f
   698 0001:0002f88b   702 0001:0002f89d   705 0001:0002f8a3   706 0001:0002f8c3
   707 0001:0002f8e5   709 0001:0002f8fb   712 0001:0002f8fd   713 0001:0002f926
   714 0001:0002f948   719 0001:0002f963   720 0001:0002f972   723 0001:0002f981
   727 0001:0002f98b   728 0001:0002f997   729 0001:0002f9a3   730 0001:0002f9ac
   731 0001:0002f9b5   734 0001:0002f9c1   738 0001:0002f9d3   740 0001:0002f9d9
   741 0001:0002f9fc   743 0001:0002fa10   745 0001:0002fa2e   747 0001:0002fa30
   749 0001:0002fa53   751 0001:0002fa6c   758 0001:0002fa93   760 0001:0002fa99
   762 0001:0002faa1   766 0001:0002faad   767 0001:0002fab6   769 0001:0002fac1
   772 0001:0002fad0   776 0001:0002fae6   777 0001:0002fafc   780 0001:0002fb06
   782 0001:0002fb0e   783 0001:0002fb14   805 0001:0002fb20   811 0001:0002fb24
   814 0001:0002fb31   815 0001:0002fb5c   818 0001:0002fb63   819 0001:0002fb6c
   823 0001:0002fb7b   827 0001:0002fb8c   828 0001:0002fbaf   832 0001:0002fbb3
   834 0001:0002fbd6   835 0001:0002fbec   839 0001:0002fbf0   840 0001:0002fbf9
   841 0001:0002fc03   844 0001:0002fc0d   847 0001:0002fc1a   849 0001:0002fc26
   850 0001:0002fc29   872 0001:0002fc30   873 0001:0002fc36   886 0001:0002fc3f
   887 0001:0002fc48   888 0001:0002fc4f   890 0001:0002fc55   891 0001:0002fc5d
   892 0001:0002fc66   895 0001:0002fc68   897 0001:0002fc7e   899 0001:0002fc96
   900 0001:0002fca2   901 0001:0002fcb4   905 0001:0002fcb6   907 0001:0002fcc5
   908 0001:0002fcdf   912 0001:0002fce7   915 0001:0002fcf3   918 0001:0002fd0f
   919 0001:0002fd19   922 0001:0002fd26   923 0001:0002fd2f   925 0001:0002fd38
   927 0001:0002fd47   929 0001:0002fd55   930 0001:0002fd61   931 0001:0002fd6a
   935 0001:0002fd6c   937 0001:0002fd78   938 0001:0002fd8d   941 0001:0002fd96
   942 0001:0002fdab   944 0001:0002fdb4   945 0001:0002fdc2   946 0001:0002fdd3
   947 0001:0002fdec   950 0001:0002fdfb   952 0001:0002fe13   953 0001:0002fe16
   975 0001:0002fe20   991 0001:0002fe26   994 0001:0002fe32   997 0001:0002fe3b
   998 0001:0002fe47   999 0001:0002fe50  1002 0001:0002fe66  1003 0001:0002fe6f
  1006 0001:0002fe7a  1007 0001:0002fe83  1010 0001:0002fe8b  1013 0001:0002fe97
  1014 0001:0002feaa  1019 0001:0002feb1  1020 0001:0002febd  1021 0001:0002fec3
  1024 0001:0002feca  1029 0001:0002fedc  1031 0001:0002fee2  1032 0001:0002ff02
  1033 0001:0002ff24  1035 0001:0002ff3a  1038 0001:0002ff3c  1039 0001:0002ff65
  1040 0001:0002ff87  1045 0001:0002ffa2  1046 0001:0002ffb1  1049 0001:0002ffc0
  1052 0001:0002ffd6  1055 0001:0002ffdf  1056 0001:0002ffeb  1057 0001:0002fff1
  1061 0001:0002fff8  1062 0001:00030004  1063 0001:00030010  1064 0001:00030019
  1065 0001:00030022  1068 0001:0003002e  1072 0001:00030040  1074 0001:00030046
  1075 0001:00030069  1076 0001:0003007d  1078 0001:0003009b  1080 0001:0003009d
  1081 0001:000300c0  1083 0001:000300d9  1088 0001:00030100  1090 0001:00030108
  1094 0001:00030114  1096 0001:0003011f  1100 0001:0003012e  1103 0001:0003013f
  1105 0001:0003014a  1108 0001:00030159  1109 0001:00030162  1112 0001:0003016b
  1113 0001:00030177  1114 0001:0003017d  1117 0001:00030184  1122 0001:00030190
  1123 0001:0003019c  1124 0001:000301a2  1127 0001:000301a9  1132 0001:000301bb
  1135 0001:000301c1  1136 0001:000301e1  1137 0001:00030203  1139 0001:00030219
  1142 0001:0003021b  1143 0001:00030244  1145 0001:00030266  1150 0001:00030281
  1151 0001:00030290  1154 0001:0003029f  1155 0001:000302a8  1156 0001:000302b4
  1157 0001:000302ba  1163 0001:000302c1  1164 0001:000302cd  1165 0001:000302d9
  1166 0001:000302e2  1167 0001:000302eb  1170 0001:000302f7  1174 0001:00030309
  1176 0001:0003030f  1177 0001:00030332  1178 0001:00030346  1180 0001:00030364
  1182 0001:00030366  1183 0001:00030389  1185 0001:000303a2  1190 0001:000303c9
  1192 0001:000303d1  1195 0001:000303dd  1196 0001:000303e2  1216 0001:000303f0
  1220 0001:000303f4  1224 0001:00030401  1225 0001:00030415  1228 0001:00030429
  1232 0001:00030448  1233 0001:00030461  1234 0001:0003048b  1239 0001:000304a0
  1242 0001:000304b5  1247 0001:000304cd  1248 0001:000304ff  1252 0001:0003050e
  1254 0001:00030518  1275 0001:00030520  1306 0001:00030529  1307 0001:00030543
  1310 0001:0003054b  1311 0001:00030554  1314 0001:00030581  1315 0001:0003058a
  1316 0001:0003059d  1319 0001:000305a7  1320 0001:000305b0  1321 0001:000305bc
  1322 0001:000305c8  1323 0001:000305cf  1324 0001:000305d6  1327 0001:000305f2
  1328 0001:000305f9  1329 0001:00030600  1330 0001:00030607  1331 0001:0003062b
  1334 0001:0003063e  1337 0001:0003064b  1338 0001:0003065e  1341 0001:00030668
  1342 0001:0003066e  1345 0001:0003068a  1347 0001:00030693  1351 0001:0003069f
  1352 0001:000306b0  1358 0001:000306ba  1359 0001:000306cb  1362 0001:000306d6
  1365 0001:000306df  1366 0001:000306e8  1369 0001:000306f2  1371 0001:000306fb
  1375 0001:000306fd  1376 0001:0003070c  1377 0001:00030715  1378 0001:0003071f
  1383 0001:0003073c  1384 0001:00030753  1388 0001:0003075d  1389 0001:0003076e
  1392 0001:00030778  1394 0001:00030781  1397 0001:0003078d  1398 0001:00030795
  1401 0001:0003079f  1402 0001:000307aa  1405 0001:000307af  1406 0001:000307b9
  1410 0001:000307c3  1411 0001:000307c9  1415 0001:000307f1  1416 0001:000307f8
  1418 0001:000307fe  1422 0001:00030829  1423 0001:0003083e  1427 0001:00030848
  1431 0001:00030854  1433 0001:0003085d  1437 0001:00030868  1440 0001:00030870
  1441 0001:00030878  1445 0001:0003087a  1446 0001:00030888  1449 0001:0003088a
  1450 0001:00030892  1454 0001:0003089c  1455 0001:000308ad  1456 0001:000308b6
  1457 0001:000308c0  1458 0001:000308ce  1462 0001:000308d8  1463 0001:000308e3
  1466 0001:000308ed  1467 0001:000308f3  1468 0001:000308fc  1472 0001:00030901
  1474 0001:00030907  1476 0001:00030910  1477 0001:00030923  1479 0001:00030936
  1481 0001:00030938  1482 0001:0003094e  1488 0001:00030964  1489 0001:00030981
  1493 0001:0003098b  1494 0001:00030996  1498 0001:000309a0  1499 0001:000309a9
  1504 0001:000309ae  1505 0001:000309cf  1508 0001:000309d6  1509 0001:000309e2
  1510 0001:000309ed  1511 0001:000309fb  1515 0001:00030a00  1516 0001:00030a15
  1519 0001:00030a1c  1520 0001:00030a25  1521 0001:00030a2a  1522 0001:00030a2c

Line numbers for D:\Program Files\Microsoft Visual Studio .NET 2003\Vc7\lib\LIBCMTD.lib(f:\vs70builds\3077\vc\crtbld\crt\src\realloc.c) segment .text

    64 0001:0002e9a0    66 0001:0002e9c3    69 0001:0002e9c9    70 0001:0002e9cf
    73 0001:0002e9e0    75 0001:0002e9e6    76 0001:0002e9f2    81 0001:0002e9f9
    88 0001:0002ea06    89 0001:0002ea0d    92 0001:0002ea17    93 0001:0002ea21
    98 0001:0002ea28   102 0001:0002ea41   104 0001:0002ea50   105 0001:0002ea68
   106 0001:0002ea6e   109 0001:0002ea85   110 0001:0002ea91   112 0001:0002eabb
   113 0001:0002eaca   120 0001:0002eada   122 0001:0002eae0   123 0001:0002eae6
   125 0001:0002eaed   126 0001:0002eaf9   129 0001:0002eb15   130 0001:0002eb21
   131 0001:0002eb4b   140 0001:0002eb69   146 0001:0002eb74   148 0001:0002eb7a
   149 0001:0002eb80   151 0001:0002eb87   152 0001:0002eb93   156 0001:0002ebad
   163 0001:0002ebbc   167 0001:0002ebc1   168 0001:0002ebd1   171 0001:0002ebd5
   267 0001:0002ebda   268 0001:0002ebe1   270 0001:0002ebe7   271 0001:0002ebed
   272 0001:0002ebf4   275 0001:0002ec0e   282 0001:0002ec1d   286 0001:0002ec22
   287 0001:0002ec32   290 0001:0002ec36   292 0001:0002ec38

Line numbers for D:\Program Files\Microsoft Visual Studio .NET 2003\Vc7\lib\LIBCMTD.lib(f:\vs70builds\3077\vc\crtbld\crt\src\malloc.c) segment .text

    53 0001:0002e720    54 0001:0002e724    58 0001:0002e739    59 0001:0002e73c
    90 0001:0002e740    94 0001:0002e744    95 0001:0002e74a   105 0001:0002e74e
   106 0001:0002e754   107 0001:0002e763   108 0001:0002e765   113 0001:0002e76c
   114 0001:0002e778   117 0001:0002e77d   118 0001:0002e78d   121 0001:0002e791
   122 0001:0002e793   142 0001:0002e7a0   152 0001:0002e7c3   156 0001:0002e7cc
   159 0001:0002e7d7   160 0001:0002e7e1   162 0001:0002e7e8   166 0001:0002e805
   169 0001:0002e810   170 0001:0002e816   205 0001:0002e81b   206 0001:0002e821
   208 0001:0002e828   209 0001:0002e831   211 0001:0002e83d   212 0001:0002e850

Line numbers for D:\Program Files\Microsoft Visual Studio .NET 2003\Vc7\lib\LIBCMTD.lib(f:\vs70builds\3077\vc\crtbld\crt\src\heapinit.c) segment .text

    69 0001:0002ed20    70 0001:0002ed24   123 0001:0002ed2b   124 0001:0002ed3d
   139 0001:0002ed44   142 0001:0002ed49   170 0001:0002ed50   173 0001:0002ed53
   174 0001:0002ed78   178 0001:0002ed7c   180 0001:0002ed86   183 0001:0002ed8f
   185 0001:0002eda0   186 0001:0002edad   201 0001:0002edb1   202 0001:0002edb6
   223 0001:0002edc0   226 0001:0002edc6   228 0001:0002edd3   232 0001:0002eddb
   235 0001:0002edf8   236 0001:0002ee0f   239 0001:0002ee23   241 0001:0002ee38
   242 0001:0002ee41   244 0001:0002ee43   263 0001:0002ee58   264 0001:0002ee65
   282 0001:0002ee70   283 0001:0002ee73   284 0001:0002ee78

Line numbers for D:\Program Files\Microsoft Visual Studio .NET 2003\Vc7\lib\LIBCMTD.lib(f:\vs70builds\3077\vc\crtbld\crt\src\heapchk.c) segment .text

    62 0001:0002ec50    63 0001:0002ec73    66 0001:0002ec7a    69 0001:0002ec83
    70 0001:0002ec8d    73 0001:0002ec94    74 0001:0002ec9d    79 0001:0002ecb2
   104 0001:0002ecbd   106 0001:0002ecd1   108 0001:0002ecdc   109 0001:0002ece7
   111 0001:0002ecf2   112 0001:0002ecf4   114 0001:0002ecfb   115 0001:0002ecfe
   122 0001:0002ed10   123 0001:0002ed13   124 0001:0002ed18

Line numbers for D:\Program Files\Microsoft Visual Studio .NET 2003\Vc7\lib\LIBCMTD.lib(f:\vs70builds\3077\vc\crtbld\crt\src\free.c) segment .text

    42 0001:000297e0    45 0001:00029803    46 0001:00029809    51 0001:0002980e
    56 0001:00029817    57 0001:00029821    60 0001:00029828    61 0001:0002983d
    66 0001:0002985b    70 0001:00029866    71 0001:0002986c    98 0001:0002987f
   101 0001:00029881   103 0001:00029893

Line numbers for D:\Program Files\Microsoft Visual Studio .NET 2003\Vc7\lib\LIBCMTD.lib(f:\vs70builds\3077\vc\crtbld\crt\src\expand.c) segment .text

    57 0001:0002e880    62 0001:0002e8a3    63 0001:0002e8a9    66 0001:0002e8b0
    71 0001:0002e8bd    72 0001:0002e8c7    77 0001:0002e8ce    79 0001:0002e8e3
    81 0001:0002e8ea    82 0001:0002e90d    88 0001:0002e921    92 0001:0002e92c
    95 0001:0002e932    96 0001:0002e938    97 0001:0002e93f   100 0001:0002e94b
   149 0001:0002e964   153 0001:0002e966   154 0001:0002e96c   157 0001:0002e973
   167 0001:0002e98c   168 0001:0002e98f

Line numbers for D:\Program Files\Microsoft Visual Studio .NET 2003\Vc7\lib\LIBCMTD.lib(f:\vs70builds\3077\vc\crtbld\crt\src\resetstk.c) segment .text

    30 0001:00041710    40 0001:00041716    44 0001:00041729    45 0001:0004173d
    46 0001:00041744    51 0001:0004174a    52 0001:00041754    55 0001:0004175a
    63 0001:0004176b    65 0001:00041788    66 0001:00041790    73 0001:00041797
    77 0001:000417a0    79 0001:000417a6    80 0001:000417ba    81 0001:000417c1
    82 0001:000417ca    83 0001:000417d5    88 0001:000417db    89 0001:000417e5
    94 0001:000417ec    95 0001:000417f4   100 0001:000417f8   101 0001:00041800
   103 0001:00041806   105 0001:0004181b   106 0001:0004181d   113 0001:00041823
   115 0001:0004183c   116 0001:00041852

Line numbers for D:\Program Files\Microsoft Visual Studio .NET 2003\Vc7\lib\LIBCMTD.lib(f:\vs70builds\3077\vc\crtbld\crt\src\dosmap.c) segment .text

   110 0001:0002c8f0   113 0001:0002c8f4   116 0001:0002c8fe   117 0001:0002c916
   118 0001:0002c925   119 0001:0002c936   121 0001:0002c938   127 0001:0002c93a
   128 0001:0002c946   129 0001:0002c951   130 0001:0002c965   131 0001:0002c970
   132 0001:0002c972   133 0001:0002c97d   160 0001:0002c990   161 0001:0002c993
   162 0001:0002c99b   167 0001:0002c9a0   168 0001:0002c9a3   169 0001:0002c9ab

Line numbers for D:\Program Files\Microsoft Visual Studio .NET 2003\Vc7\lib\LIBCMTD.lib(f:\vs70builds\3077\vc\crtbld\crt\src\xtoa.c) segment .text

    92 0001:00032710    93 0001:00032713    94 0001:0003271f    95 0001:00032735
    96 0001:00032737    97 0001:0003274d    98 0001:00032750    43 0001:00032760
    49 0001:00032766    51 0001:0003276c    53 0001:00032772    54 0001:00032781
    57 0001:00032789    60 0001:0003278f    61 0001:0003279a    64 0001:000327a5
    65 0001:000327ab    66 0001:000327bf    67 0001:000327c1    68 0001:000327d5
    73 0001:000327db    76 0001:000327ea    77 0001:000327f2    78 0001:000327fc
    79 0001:00032804    80 0001:0003280d    81 0001:00032816    82 0001:0003281e
   105 0001:00032830   106 0001:00032834   107 0001:00032868   108 0001:0003286b
   115 0001:00032870   116 0001:00032873   117 0001:00032889   118 0001:0003288c
   177 0001:00032890   178 0001:00032894   179 0001:000328d1   180 0001:000328d4
   128 0001:000328e0   134 0001:000328e6   136 0001:000328ec   138 0001:000328f2
   139 0001:00032901   142 0001:00032914   145 0001:0003291a   146 0001:00032931
   149 0001:0003294b   150 0001:00032951   151 0001:00032965   152 0001:00032967
   153 0001:0003297b   158 0001:00032989   161 0001:00032998   162 0001:000329a0
   163 0001:000329aa   164 0001:000329b2   165 0001:000329bb   166 0001:000329c4
   167 0001:000329cc   187 0001:000329e0   188 0001:000329e3   189 0001:000329fa
   190 0001:000329fd

Line numbers for D:\Program Files\Microsoft Visual Studio .NET 2003\Vc7\lib\LIBCMTD.lib(f:\vs70builds\3077\vc\crtbld\crt\src\wctomb.c) segment .text

    48 0001:00038170    50 0001:00038174    52 0001:0003817f    53 0001:0003818a
    55 0001:00038192    56 0001:000381a7    63 0001:000381b0    65 0001:000381b6
    67 0001:000381bc    71 0001:000381c3    76 0001:000381cc    78 0001:000381d8
    79 0001:000381e3    82 0001:000381e8    83 0001:000381f0    88 0001:000381f7
   106 0001:000381fe   108 0001:00038233   109 0001:0003823e   112 0001:00038243
   115 0001:00038246

Line numbers for D:\Program Files\Microsoft Visual Studio .NET 2003\Vc7\lib\LIBCMTD.lib(f:\vs70builds\3077\vc\crtbld\crt\src\tolower.c) segment .text

    47 0001:00036620    48 0001:00036623    49 0001:00036629    72 0001:00036630
    75 0001:00036634    77 0001:0003663f    78 0001:0003664a    80 0001:00036652
    81 0001:00036662   101 0001:00036670   115 0001:00036676   116 0001:0003668e
   120 0001:000366b3   123 0001:000366bc   128 0001:000366f7   134 0001:000366ff
   139 0001:0003671f   140 0001:0003672e   141 0001:00036734   142 0001:00036738
   143 0001:0003673f   144 0001:00036741   145 0001:00036747   146 0001:0003674b
   165 0001:00036752   167 0001:00036786   171 0001:0003678b   172 0001:00036791
   174 0001:00036797   176 0001:000367a4

Line numbers for D:\Program Files\Microsoft Visual Studio .NET 2003\Vc7\lib\LIBCMTD.lib(f:\vs70builds\3077\vc\crtbld\crt\src\isctype.c) segment .text

    55 0001:00031ce0    56 0001:00031ce3    57 0001:00031d0e    58 0001:00031d1d
    67 0001:00031d20    68 0001:00031d23    69 0001:00031d4e    70 0001:00031d5e
   106 0001:00031d60   108 0001:00031d64   110 0001:00031d6f   111 0001:00031d7a
   113 0001:00031d82   114 0001:00031d96   121 0001:00031da0   128 0001:00031da6
   130 0001:00031db3   136 0001:00031dc8   141 0001:00031de9   142 0001:00031df7
   143 0001:00031dfd   144 0001:00031e01   145 0001:00031e08   146 0001:00031e0a
   147 0001:00031e10   148 0001:00031e14   162 0001:00031e1b   164 0001:00031e45
   167 0001:00031e49   168 0001:00031e50

Line numbers for D:\Program Files\Microsoft Visual Studio .NET 2003\Vc7\lib\LIBCMTD.lib(f:\vs70builds\3077\vc\crtbld\crt\src\atox.c) segment .text

    48 0001:00041f30    53 0001:00041f36    55 0001:00041f41    56 0001:00041f4c
    59 0001:00041f54    63 0001:00041f95    65 0001:00041fa0    66 0001:00041fb2
    67 0001:00041fb8    68 0001:00041fc4    70 0001:00041fd6    72 0001:00041fdd
    73 0001:00042007    74 0001:00042013    75 0001:00042025    77 0001:00042027
    78 0001:0004202d    80 0001:00042034    81 0001:00042037   106 0001:00042040
   107 0001:00042043   108 0001:0004204f   115 0001:00042060   120 0001:00042067
   122 0001:00042072   123 0001:0004207d   126 0001:00042085   130 0001:000420c6
   132 0001:000420d1   133 0001:000420e3   134 0001:000420e9   135 0001:000420f5
   137 0001:00042107   139 0001:00042115   140 0001:0004213f   141 0001:00042162
   142 0001:00042174   144 0001:00042176   145 0001:0004217c   147 0001:0004218b
   148 0001:00042191

Line numbers for D:\Program Files\Microsoft Visual Studio .NET 2003\Vc7\lib\LIBCMTD.lib(f:\vs70builds\3077\vc\crtbld\crt\src\_fptostr.c) segment .text

    46 0001:00036fa0    47 0001:00036fa6    48 0001:00036fac    56 0001:00036fb5
    62 0001:00036fc4    63 0001:00036fca    64 0001:00037000    65 0001:00037009
    66 0001:0003700b    73 0001:00037011    74 0001:00037022    75 0001:0003702b
    76 0001:00037036    77 0001:00037047    80 0001:00037055    85 0001:00037060
    87 0001:0003706f    91 0001:00037071    93 0001:00037097

Line numbers for D:\Program Files\Microsoft Visual Studio .NET 2003\Vc7\lib\LIBCMTD.lib(f:\vs70builds\3077\vc\crtbld\crt\src\_ctype.c) segment .text

    46 0001:00036110    48 0001:00036116    50 0001:00036121    51 0001:0003612c
    53 0001:00036134    57 0001:00036172    62 0001:00036180    64 0001:00036186
    66 0001:00036191    67 0001:0003619c    69 0001:000361a4    73 0001:000361dc
    78 0001:000361e0    80 0001:000361e6    82 0001:000361f1    83 0001:000361fc
    85 0001:00036204    89 0001:0003623c    94 0001:00036240    96 0001:00036246
    98 0001:00036251    99 0001:0003625c   101 0001:00036264   105 0001:0003629c
   110 0001:000362a0   112 0001:000362a6   114 0001:000362b1   115 0001:000362bc
   117 0001:000362c4   121 0001:00036302   126 0001:00036310   128 0001:00036316
   130 0001:00036321   131 0001:0003632c   133 0001:00036334   137 0001:0003636c
   142 0001:00036370   144 0001:00036376   146 0001:00036381   147 0001:0003638c
   149 0001:00036394   153 0001:000363cc   158 0001:000363d0   160 0001:000363d6
   162 0001:000363e1   163 0001:000363ec   165 0001:000363f4   169 0001:00036432
   174 0001:00036440   176 0001:00036446   178 0001:00036451   179 0001:0003645c
   181 0001:00036464   185 0001:000364a2   190 0001:000364b0   192 0001:000364b6
   194 0001:000364c1   195 0001:000364cc   197 0001:000364d4   201 0001:00036512
   206 0001:00036520   208 0001:00036526   210 0001:00036531   211 0001:0003653c
   213 0001:00036544   217 0001:0003657c   222 0001:00036580   223 0001:00036583
   224 0001:0003658e   229 0001:00036590   230 0001:00036593   231 0001:00036599
   236 0001:000365a0   237 0001:000365a4   238 0001:000365cd   243 0001:000365e0
   244 0001:000365e4   245 0001:0003660d

Line numbers for C:\Program Files\AGEIA Technologies\AGEIA PhysX SDK\v2.3.2\Samples\SampleCommonCode\lib\win32\SampleCommonCodeDEBUG.lib(c:\program files\ageia technologies\ageia physx sdk\v2.3.2\samples\samplecommoncode\src\stream.h) segment .text

    36 0001:00044520    37 0001:00044550    38 0001:00044580    39 0001:000445b0
    40 0001:000445e0    41 0001:00044610    68 0001:00044920    69 0001:00044950
    70 0001:00044980    71 0001:000449b0    72 0001:000449e0    73 0001:00044a10

Line numbers for C:\Program Files\AGEIA Technologies\AGEIA PhysX SDK\v2.3.2\Samples\SampleCommonCode\lib\win32\SampleCommonCodeDEBUG.lib(c:\program files\ageia technologies\ageia physx sdk\v2.3.2\sdks\foundation\include\nxstream.h) segment .text

    38 0001:00044040    43 0001:00044090

Line numbers for C:\Program Files\AGEIA Technologies\AGEIA PhysX SDK\v2.3.2\Samples\SampleCommonCode\lib\win32\SampleCommonCodeDEBUG.lib(c:\program files\ageia technologies\ageia physx sdk\v2.3.2\samples\samplecommoncode\src\stream.cpp) segment .text

     6 0001:00043fe0     7 0001:00044004     8 0001:00044032    11 0001:000440e0
    12 0001:000440f0    13 0001:00044108    17 0001:00044120    19 0001:00044129
    20 0001:00044143    21 0001:0004415d    22 0001:00044160    25 0001:00044170
    27 0001:00044179    28 0001:00044193    29 0001:000441ad    30 0001:000441b1
    33 0001:000441c0    35 0001:000441c9    36 0001:000441e3    37 0001:000441fd
    38 0001:00044200    41 0001:00044210    43 0001:00044219    44 0001:00044233
    45 0001:0004424d    46 0001:00044250    49 0001:00044260    51 0001:00044269
    52 0001:00044283    53 0001:0004429d    54 0001:000442a0    57 0001:000442b0
    58 0001:000442b9    59 0001:000442d5    60 0001:000442ef    64 0001:00044300
    65 0001:00044309    66 0001:00044323    67 0001:0004433d    68 0001:00044340
    71 0001:00044350    72 0001:00044359    73 0001:00044373    74 0001:0004438d
    75 0001:00044390    78 0001:000443a0    79 0001:000443a9    80 0001:000443c3
    81 0001:000443dd    82 0001:000443e0    85 0001:000443f0    86 0001:000443f9
    87 0001:00044413    88 0001:0004442d    89 0001:00044430    92 0001:00044440
    93 0001:00044449    94 0001:00044463    95 0001:0004447d    96 0001:00044480
    99 0001:00044490   100 0001:00044499   101 0001:000444b5   102 0001:000444cf
   103 0001:000444d2   109 0001:000444e0   110 0001:00044516   113 0001:00044670
   114 0001:0004469e   116 0001:000446a7   117 0001:000446bc   119 0001:000446c6
   122 0001:000446f0   123 0001:000446f7   124 0001:00044701   127 0001:00044710
   128 0001:00044717   129 0001:00044728   130 0001:0004472b   132 0001:00044740
   133 0001:00044747   134 0001:00044758   135 0001:0004475b   137 0001:00044770
   138 0001:00044777   139 0001:00044788   140 0001:0004478b   142 0001:000447a0
   143 0001:000447a7   144 0001:000447b8   145 0001:000447bb   147 0001:000447d0
   148 0001:000447d7   149 0001:000447e8   150 0001:000447eb   152 0001:00044800
   153 0001:0004480b   154 0001:00044817   156 0001:00044826   158 0001:00044835
   159 0001:0004484d   161 0001:0004486a   163 0001:00044873   164 0001:00044890
   166 0001:000448a5   168 0001:000448ae   169 0001:000448ce   170 0001:000448dd
   171 0001:000448e0   175 0001:000448f0   176 0001:00044911   179 0001:00044a70
   181 0001:00044a80   184 0001:00044a90   186 0001:00044a99   187 0001:00044aa4
   188 0001:00044ab3   189 0001:00044ab6   192 0001:00044ac0   194 0001:00044ac9
   195 0001:00044ad6   196 0001:00044ae5   197 0001:00044ae9   200 0001:00044af0
   202 0001:00044af9   203 0001:00044b04   204 0001:00044b13   205 0001:00044b16
   208 0001:00044b20   210 0001:00044b29   211 0001:00044b34   212 0001:00044b43
   213 0001:00044b46   216 0001:00044b50   218 0001:00044b59   219 0001:00044b6a
   220 0001:00044b79   221 0001:00044b7c   224 0001:00044b80   225 0001:00044b89
   226 0001:00044ba3   227 0001:00044bb2

Line numbers for D:\Program Files\Microsoft Visual Studio .NET 2003\Vc7\lib\libcpmtd.lib(f:\vs70builds\3077\vc\crtbld\crt\src\string.cpp) segment .text

     7 0001:00044c10     8 0001:00044c2e     9 0001:00044c5c    12 0001:00044c70
    13 0001:00044c8e    14 0001:00044cbc
